ARM GAS  C:\Users\barto\AppData\Local\Temp\ccRvWRpF.s 			page 1


   1              		.syntax unified
   2              		.cpu cortex-m3
   3              		.fpu softvfp
   4              		.eabi_attribute 20, 1
   5              		.eabi_attribute 21, 1
   6              		.eabi_attribute 23, 3
   7              		.eabi_attribute 24, 1
   8              		.eabi_attribute 25, 1
   9              		.eabi_attribute 26, 1
  10              		.eabi_attribute 30, 6
  11              		.eabi_attribute 34, 1
  12              		.eabi_attribute 18, 4
  13              		.thumb
  14              		.syntax unified
  15              		.file	"Control_Pin.c"
  16              		.text
  17              	.Ltext0:
  18              		.cfi_sections	.debug_frame
  19              		.section	.text.Control_Pin_Write,"ax",%progbits
  20              		.align	2
  21              		.global	Control_Pin_Write
  22              		.thumb
  23              		.thumb_func
  24              		.type	Control_Pin_Write, %function
  25              	Control_Pin_Write:
  26              	.LFB0:
  27              		.file 1 "Generated_Source\\PSoC5\\Control_Pin.c"
   1:Generated_Source\PSoC5/Control_Pin.c **** /*******************************************************************************
   2:Generated_Source\PSoC5/Control_Pin.c **** * File Name: Control_Pin.c  
   3:Generated_Source\PSoC5/Control_Pin.c **** * Version 2.20
   4:Generated_Source\PSoC5/Control_Pin.c **** *
   5:Generated_Source\PSoC5/Control_Pin.c **** * Description:
   6:Generated_Source\PSoC5/Control_Pin.c **** *  This file contains API to enable firmware control of a Pins component.
   7:Generated_Source\PSoC5/Control_Pin.c **** *
   8:Generated_Source\PSoC5/Control_Pin.c **** * Note:
   9:Generated_Source\PSoC5/Control_Pin.c **** *
  10:Generated_Source\PSoC5/Control_Pin.c **** ********************************************************************************
  11:Generated_Source\PSoC5/Control_Pin.c **** * Copyright 2008-2015, Cypress Semiconductor Corporation.  All rights reserved.
  12:Generated_Source\PSoC5/Control_Pin.c **** * You may use this file only in accordance with the license, terms, conditions, 
  13:Generated_Source\PSoC5/Control_Pin.c **** * disclaimers, and limitations in the end user license agreement accompanying 
  14:Generated_Source\PSoC5/Control_Pin.c **** * the software package with which this file was provided.
  15:Generated_Source\PSoC5/Control_Pin.c **** *******************************************************************************/
  16:Generated_Source\PSoC5/Control_Pin.c **** 
  17:Generated_Source\PSoC5/Control_Pin.c **** #include "cytypes.h"
  18:Generated_Source\PSoC5/Control_Pin.c **** #include "Control_Pin.h"
  19:Generated_Source\PSoC5/Control_Pin.c **** 
  20:Generated_Source\PSoC5/Control_Pin.c **** /* APIs are not generated for P15[7:6] on PSoC 5 */
  21:Generated_Source\PSoC5/Control_Pin.c **** #if !(CY_PSOC5A &&\
  22:Generated_Source\PSoC5/Control_Pin.c **** 	 Control_Pin__PORT == 15 && ((Control_Pin__MASK & 0xC0) != 0))
  23:Generated_Source\PSoC5/Control_Pin.c **** 
  24:Generated_Source\PSoC5/Control_Pin.c **** 
  25:Generated_Source\PSoC5/Control_Pin.c **** /*******************************************************************************
  26:Generated_Source\PSoC5/Control_Pin.c **** * Function Name: Control_Pin_Write
  27:Generated_Source\PSoC5/Control_Pin.c **** ****************************************************************************//**
  28:Generated_Source\PSoC5/Control_Pin.c **** *
  29:Generated_Source\PSoC5/Control_Pin.c **** * \brief Writes the value to the physical port (data output register), masking
  30:Generated_Source\PSoC5/Control_Pin.c **** *  and shifting the bits appropriately. 
ARM GAS  C:\Users\barto\AppData\Local\Temp\ccRvWRpF.s 			page 2


  31:Generated_Source\PSoC5/Control_Pin.c **** *
  32:Generated_Source\PSoC5/Control_Pin.c **** * The data output register controls the signal applied to the physical pin in 
  33:Generated_Source\PSoC5/Control_Pin.c **** * conjunction with the drive mode parameter. This function avoids changing 
  34:Generated_Source\PSoC5/Control_Pin.c **** * other bits in the port by using the appropriate method (read-modify-write or
  35:Generated_Source\PSoC5/Control_Pin.c **** * bit banding).
  36:Generated_Source\PSoC5/Control_Pin.c **** *
  37:Generated_Source\PSoC5/Control_Pin.c **** * <b>Note</b> This function should not be used on a hardware digital output pin 
  38:Generated_Source\PSoC5/Control_Pin.c **** * as it is driven by the hardware signal attached to it.
  39:Generated_Source\PSoC5/Control_Pin.c **** *
  40:Generated_Source\PSoC5/Control_Pin.c **** * \param value
  41:Generated_Source\PSoC5/Control_Pin.c **** *  Value to write to the component instance.
  42:Generated_Source\PSoC5/Control_Pin.c **** *
  43:Generated_Source\PSoC5/Control_Pin.c **** * \return 
  44:Generated_Source\PSoC5/Control_Pin.c **** *  None 
  45:Generated_Source\PSoC5/Control_Pin.c **** *
  46:Generated_Source\PSoC5/Control_Pin.c **** * \sideeffect
  47:Generated_Source\PSoC5/Control_Pin.c **** *  If you use read-modify-write operations that are not atomic; the Interrupt 
  48:Generated_Source\PSoC5/Control_Pin.c **** *  Service Routines (ISR) can cause corruption of this function. An ISR that 
  49:Generated_Source\PSoC5/Control_Pin.c **** *  interrupts this function and performs writes to the Pins component data 
  50:Generated_Source\PSoC5/Control_Pin.c **** *  register can cause corrupted port data. To avoid this issue, you should 
  51:Generated_Source\PSoC5/Control_Pin.c **** *  either use the Per-Pin APIs (primary method) or disable interrupts around 
  52:Generated_Source\PSoC5/Control_Pin.c **** *  this function.
  53:Generated_Source\PSoC5/Control_Pin.c **** *
  54:Generated_Source\PSoC5/Control_Pin.c **** * \funcusage
  55:Generated_Source\PSoC5/Control_Pin.c **** *  \snippet Control_Pin_SUT.c usage_Control_Pin_Write
  56:Generated_Source\PSoC5/Control_Pin.c **** *******************************************************************************/
  57:Generated_Source\PSoC5/Control_Pin.c **** void Control_Pin_Write(uint8 value)
  58:Generated_Source\PSoC5/Control_Pin.c **** {
  28              		.loc 1 58 0
  29              		.cfi_startproc
  30              		@ args = 0, pretend = 0, frame = 16
  31              		@ frame_needed = 1, uses_anonymous_args = 0
  32              		@ link register save eliminated.
  33 0000 80B4     		push	{r7}
  34              		.cfi_def_cfa_offset 4
  35              		.cfi_offset 7, -4
  36 0002 85B0     		sub	sp, sp, #20
  37              		.cfi_def_cfa_offset 24
  38 0004 00AF     		add	r7, sp, #0
  39              		.cfi_def_cfa_register 7
  40 0006 0346     		mov	r3, r0
  41 0008 FB71     		strb	r3, [r7, #7]
  59:Generated_Source\PSoC5/Control_Pin.c ****     uint8 staticBits = (Control_Pin_DR & (uint8)(~Control_Pin_MASK));
  42              		.loc 1 59 0
  43 000a 0A4B     		ldr	r3, .L2
  44 000c 1B78     		ldrb	r3, [r3]
  45 000e DBB2     		uxtb	r3, r3
  46 0010 23F00F03 		bic	r3, r3, #15
  47 0014 FB73     		strb	r3, [r7, #15]
  60:Generated_Source\PSoC5/Control_Pin.c ****     Control_Pin_DR = staticBits | ((uint8)(value << Control_Pin_SHIFT) & Control_Pin_MASK);
  48              		.loc 1 60 0
  49 0016 0749     		ldr	r1, .L2
  50 0018 FB79     		ldrb	r3, [r7, #7]
  51 001a 03F00F03 		and	r3, r3, #15
  52 001e DAB2     		uxtb	r2, r3
  53 0020 FB7B     		ldrb	r3, [r7, #15]
  54 0022 1343     		orrs	r3, r3, r2
ARM GAS  C:\Users\barto\AppData\Local\Temp\ccRvWRpF.s 			page 3


  55 0024 DBB2     		uxtb	r3, r3
  56 0026 0B70     		strb	r3, [r1]
  61:Generated_Source\PSoC5/Control_Pin.c **** }
  57              		.loc 1 61 0
  58 0028 00BF     		nop
  59 002a 1437     		adds	r7, r7, #20
  60              		.cfi_def_cfa_offset 4
  61 002c BD46     		mov	sp, r7
  62              		.cfi_def_cfa_register 13
  63              		@ sp needed
  64 002e 80BC     		pop	{r7}
  65              		.cfi_restore 7
  66              		.cfi_def_cfa_offset 0
  67 0030 7047     		bx	lr
  68              	.L3:
  69 0032 00BF     		.align	2
  70              	.L2:
  71 0034 F0510040 		.word	1073762800
  72              		.cfi_endproc
  73              	.LFE0:
  74              		.size	Control_Pin_Write, .-Control_Pin_Write
  75              		.section	.text.Control_Pin_SetDriveMode,"ax",%progbits
  76              		.align	2
  77              		.global	Control_Pin_SetDriveMode
  78              		.thumb
  79              		.thumb_func
  80              		.type	Control_Pin_SetDriveMode, %function
  81              	Control_Pin_SetDriveMode:
  82              	.LFB1:
  62:Generated_Source\PSoC5/Control_Pin.c **** 
  63:Generated_Source\PSoC5/Control_Pin.c **** 
  64:Generated_Source\PSoC5/Control_Pin.c **** /*******************************************************************************
  65:Generated_Source\PSoC5/Control_Pin.c **** * Function Name: Control_Pin_SetDriveMode
  66:Generated_Source\PSoC5/Control_Pin.c **** ****************************************************************************//**
  67:Generated_Source\PSoC5/Control_Pin.c **** *
  68:Generated_Source\PSoC5/Control_Pin.c **** * \brief Sets the drive mode for each of the Pins component's pins.
  69:Generated_Source\PSoC5/Control_Pin.c **** * 
  70:Generated_Source\PSoC5/Control_Pin.c **** * <b>Note</b> This affects all pins in the Pins component instance. Use the
  71:Generated_Source\PSoC5/Control_Pin.c **** * Per-Pin APIs if you wish to control individual pin's drive modes.
  72:Generated_Source\PSoC5/Control_Pin.c **** *
  73:Generated_Source\PSoC5/Control_Pin.c **** * \param mode
  74:Generated_Source\PSoC5/Control_Pin.c **** *  Mode for the selected signals. Valid options are documented in 
  75:Generated_Source\PSoC5/Control_Pin.c **** *  \ref driveMode.
  76:Generated_Source\PSoC5/Control_Pin.c **** *
  77:Generated_Source\PSoC5/Control_Pin.c **** * \return
  78:Generated_Source\PSoC5/Control_Pin.c **** *  None
  79:Generated_Source\PSoC5/Control_Pin.c **** *
  80:Generated_Source\PSoC5/Control_Pin.c **** * \sideeffect
  81:Generated_Source\PSoC5/Control_Pin.c **** *  If you use read-modify-write operations that are not atomic, the ISR can
  82:Generated_Source\PSoC5/Control_Pin.c **** *  cause corruption of this function. An ISR that interrupts this function 
  83:Generated_Source\PSoC5/Control_Pin.c **** *  and performs writes to the Pins component Drive Mode registers can cause 
  84:Generated_Source\PSoC5/Control_Pin.c **** *  corrupted port data. To avoid this issue, you should either use the Per-Pin
  85:Generated_Source\PSoC5/Control_Pin.c **** *  APIs (primary method) or disable interrupts around this function.
  86:Generated_Source\PSoC5/Control_Pin.c **** *
  87:Generated_Source\PSoC5/Control_Pin.c **** * \funcusage
  88:Generated_Source\PSoC5/Control_Pin.c **** *  \snippet Control_Pin_SUT.c usage_Control_Pin_SetDriveMode
  89:Generated_Source\PSoC5/Control_Pin.c **** *******************************************************************************/
ARM GAS  C:\Users\barto\AppData\Local\Temp\ccRvWRpF.s 			page 4


  90:Generated_Source\PSoC5/Control_Pin.c **** void Control_Pin_SetDriveMode(uint8 mode)
  91:Generated_Source\PSoC5/Control_Pin.c **** {
  83              		.loc 1 91 0
  84              		.cfi_startproc
  85              		@ args = 0, pretend = 0, frame = 8
  86              		@ frame_needed = 1, uses_anonymous_args = 0
  87              		@ link register save eliminated.
  88 0000 80B4     		push	{r7}
  89              		.cfi_def_cfa_offset 4
  90              		.cfi_offset 7, -4
  91 0002 83B0     		sub	sp, sp, #12
  92              		.cfi_def_cfa_offset 16
  93 0004 00AF     		add	r7, sp, #0
  94              		.cfi_def_cfa_register 7
  95 0006 0346     		mov	r3, r0
  96 0008 FB71     		strb	r3, [r7, #7]
  92:Generated_Source\PSoC5/Control_Pin.c **** 	CyPins_SetPinDriveMode(Control_Pin_0, mode);
  97              		.loc 1 92 0
  98 000a 2449     		ldr	r1, .L5
  99 000c 234B     		ldr	r3, .L5
 100 000e 1B78     		ldrb	r3, [r3]
 101 0010 DBB2     		uxtb	r3, r3
 102 0012 5BB2     		sxtb	r3, r3
 103 0014 23F00E03 		bic	r3, r3, #14
 104 0018 5AB2     		sxtb	r2, r3
 105 001a 97F90730 		ldrsb	r3, [r7, #7]
 106 001e 03F00E03 		and	r3, r3, #14
 107 0022 5BB2     		sxtb	r3, r3
 108 0024 1343     		orrs	r3, r3, r2
 109 0026 5BB2     		sxtb	r3, r3
 110 0028 DBB2     		uxtb	r3, r3
 111 002a 0B70     		strb	r3, [r1]
  93:Generated_Source\PSoC5/Control_Pin.c **** 	CyPins_SetPinDriveMode(Control_Pin_1, mode);
 112              		.loc 1 93 0
 113 002c 1C49     		ldr	r1, .L5+4
 114 002e 1C4B     		ldr	r3, .L5+4
 115 0030 1B78     		ldrb	r3, [r3]
 116 0032 DBB2     		uxtb	r3, r3
 117 0034 5BB2     		sxtb	r3, r3
 118 0036 23F00E03 		bic	r3, r3, #14
 119 003a 5AB2     		sxtb	r2, r3
 120 003c 97F90730 		ldrsb	r3, [r7, #7]
 121 0040 03F00E03 		and	r3, r3, #14
 122 0044 5BB2     		sxtb	r3, r3
 123 0046 1343     		orrs	r3, r3, r2
 124 0048 5BB2     		sxtb	r3, r3
 125 004a DBB2     		uxtb	r3, r3
 126 004c 0B70     		strb	r3, [r1]
  94:Generated_Source\PSoC5/Control_Pin.c **** 	CyPins_SetPinDriveMode(Control_Pin_2, mode);
 127              		.loc 1 94 0
 128 004e 1549     		ldr	r1, .L5+8
 129 0050 144B     		ldr	r3, .L5+8
 130 0052 1B78     		ldrb	r3, [r3]
 131 0054 DBB2     		uxtb	r3, r3
 132 0056 5BB2     		sxtb	r3, r3
 133 0058 23F00E03 		bic	r3, r3, #14
 134 005c 5AB2     		sxtb	r2, r3
ARM GAS  C:\Users\barto\AppData\Local\Temp\ccRvWRpF.s 			page 5


 135 005e 97F90730 		ldrsb	r3, [r7, #7]
 136 0062 03F00E03 		and	r3, r3, #14
 137 0066 5BB2     		sxtb	r3, r3
 138 0068 1343     		orrs	r3, r3, r2
 139 006a 5BB2     		sxtb	r3, r3
 140 006c DBB2     		uxtb	r3, r3
 141 006e 0B70     		strb	r3, [r1]
  95:Generated_Source\PSoC5/Control_Pin.c **** 	CyPins_SetPinDriveMode(Control_Pin_3, mode);
 142              		.loc 1 95 0
 143 0070 0D49     		ldr	r1, .L5+12
 144 0072 0D4B     		ldr	r3, .L5+12
 145 0074 1B78     		ldrb	r3, [r3]
 146 0076 DBB2     		uxtb	r3, r3
 147 0078 5BB2     		sxtb	r3, r3
 148 007a 23F00E03 		bic	r3, r3, #14
 149 007e 5AB2     		sxtb	r2, r3
 150 0080 97F90730 		ldrsb	r3, [r7, #7]
 151 0084 03F00E03 		and	r3, r3, #14
 152 0088 5BB2     		sxtb	r3, r3
 153 008a 1343     		orrs	r3, r3, r2
 154 008c 5BB2     		sxtb	r3, r3
 155 008e DBB2     		uxtb	r3, r3
 156 0090 0B70     		strb	r3, [r1]
  96:Generated_Source\PSoC5/Control_Pin.c **** }
 157              		.loc 1 96 0
 158 0092 00BF     		nop
 159 0094 0C37     		adds	r7, r7, #12
 160              		.cfi_def_cfa_offset 4
 161 0096 BD46     		mov	sp, r7
 162              		.cfi_def_cfa_register 13
 163              		@ sp needed
 164 0098 80BC     		pop	{r7}
 165              		.cfi_restore 7
 166              		.cfi_def_cfa_offset 0
 167 009a 7047     		bx	lr
 168              	.L6:
 169              		.align	2
 170              	.L5:
 171 009c 78500040 		.word	1073762424
 172 00a0 79500040 		.word	1073762425
 173 00a4 7A500040 		.word	1073762426
 174 00a8 7B500040 		.word	1073762427
 175              		.cfi_endproc
 176              	.LFE1:
 177              		.size	Control_Pin_SetDriveMode, .-Control_Pin_SetDriveMode
 178              		.section	.text.Control_Pin_Read,"ax",%progbits
 179              		.align	2
 180              		.global	Control_Pin_Read
 181              		.thumb
 182              		.thumb_func
 183              		.type	Control_Pin_Read, %function
 184              	Control_Pin_Read:
 185              	.LFB2:
  97:Generated_Source\PSoC5/Control_Pin.c **** 
  98:Generated_Source\PSoC5/Control_Pin.c **** 
  99:Generated_Source\PSoC5/Control_Pin.c **** /*******************************************************************************
 100:Generated_Source\PSoC5/Control_Pin.c **** * Function Name: Control_Pin_Read
ARM GAS  C:\Users\barto\AppData\Local\Temp\ccRvWRpF.s 			page 6


 101:Generated_Source\PSoC5/Control_Pin.c **** ****************************************************************************//**
 102:Generated_Source\PSoC5/Control_Pin.c **** *
 103:Generated_Source\PSoC5/Control_Pin.c **** * \brief Reads the associated physical port (pin status register) and masks 
 104:Generated_Source\PSoC5/Control_Pin.c **** *  the required bits according to the width and bit position of the component
 105:Generated_Source\PSoC5/Control_Pin.c **** *  instance. 
 106:Generated_Source\PSoC5/Control_Pin.c **** *
 107:Generated_Source\PSoC5/Control_Pin.c **** * The pin's status register returns the current logic level present on the 
 108:Generated_Source\PSoC5/Control_Pin.c **** * physical pin.
 109:Generated_Source\PSoC5/Control_Pin.c **** *
 110:Generated_Source\PSoC5/Control_Pin.c **** * \return 
 111:Generated_Source\PSoC5/Control_Pin.c **** *  The current value for the pins in the component as a right justified number.
 112:Generated_Source\PSoC5/Control_Pin.c **** *
 113:Generated_Source\PSoC5/Control_Pin.c **** * \funcusage
 114:Generated_Source\PSoC5/Control_Pin.c **** *  \snippet Control_Pin_SUT.c usage_Control_Pin_Read  
 115:Generated_Source\PSoC5/Control_Pin.c **** *******************************************************************************/
 116:Generated_Source\PSoC5/Control_Pin.c **** uint8 Control_Pin_Read(void)
 117:Generated_Source\PSoC5/Control_Pin.c **** {
 186              		.loc 1 117 0
 187              		.cfi_startproc
 188              		@ args = 0, pretend = 0, frame = 0
 189              		@ frame_needed = 1, uses_anonymous_args = 0
 190              		@ link register save eliminated.
 191 0000 80B4     		push	{r7}
 192              		.cfi_def_cfa_offset 4
 193              		.cfi_offset 7, -4
 194 0002 00AF     		add	r7, sp, #0
 195              		.cfi_def_cfa_register 7
 118:Generated_Source\PSoC5/Control_Pin.c ****     return (Control_Pin_PS & Control_Pin_MASK) >> Control_Pin_SHIFT;
 196              		.loc 1 118 0
 197 0004 044B     		ldr	r3, .L9
 198 0006 1B78     		ldrb	r3, [r3]
 199 0008 DBB2     		uxtb	r3, r3
 200 000a 03F00F03 		and	r3, r3, #15
 201 000e DBB2     		uxtb	r3, r3
 119:Generated_Source\PSoC5/Control_Pin.c **** }
 202              		.loc 1 119 0
 203 0010 1846     		mov	r0, r3
 204 0012 BD46     		mov	sp, r7
 205              		.cfi_def_cfa_register 13
 206              		@ sp needed
 207 0014 80BC     		pop	{r7}
 208              		.cfi_restore 7
 209              		.cfi_def_cfa_offset 0
 210 0016 7047     		bx	lr
 211              	.L10:
 212              		.align	2
 213              	.L9:
 214 0018 F1510040 		.word	1073762801
 215              		.cfi_endproc
 216              	.LFE2:
 217              		.size	Control_Pin_Read, .-Control_Pin_Read
 218              		.section	.text.Control_Pin_ReadDataReg,"ax",%progbits
 219              		.align	2
 220              		.global	Control_Pin_ReadDataReg
 221              		.thumb
 222              		.thumb_func
 223              		.type	Control_Pin_ReadDataReg, %function
ARM GAS  C:\Users\barto\AppData\Local\Temp\ccRvWRpF.s 			page 7


 224              	Control_Pin_ReadDataReg:
 225              	.LFB3:
 120:Generated_Source\PSoC5/Control_Pin.c **** 
 121:Generated_Source\PSoC5/Control_Pin.c **** 
 122:Generated_Source\PSoC5/Control_Pin.c **** /*******************************************************************************
 123:Generated_Source\PSoC5/Control_Pin.c **** * Function Name: Control_Pin_ReadDataReg
 124:Generated_Source\PSoC5/Control_Pin.c **** ****************************************************************************//**
 125:Generated_Source\PSoC5/Control_Pin.c **** *
 126:Generated_Source\PSoC5/Control_Pin.c **** * \brief Reads the associated physical port's data output register and masks 
 127:Generated_Source\PSoC5/Control_Pin.c **** *  the correct bits according to the width and bit position of the component 
 128:Generated_Source\PSoC5/Control_Pin.c **** *  instance. 
 129:Generated_Source\PSoC5/Control_Pin.c **** *
 130:Generated_Source\PSoC5/Control_Pin.c **** * The data output register controls the signal applied to the physical pin in 
 131:Generated_Source\PSoC5/Control_Pin.c **** * conjunction with the drive mode parameter. This is not the same as the 
 132:Generated_Source\PSoC5/Control_Pin.c **** * preferred Control_Pin_Read() API because the 
 133:Generated_Source\PSoC5/Control_Pin.c **** * Control_Pin_ReadDataReg() reads the data register instead of the status 
 134:Generated_Source\PSoC5/Control_Pin.c **** * register. For output pins this is a useful function to determine the value 
 135:Generated_Source\PSoC5/Control_Pin.c **** * just written to the pin.
 136:Generated_Source\PSoC5/Control_Pin.c **** *
 137:Generated_Source\PSoC5/Control_Pin.c **** * \return 
 138:Generated_Source\PSoC5/Control_Pin.c **** *  The current value of the data register masked and shifted into a right 
 139:Generated_Source\PSoC5/Control_Pin.c **** *  justified number for the component instance.
 140:Generated_Source\PSoC5/Control_Pin.c **** *
 141:Generated_Source\PSoC5/Control_Pin.c **** * \funcusage
 142:Generated_Source\PSoC5/Control_Pin.c **** *  \snippet Control_Pin_SUT.c usage_Control_Pin_ReadDataReg 
 143:Generated_Source\PSoC5/Control_Pin.c **** *******************************************************************************/
 144:Generated_Source\PSoC5/Control_Pin.c **** uint8 Control_Pin_ReadDataReg(void)
 145:Generated_Source\PSoC5/Control_Pin.c **** {
 226              		.loc 1 145 0
 227              		.cfi_startproc
 228              		@ args = 0, pretend = 0, frame = 0
 229              		@ frame_needed = 1, uses_anonymous_args = 0
 230              		@ link register save eliminated.
 231 0000 80B4     		push	{r7}
 232              		.cfi_def_cfa_offset 4
 233              		.cfi_offset 7, -4
 234 0002 00AF     		add	r7, sp, #0
 235              		.cfi_def_cfa_register 7
 146:Generated_Source\PSoC5/Control_Pin.c ****     return (Control_Pin_DR & Control_Pin_MASK) >> Control_Pin_SHIFT;
 236              		.loc 1 146 0
 237 0004 044B     		ldr	r3, .L13
 238 0006 1B78     		ldrb	r3, [r3]
 239 0008 DBB2     		uxtb	r3, r3
 240 000a 03F00F03 		and	r3, r3, #15
 241 000e DBB2     		uxtb	r3, r3
 147:Generated_Source\PSoC5/Control_Pin.c **** }
 242              		.loc 1 147 0
 243 0010 1846     		mov	r0, r3
 244 0012 BD46     		mov	sp, r7
 245              		.cfi_def_cfa_register 13
 246              		@ sp needed
 247 0014 80BC     		pop	{r7}
 248              		.cfi_restore 7
 249              		.cfi_def_cfa_offset 0
 250 0016 7047     		bx	lr
 251              	.L14:
 252              		.align	2
ARM GAS  C:\Users\barto\AppData\Local\Temp\ccRvWRpF.s 			page 8


 253              	.L13:
 254 0018 F0510040 		.word	1073762800
 255              		.cfi_endproc
 256              	.LFE3:
 257              		.size	Control_Pin_ReadDataReg, .-Control_Pin_ReadDataReg
 258              		.text
 259              	.Letext0:
 260              		.file 2 "Generated_Source\\PSoC5\\cytypes.h"