ARM GAS  C:\Users\barto\AppData\Local\Temp\ccFqwkYw.s 			page 1


   1              		.syntax unified
   2              		.cpu cortex-m3
   3              		.fpu softvfp
   4              		.eabi_attribute 20, 1
   5              		.eabi_attribute 21, 1
   6              		.eabi_attribute 23, 3
   7              		.eabi_attribute 24, 1
   8              		.eabi_attribute 25, 1
   9              		.eabi_attribute 26, 1
  10              		.eabi_attribute 30, 6
  11              		.eabi_attribute 34, 1
  12              		.eabi_attribute 18, 4
  13              		.thumb
  14              		.syntax unified
  15              		.file	"coolant_control.c"
  16              		.text
  17              	.Ltext0:
  18              		.cfi_sections	.debug_frame
  19              		.comm	sys_position,12,4
  20              		.comm	sys_probe_position,12,4
  21              		.comm	sys_probe_state,1,1
  22              		.comm	sys_rt_exec_state,1,1
  23              		.comm	sys_rt_exec_alarm,1,1
  24              		.comm	sys_rt_exec_motion_override,1,1
  25              		.comm	sys_rt_exec_accessory_override,1,1
  26              		.section	.text.coolant_init,"ax",%progbits
  27              		.align	2
  28              		.global	coolant_init
  29              		.thumb
  30              		.thumb_func
  31              		.type	coolant_init, %function
  32              	coolant_init:
  33              	.LFB64:
  34              		.file 1 "coolant_control.c"
   1:coolant_control.c **** /*
   2:coolant_control.c ****   coolant_control.c - coolant control methods
   3:coolant_control.c ****   Part of Grbl
   4:coolant_control.c **** 
   5:coolant_control.c ****   Copyright (c) 2012-2015 Sungeun K. Jeon
   6:coolant_control.c ****       Updated For PSoC 2017-2018 Barton Dring buildlog.net
   7:coolant_control.c **** 
   8:coolant_control.c ****   Grbl is free software: you can redistribute it and/or modify
   9:coolant_control.c ****   it under the terms of the GNU General Public License as published by
  10:coolant_control.c ****   the Free Software Foundation, either version 3 of the License, or
  11:coolant_control.c ****   (at your option) any later version.
  12:coolant_control.c **** 
  13:coolant_control.c ****   Grbl is distributed in the hope that it will be useful,
  14:coolant_control.c ****   but WITHOUT ANY WARRANTY; without even the implied warranty of
  15:coolant_control.c ****   MERCHANTABILITY or FITNESS FOR A PARTICULAR PURPOSE.  See the
  16:coolant_control.c ****   GNU General Public License for more details.
  17:coolant_control.c **** 
  18:coolant_control.c ****   You should have received a copy of the GNU General Public License
  19:coolant_control.c ****   along with Grbl.  If not, see <http://www.gnu.org/licenses/>.
  20:coolant_control.c **** */  
  21:coolant_control.c **** 
  22:coolant_control.c **** #include "grbl.h"
  23:coolant_control.c **** 
ARM GAS  C:\Users\barto\AppData\Local\Temp\ccFqwkYw.s 			page 2


  24:coolant_control.c **** 
  25:coolant_control.c **** void coolant_init()
  26:coolant_control.c **** { 
  35              		.loc 1 26 0
  36              		.cfi_startproc
  37              		@ args = 0, pretend = 0, frame = 0
  38              		@ frame_needed = 1, uses_anonymous_args = 0
  39 0000 80B5     		push	{r7, lr}
  40              		.cfi_def_cfa_offset 8
  41              		.cfi_offset 7, -8
  42              		.cfi_offset 14, -4
  43 0002 00AF     		add	r7, sp, #0
  44              		.cfi_def_cfa_register 7
  27:coolant_control.c ****   coolant_set_state(COOLANT_DISABLE);
  45              		.loc 1 27 0
  46 0004 0020     		movs	r0, #0
  47 0006 FFF7FEFF 		bl	coolant_set_state
  28:coolant_control.c ****   
  29:coolant_control.c **** }
  48              		.loc 1 29 0
  49 000a 00BF     		nop
  50 000c 80BD     		pop	{r7, pc}
  51              		.cfi_endproc
  52              	.LFE64:
  53              		.size	coolant_init, .-coolant_init
  54 000e 00BF     		.section	.text.coolant_get_state,"ax",%progbits
  55              		.align	2
  56              		.global	coolant_get_state
  57              		.thumb
  58              		.thumb_func
  59              		.type	coolant_get_state, %function
  60              	coolant_get_state:
  61              	.LFB65:
  30:coolant_control.c **** 
  31:coolant_control.c **** // Returns current coolant output state. Overrides may alter it from programmed state.
  32:coolant_control.c **** uint8_t coolant_get_state()
  33:coolant_control.c **** {
  62              		.loc 1 33 0
  63              		.cfi_startproc
  64              		@ args = 0, pretend = 0, frame = 8
  65              		@ frame_needed = 1, uses_anonymous_args = 0
  66 0000 80B5     		push	{r7, lr}
  67              		.cfi_def_cfa_offset 8
  68              		.cfi_offset 7, -8
  69              		.cfi_offset 14, -4
  70 0002 82B0     		sub	sp, sp, #8
  71              		.cfi_def_cfa_offset 16
  72 0004 00AF     		add	r7, sp, #0
  73              		.cfi_def_cfa_register 7
  34:coolant_control.c ****   uint8_t cl_state = COOLANT_STATE_DISABLE;
  74              		.loc 1 34 0
  75 0006 0023     		movs	r3, #0
  76 0008 FB71     		strb	r3, [r7, #7]
  35:coolant_control.c ****   
  36:coolant_control.c ****   if (Flood_Coolant_Pin_Read()) 
  77              		.loc 1 36 0
  78 000a FFF7FEFF 		bl	Flood_Coolant_Pin_Read
ARM GAS  C:\Users\barto\AppData\Local\Temp\ccFqwkYw.s 			page 3


  79 000e 0346     		mov	r3, r0
  80 0010 002B     		cmp	r3, #0
  81 0012 03D0     		beq	.L3
  37:coolant_control.c ****   {  
  38:coolant_control.c ****   cl_state |= COOLANT_STATE_FLOOD;
  82              		.loc 1 38 0
  83 0014 FB79     		ldrb	r3, [r7, #7]
  84 0016 43F00103 		orr	r3, r3, #1
  85 001a FB71     		strb	r3, [r7, #7]
  86              	.L3:
  39:coolant_control.c ****   }
  40:coolant_control.c **** 
  41:coolant_control.c ****   if (Mist_Coolant_Pin_Read()) 
  87              		.loc 1 41 0
  88 001c FFF7FEFF 		bl	Mist_Coolant_Pin_Read
  89 0020 0346     		mov	r3, r0
  90 0022 002B     		cmp	r3, #0
  91 0024 03D0     		beq	.L4
  42:coolant_control.c ****   {  
  43:coolant_control.c ****   cl_state |= COOLANT_STATE_MIST;
  92              		.loc 1 43 0
  93 0026 FB79     		ldrb	r3, [r7, #7]
  94 0028 43F00203 		orr	r3, r3, #2
  95 002c FB71     		strb	r3, [r7, #7]
  96              	.L4:
  44:coolant_control.c ****   }
  45:coolant_control.c ****   
  46:coolant_control.c ****   return(cl_state);
  97              		.loc 1 46 0
  98 002e FB79     		ldrb	r3, [r7, #7]	@ zero_extendqisi2
  47:coolant_control.c **** }
  99              		.loc 1 47 0
 100 0030 1846     		mov	r0, r3
 101 0032 0837     		adds	r7, r7, #8
 102              		.cfi_def_cfa_offset 8
 103 0034 BD46     		mov	sp, r7
 104              		.cfi_def_cfa_register 13
 105              		@ sp needed
 106 0036 80BD     		pop	{r7, pc}
 107              		.cfi_endproc
 108              	.LFE65:
 109              		.size	coolant_get_state, .-coolant_get_state
 110              		.section	.text.coolant_stop,"ax",%progbits
 111              		.align	2
 112              		.global	coolant_stop
 113              		.thumb
 114              		.thumb_func
 115              		.type	coolant_stop, %function
 116              	coolant_stop:
 117              	.LFB66:
  48:coolant_control.c **** 
  49:coolant_control.c **** 
  50:coolant_control.c **** void coolant_stop()
  51:coolant_control.c **** {
 118              		.loc 1 51 0
 119              		.cfi_startproc
 120              		@ args = 0, pretend = 0, frame = 0
ARM GAS  C:\Users\barto\AppData\Local\Temp\ccFqwkYw.s 			page 4


 121              		@ frame_needed = 1, uses_anonymous_args = 0
 122 0000 80B5     		push	{r7, lr}
 123              		.cfi_def_cfa_offset 8
 124              		.cfi_offset 7, -8
 125              		.cfi_offset 14, -4
 126 0002 00AF     		add	r7, sp, #0
 127              		.cfi_def_cfa_register 7
  52:coolant_control.c ****   Flood_Coolant_Pin_Write(0);
 128              		.loc 1 52 0
 129 0004 0020     		movs	r0, #0
 130 0006 FFF7FEFF 		bl	Flood_Coolant_Pin_Write
  53:coolant_control.c ****   Mist_Coolant_Pin_Write(0);
 131              		.loc 1 53 0
 132 000a 0020     		movs	r0, #0
 133 000c FFF7FEFF 		bl	Mist_Coolant_Pin_Write
  54:coolant_control.c **** }
 134              		.loc 1 54 0
 135 0010 00BF     		nop
 136 0012 80BD     		pop	{r7, pc}
 137              		.cfi_endproc
 138              	.LFE66:
 139              		.size	coolant_stop, .-coolant_stop
 140              		.section	.text.coolant_set_state,"ax",%progbits
 141              		.align	2
 142              		.global	coolant_set_state
 143              		.thumb
 144              		.thumb_func
 145              		.type	coolant_set_state, %function
 146              	coolant_set_state:
 147              	.LFB67:
  55:coolant_control.c **** 
  56:coolant_control.c **** 
  57:coolant_control.c **** void coolant_set_state(uint8_t mode)
  58:coolant_control.c **** {
 148              		.loc 1 58 0
 149              		.cfi_startproc
 150              		@ args = 0, pretend = 0, frame = 8
 151              		@ frame_needed = 1, uses_anonymous_args = 0
 152 0000 80B5     		push	{r7, lr}
 153              		.cfi_def_cfa_offset 8
 154              		.cfi_offset 7, -8
 155              		.cfi_offset 14, -4
 156 0002 82B0     		sub	sp, sp, #8
 157              		.cfi_def_cfa_offset 16
 158 0004 00AF     		add	r7, sp, #0
 159              		.cfi_def_cfa_register 7
 160 0006 0346     		mov	r3, r0
 161 0008 FB71     		strb	r3, [r7, #7]
  59:coolant_control.c ****   if (sys.abort) { return; } // Block during abort.
 162              		.loc 1 59 0
 163 000a 104B     		ldr	r3, .L14
 164 000c 5B78     		ldrb	r3, [r3, #1]	@ zero_extendqisi2
 165 000e 002B     		cmp	r3, #0
 166 0010 18D1     		bne	.L13
  60:coolant_control.c ****   
  61:coolant_control.c ****   if (mode == COOLANT_DISABLE) // M9
 167              		.loc 1 61 0
ARM GAS  C:\Users\barto\AppData\Local\Temp\ccFqwkYw.s 			page 5


 168 0012 FB79     		ldrb	r3, [r7, #7]	@ zero_extendqisi2
 169 0014 002B     		cmp	r3, #0
 170 0016 02D1     		bne	.L10
  62:coolant_control.c ****   {  
  63:coolant_control.c ****     coolant_stop();
 171              		.loc 1 63 0
 172 0018 FFF7FEFF 		bl	coolant_stop
 173 001c 0EE0     		b	.L11
 174              	.L10:
  64:coolant_control.c ****   }
  65:coolant_control.c ****   else
  66:coolant_control.c ****   {
  67:coolant_control.c ****     if (mode & COOLANT_FLOOD_ENABLE) // M8
 175              		.loc 1 67 0
 176 001e FB79     		ldrb	r3, [r7, #7]	@ zero_extendqisi2
 177 0020 03F04003 		and	r3, r3, #64
 178 0024 002B     		cmp	r3, #0
 179 0026 02D0     		beq	.L12
  68:coolant_control.c ****     {
  69:coolant_control.c ****       Flood_Coolant_Pin_Write(1);
 180              		.loc 1 69 0
 181 0028 0120     		movs	r0, #1
 182 002a FFF7FEFF 		bl	Flood_Coolant_Pin_Write
 183              	.L12:
  70:coolant_control.c ****     }
  71:coolant_control.c ****     if (mode & COOLANT_MIST_ENABLE) // M7
 184              		.loc 1 71 0
 185 002e 97F90730 		ldrsb	r3, [r7, #7]
 186 0032 002B     		cmp	r3, #0
 187 0034 02DA     		bge	.L11
  72:coolant_control.c ****     {
  73:coolant_control.c ****        Mist_Coolant_Pin_Write(1);
 188              		.loc 1 73 0
 189 0036 0120     		movs	r0, #1
 190 0038 FFF7FEFF 		bl	Mist_Coolant_Pin_Write
 191              	.L11:
  74:coolant_control.c ****     }    
  75:coolant_control.c ****   }
  76:coolant_control.c ****   sys.report_ovr_counter = 0; // Set to report change immediately
 192              		.loc 1 76 0
 193 003c 034B     		ldr	r3, .L14
 194 003e 0022     		movs	r2, #0
 195 0040 DA72     		strb	r2, [r3, #11]
 196 0042 00E0     		b	.L7
 197              	.L13:
  59:coolant_control.c ****   
 198              		.loc 1 59 0
 199 0044 00BF     		nop
 200              	.L7:
  77:coolant_control.c ****  
  78:coolant_control.c **** }
 201              		.loc 1 78 0
 202 0046 0837     		adds	r7, r7, #8
 203              		.cfi_def_cfa_offset 8
 204 0048 BD46     		mov	sp, r7
 205              		.cfi_def_cfa_register 13
 206              		@ sp needed
ARM GAS  C:\Users\barto\AppData\Local\Temp\ccFqwkYw.s 			page 6


 207 004a 80BD     		pop	{r7, pc}
 208              	.L15:
 209              		.align	2
 210              	.L14:
 211 004c 00000000 		.word	sys
 212              		.cfi_endproc
 213              	.LFE67:
 214              		.size	coolant_set_state, .-coolant_set_state
 215              		.section	.text.coolant_sync,"ax",%progbits
 216              		.align	2
 217              		.global	coolant_sync
 218              		.thumb
 219              		.thumb_func
 220              		.type	coolant_sync, %function
 221              	coolant_sync:
 222              	.LFB68:
  79:coolant_control.c **** 
  80:coolant_control.c **** 
  81:coolant_control.c **** // G-code parser entry-point for setting coolant state. Forces a planner buffer sync and bails 
  82:coolant_control.c **** // if an abort or check-mode is active.
  83:coolant_control.c **** void coolant_sync(uint8_t mode)
  84:coolant_control.c **** {
 223              		.loc 1 84 0
 224              		.cfi_startproc
 225              		@ args = 0, pretend = 0, frame = 8
 226              		@ frame_needed = 1, uses_anonymous_args = 0
 227 0000 80B5     		push	{r7, lr}
 228              		.cfi_def_cfa_offset 8
 229              		.cfi_offset 7, -8
 230              		.cfi_offset 14, -4
 231 0002 82B0     		sub	sp, sp, #8
 232              		.cfi_def_cfa_offset 16
 233 0004 00AF     		add	r7, sp, #0
 234              		.cfi_def_cfa_register 7
 235 0006 0346     		mov	r3, r0
 236 0008 FB71     		strb	r3, [r7, #7]
  85:coolant_control.c ****   if (sys.state == STATE_CHECK_MODE) { return; }
 237              		.loc 1 85 0
 238 000a 074B     		ldr	r3, .L20
 239 000c 1B78     		ldrb	r3, [r3]	@ zero_extendqisi2
 240 000e 022B     		cmp	r3, #2
 241 0010 06D0     		beq	.L19
  86:coolant_control.c ****   protocol_buffer_synchronize(); // Ensure coolant turns on when specified in program.
 242              		.loc 1 86 0
 243 0012 FFF7FEFF 		bl	protocol_buffer_synchronize
  87:coolant_control.c ****   coolant_set_state(mode);
 244              		.loc 1 87 0
 245 0016 FB79     		ldrb	r3, [r7, #7]	@ zero_extendqisi2
 246 0018 1846     		mov	r0, r3
 247 001a FFF7FEFF 		bl	coolant_set_state
 248 001e 00E0     		b	.L16
 249              	.L19:
  85:coolant_control.c ****   if (sys.state == STATE_CHECK_MODE) { return; }
 250              		.loc 1 85 0
 251 0020 00BF     		nop
 252              	.L16:
  88:coolant_control.c **** }
ARM GAS  C:\Users\barto\AppData\Local\Temp\ccFqwkYw.s 			page 7


 253              		.loc 1 88 0
 254 0022 0837     		adds	r7, r7, #8
 255              		.cfi_def_cfa_offset 8
 256 0024 BD46     		mov	sp, r7
 257              		.cfi_def_cfa_register 13
 258              		@ sp needed
 259 0026 80BD     		pop	{r7, pc}
 260              	.L21:
 261              		.align	2
 262              	.L20:
 263 0028 00000000 		.word	sys
 264              		.cfi_endproc
 265              	.LFE68:
 266              		.size	coolant_sync, .-coolant_sync
 267              		.text
 268              	.Letext0:
 269              		.file 2 "c:\\program files (x86)\\cypress\\psoc creator\\4.2\\psoc creator\\import\\gnu\\arm\\5.4.
 270              		.file 3 "c:\\program files (x86)\\cypress\\psoc creator\\4.2\\psoc creator\\import\\gnu\\arm\\5.4.
 271              		.file 4 "system.h"
 272              		.file 5 "Generated_Source\\PSoC5/core_cm3.h"