ARM GAS  C:\Users\barto\AppData\Local\Temp\ccB6Tk3A.s 			page 1


   1              		.syntax unified
   2              		.cpu cortex-m3
   3              		.fpu softvfp
   4              		.eabi_attribute 20, 1
   5              		.eabi_attribute 21, 1
   6              		.eabi_attribute 23, 3
   7              		.eabi_attribute 24, 1
   8              		.eabi_attribute 25, 1
   9              		.eabi_attribute 26, 1
  10              		.eabi_attribute 30, 6
  11              		.eabi_attribute 34, 1
  12              		.eabi_attribute 18, 4
  13              		.thumb
  14              		.syntax unified
  15              		.file	"cyfitter_cfg.c"
  16              		.text
  17              	.Ltext0:
  18              		.cfi_sections	.debug_frame
  19              		.section	.text.CYMEMZERO,"ax",%progbits
  20              		.align	2
  21              		.thumb
  22              		.thumb_func
  23              		.type	CYMEMZERO, %function
  24              	CYMEMZERO:
  25              	.LFB0:
  26              		.file 1 "Generated_Source\\PSoC5\\cyfitter_cfg.c"
   1:Generated_Source\PSoC5/cyfitter_cfg.c **** 
   2:Generated_Source\PSoC5/cyfitter_cfg.c **** /*******************************************************************************
   3:Generated_Source\PSoC5/cyfitter_cfg.c **** * File Name: cyfitter_cfg.c
   4:Generated_Source\PSoC5/cyfitter_cfg.c **** * 
   5:Generated_Source\PSoC5/cyfitter_cfg.c **** * PSoC Creator  4.2
   6:Generated_Source\PSoC5/cyfitter_cfg.c **** *
   7:Generated_Source\PSoC5/cyfitter_cfg.c **** * Description:
   8:Generated_Source\PSoC5/cyfitter_cfg.c **** * This file contains device initialization code.
   9:Generated_Source\PSoC5/cyfitter_cfg.c **** * Except for the user defined sections in CyClockStartupError(), this file should not be modified.
  10:Generated_Source\PSoC5/cyfitter_cfg.c **** * This file is automatically generated by PSoC Creator.
  11:Generated_Source\PSoC5/cyfitter_cfg.c **** *
  12:Generated_Source\PSoC5/cyfitter_cfg.c **** ********************************************************************************
  13:Generated_Source\PSoC5/cyfitter_cfg.c **** * Copyright (c) 2007-2018 Cypress Semiconductor.  All rights reserved.
  14:Generated_Source\PSoC5/cyfitter_cfg.c **** * You may use this file only in accordance with the license, terms, conditions, 
  15:Generated_Source\PSoC5/cyfitter_cfg.c **** * disclaimers, and limitations in the end user license agreement accompanying 
  16:Generated_Source\PSoC5/cyfitter_cfg.c **** * the software package with which this file was provided.
  17:Generated_Source\PSoC5/cyfitter_cfg.c **** ********************************************************************************/
  18:Generated_Source\PSoC5/cyfitter_cfg.c **** 
  19:Generated_Source\PSoC5/cyfitter_cfg.c **** #include <string.h>
  20:Generated_Source\PSoC5/cyfitter_cfg.c **** #include "cytypes.h"
  21:Generated_Source\PSoC5/cyfitter_cfg.c **** #include "cydevice_trm.h"
  22:Generated_Source\PSoC5/cyfitter_cfg.c **** #include "cyfitter.h"
  23:Generated_Source\PSoC5/cyfitter_cfg.c **** #include "CyLib.h"
  24:Generated_Source\PSoC5/cyfitter_cfg.c **** #include "cyfitter_cfg.h"
  25:Generated_Source\PSoC5/cyfitter_cfg.c **** #include "cyapicallbacks.h"
  26:Generated_Source\PSoC5/cyfitter_cfg.c **** 
  27:Generated_Source\PSoC5/cyfitter_cfg.c **** #define CY_NEED_CYCLOCKSTARTUPERROR 1
  28:Generated_Source\PSoC5/cyfitter_cfg.c **** 
  29:Generated_Source\PSoC5/cyfitter_cfg.c **** 
  30:Generated_Source\PSoC5/cyfitter_cfg.c **** #if defined(__GNUC__) || defined(__ARMCC_VERSION)
  31:Generated_Source\PSoC5/cyfitter_cfg.c ****     #define CYPACKED 
ARM GAS  C:\Users\barto\AppData\Local\Temp\ccB6Tk3A.s 			page 2


  32:Generated_Source\PSoC5/cyfitter_cfg.c ****     #define CYPACKED_ATTR __attribute__ ((packed))
  33:Generated_Source\PSoC5/cyfitter_cfg.c ****     #define CYALIGNED __attribute__ ((aligned))
  34:Generated_Source\PSoC5/cyfitter_cfg.c ****     #define CY_CFG_UNUSED __attribute__ ((unused))
  35:Generated_Source\PSoC5/cyfitter_cfg.c ****     #ifndef CY_CFG_SECTION
  36:Generated_Source\PSoC5/cyfitter_cfg.c ****         #define CY_CFG_SECTION __attribute__ ((section(".psocinit")))
  37:Generated_Source\PSoC5/cyfitter_cfg.c ****     #endif
  38:Generated_Source\PSoC5/cyfitter_cfg.c ****     
  39:Generated_Source\PSoC5/cyfitter_cfg.c ****     #if defined(__ARMCC_VERSION)
  40:Generated_Source\PSoC5/cyfitter_cfg.c ****         #define CY_CFG_MEMORY_BARRIER() __memory_changed()
  41:Generated_Source\PSoC5/cyfitter_cfg.c ****     #else
  42:Generated_Source\PSoC5/cyfitter_cfg.c ****         #define CY_CFG_MEMORY_BARRIER() __sync_synchronize()
  43:Generated_Source\PSoC5/cyfitter_cfg.c ****     #endif
  44:Generated_Source\PSoC5/cyfitter_cfg.c ****     
  45:Generated_Source\PSoC5/cyfitter_cfg.c **** #elif defined(__ICCARM__)
  46:Generated_Source\PSoC5/cyfitter_cfg.c ****     #include <intrinsics.h>
  47:Generated_Source\PSoC5/cyfitter_cfg.c **** 
  48:Generated_Source\PSoC5/cyfitter_cfg.c ****     #define CYPACKED __packed
  49:Generated_Source\PSoC5/cyfitter_cfg.c ****     #define CYPACKED_ATTR 
  50:Generated_Source\PSoC5/cyfitter_cfg.c ****     #define CYALIGNED _Pragma("data_alignment=4")
  51:Generated_Source\PSoC5/cyfitter_cfg.c ****     #define CY_CFG_UNUSED _Pragma("diag_suppress=Pe177")
  52:Generated_Source\PSoC5/cyfitter_cfg.c ****     #define CY_CFG_SECTION _Pragma("location=\".psocinit\"")
  53:Generated_Source\PSoC5/cyfitter_cfg.c ****     
  54:Generated_Source\PSoC5/cyfitter_cfg.c ****     #define CY_CFG_MEMORY_BARRIER() __DMB()
  55:Generated_Source\PSoC5/cyfitter_cfg.c ****     
  56:Generated_Source\PSoC5/cyfitter_cfg.c **** #else
  57:Generated_Source\PSoC5/cyfitter_cfg.c ****     #error Unsupported toolchain
  58:Generated_Source\PSoC5/cyfitter_cfg.c **** #endif
  59:Generated_Source\PSoC5/cyfitter_cfg.c **** 
  60:Generated_Source\PSoC5/cyfitter_cfg.c **** #ifndef CYCODE
  61:Generated_Source\PSoC5/cyfitter_cfg.c ****     #define CYCODE
  62:Generated_Source\PSoC5/cyfitter_cfg.c **** #endif
  63:Generated_Source\PSoC5/cyfitter_cfg.c **** #ifndef CYDATA
  64:Generated_Source\PSoC5/cyfitter_cfg.c ****     #define CYDATA
  65:Generated_Source\PSoC5/cyfitter_cfg.c **** #endif
  66:Generated_Source\PSoC5/cyfitter_cfg.c **** #ifndef CYFAR
  67:Generated_Source\PSoC5/cyfitter_cfg.c ****     #define CYFAR
  68:Generated_Source\PSoC5/cyfitter_cfg.c **** #endif
  69:Generated_Source\PSoC5/cyfitter_cfg.c **** #ifndef CYXDATA
  70:Generated_Source\PSoC5/cyfitter_cfg.c ****     #define CYXDATA
  71:Generated_Source\PSoC5/cyfitter_cfg.c **** #endif
  72:Generated_Source\PSoC5/cyfitter_cfg.c **** 
  73:Generated_Source\PSoC5/cyfitter_cfg.c **** 
  74:Generated_Source\PSoC5/cyfitter_cfg.c **** CY_CFG_UNUSED
  75:Generated_Source\PSoC5/cyfitter_cfg.c **** static void CYMEMZERO(void *s, size_t n);
  76:Generated_Source\PSoC5/cyfitter_cfg.c **** CY_CFG_UNUSED
  77:Generated_Source\PSoC5/cyfitter_cfg.c **** static void CYMEMZERO(void *s, size_t n)
  78:Generated_Source\PSoC5/cyfitter_cfg.c **** {
  27              		.loc 1 78 0
  28              		.cfi_startproc
  29              		@ args = 0, pretend = 0, frame = 8
  30              		@ frame_needed = 1, uses_anonymous_args = 0
  31 0000 80B5     		push	{r7, lr}
  32              		.cfi_def_cfa_offset 8
  33              		.cfi_offset 7, -8
  34              		.cfi_offset 14, -4
  35 0002 82B0     		sub	sp, sp, #8
  36              		.cfi_def_cfa_offset 16
ARM GAS  C:\Users\barto\AppData\Local\Temp\ccB6Tk3A.s 			page 3


  37 0004 00AF     		add	r7, sp, #0
  38              		.cfi_def_cfa_register 7
  39 0006 7860     		str	r0, [r7, #4]
  40 0008 3960     		str	r1, [r7]
  79:Generated_Source\PSoC5/cyfitter_cfg.c **** 	(void)memset(s, 0, n);
  41              		.loc 1 79 0
  42 000a 3A68     		ldr	r2, [r7]
  43 000c 0021     		movs	r1, #0
  44 000e 7868     		ldr	r0, [r7, #4]
  45 0010 FFF7FEFF 		bl	memset
  80:Generated_Source\PSoC5/cyfitter_cfg.c **** }
  46              		.loc 1 80 0
  47 0014 00BF     		nop
  48 0016 0837     		adds	r7, r7, #8
  49              		.cfi_def_cfa_offset 8
  50 0018 BD46     		mov	sp, r7
  51              		.cfi_def_cfa_register 13
  52              		@ sp needed
  53 001a 80BD     		pop	{r7, pc}
  54              		.cfi_endproc
  55              	.LFE0:
  56              		.size	CYMEMZERO, .-CYMEMZERO
  57              		.section	.text.CYCONFIGCPY,"ax",%progbits
  58              		.align	2
  59              		.thumb
  60              		.thumb_func
  61              		.type	CYCONFIGCPY, %function
  62              	CYCONFIGCPY:
  63              	.LFB1:
  81:Generated_Source\PSoC5/cyfitter_cfg.c **** CY_CFG_UNUSED
  82:Generated_Source\PSoC5/cyfitter_cfg.c **** static void CYCONFIGCPY(void *dest, const void *src, size_t n);
  83:Generated_Source\PSoC5/cyfitter_cfg.c **** CY_CFG_UNUSED
  84:Generated_Source\PSoC5/cyfitter_cfg.c **** static void CYCONFIGCPY(void *dest, const void *src, size_t n)
  85:Generated_Source\PSoC5/cyfitter_cfg.c **** {
  64              		.loc 1 85 0
  65              		.cfi_startproc
  66              		@ args = 0, pretend = 0, frame = 16
  67              		@ frame_needed = 1, uses_anonymous_args = 0
  68 0000 80B5     		push	{r7, lr}
  69              		.cfi_def_cfa_offset 8
  70              		.cfi_offset 7, -8
  71              		.cfi_offset 14, -4
  72 0002 84B0     		sub	sp, sp, #16
  73              		.cfi_def_cfa_offset 24
  74 0004 00AF     		add	r7, sp, #0
  75              		.cfi_def_cfa_register 7
  76 0006 F860     		str	r0, [r7, #12]
  77 0008 B960     		str	r1, [r7, #8]
  78 000a 7A60     		str	r2, [r7, #4]
  86:Generated_Source\PSoC5/cyfitter_cfg.c **** 	(void)memcpy(dest, src, n);
  79              		.loc 1 86 0
  80 000c 7A68     		ldr	r2, [r7, #4]
  81 000e B968     		ldr	r1, [r7, #8]
  82 0010 F868     		ldr	r0, [r7, #12]
  83 0012 FFF7FEFF 		bl	memcpy
  87:Generated_Source\PSoC5/cyfitter_cfg.c **** }
  84              		.loc 1 87 0
ARM GAS  C:\Users\barto\AppData\Local\Temp\ccB6Tk3A.s 			page 4


  85 0016 00BF     		nop
  86 0018 1037     		adds	r7, r7, #16
  87              		.cfi_def_cfa_offset 8
  88 001a BD46     		mov	sp, r7
  89              		.cfi_def_cfa_register 13
  90              		@ sp needed
  91 001c 80BD     		pop	{r7, pc}
  92              		.cfi_endproc
  93              	.LFE1:
  94              		.size	CYCONFIGCPY, .-CYCONFIGCPY
  95 001e 00BF     		.section	.text.CYCONFIGCPYCODE,"ax",%progbits
  96              		.align	2
  97              		.thumb
  98              		.thumb_func
  99              		.type	CYCONFIGCPYCODE, %function
 100              	CYCONFIGCPYCODE:
 101              	.LFB2:
  88:Generated_Source\PSoC5/cyfitter_cfg.c **** CY_CFG_UNUSED
  89:Generated_Source\PSoC5/cyfitter_cfg.c **** static void CYCONFIGCPYCODE(void *dest, const void *src, size_t n);
  90:Generated_Source\PSoC5/cyfitter_cfg.c **** CY_CFG_UNUSED
  91:Generated_Source\PSoC5/cyfitter_cfg.c **** static void CYCONFIGCPYCODE(void *dest, const void *src, size_t n)
  92:Generated_Source\PSoC5/cyfitter_cfg.c **** {
 102              		.loc 1 92 0
 103              		.cfi_startproc
 104              		@ args = 0, pretend = 0, frame = 16
 105              		@ frame_needed = 1, uses_anonymous_args = 0
 106 0000 80B5     		push	{r7, lr}
 107              		.cfi_def_cfa_offset 8
 108              		.cfi_offset 7, -8
 109              		.cfi_offset 14, -4
 110 0002 84B0     		sub	sp, sp, #16
 111              		.cfi_def_cfa_offset 24
 112 0004 00AF     		add	r7, sp, #0
 113              		.cfi_def_cfa_register 7
 114 0006 F860     		str	r0, [r7, #12]
 115 0008 B960     		str	r1, [r7, #8]
 116 000a 7A60     		str	r2, [r7, #4]
  93:Generated_Source\PSoC5/cyfitter_cfg.c **** 	(void)memcpy(dest, src, n);
 117              		.loc 1 93 0
 118 000c 7A68     		ldr	r2, [r7, #4]
 119 000e B968     		ldr	r1, [r7, #8]
 120 0010 F868     		ldr	r0, [r7, #12]
 121 0012 FFF7FEFF 		bl	memcpy
  94:Generated_Source\PSoC5/cyfitter_cfg.c **** }
 122              		.loc 1 94 0
 123 0016 00BF     		nop
 124 0018 1037     		adds	r7, r7, #16
 125              		.cfi_def_cfa_offset 8
 126 001a BD46     		mov	sp, r7
 127              		.cfi_def_cfa_register 13
 128              		@ sp needed
 129 001c 80BD     		pop	{r7, pc}
 130              		.cfi_endproc
 131              	.LFE2:
 132              		.size	CYCONFIGCPYCODE, .-CYCONFIGCPYCODE
 133 001e 00BF     		.section	.text.CyClockStartupError,"ax",%progbits
 134              		.align	2
ARM GAS  C:\Users\barto\AppData\Local\Temp\ccB6Tk3A.s 			page 5


 135              		.thumb
 136              		.thumb_func
 137              		.type	CyClockStartupError, %function
 138              	CyClockStartupError:
 139              	.LFB3:
  95:Generated_Source\PSoC5/cyfitter_cfg.c **** 
  96:Generated_Source\PSoC5/cyfitter_cfg.c **** 
  97:Generated_Source\PSoC5/cyfitter_cfg.c **** 
  98:Generated_Source\PSoC5/cyfitter_cfg.c **** 
  99:Generated_Source\PSoC5/cyfitter_cfg.c **** /* Clock startup error codes                                                   */
 100:Generated_Source\PSoC5/cyfitter_cfg.c **** #define CYCLOCKSTART_NO_ERROR    0u
 101:Generated_Source\PSoC5/cyfitter_cfg.c **** #define CYCLOCKSTART_XTAL_ERROR  1u
 102:Generated_Source\PSoC5/cyfitter_cfg.c **** #define CYCLOCKSTART_32KHZ_ERROR 2u
 103:Generated_Source\PSoC5/cyfitter_cfg.c **** #define CYCLOCKSTART_PLL_ERROR   3u
 104:Generated_Source\PSoC5/cyfitter_cfg.c **** #define CYCLOCKSTART_FLL_ERROR   4u
 105:Generated_Source\PSoC5/cyfitter_cfg.c **** #define CYCLOCKSTART_WCO_ERROR   5u
 106:Generated_Source\PSoC5/cyfitter_cfg.c **** 
 107:Generated_Source\PSoC5/cyfitter_cfg.c **** 
 108:Generated_Source\PSoC5/cyfitter_cfg.c **** #ifdef CY_NEED_CYCLOCKSTARTUPERROR
 109:Generated_Source\PSoC5/cyfitter_cfg.c **** /*******************************************************************************
 110:Generated_Source\PSoC5/cyfitter_cfg.c **** * Function Name: CyClockStartupError
 111:Generated_Source\PSoC5/cyfitter_cfg.c **** ********************************************************************************
 112:Generated_Source\PSoC5/cyfitter_cfg.c **** * Summary:
 113:Generated_Source\PSoC5/cyfitter_cfg.c **** *  If an error is encountered during clock configuration (crystal startup error,
 114:Generated_Source\PSoC5/cyfitter_cfg.c **** *  PLL lock error, etc.), the system will end up here.  Unless reimplemented by
 115:Generated_Source\PSoC5/cyfitter_cfg.c **** *  the customer, this function will stop in an infinite loop.
 116:Generated_Source\PSoC5/cyfitter_cfg.c **** *
 117:Generated_Source\PSoC5/cyfitter_cfg.c **** * Parameters:
 118:Generated_Source\PSoC5/cyfitter_cfg.c **** *   void
 119:Generated_Source\PSoC5/cyfitter_cfg.c **** *
 120:Generated_Source\PSoC5/cyfitter_cfg.c **** * Return:
 121:Generated_Source\PSoC5/cyfitter_cfg.c **** *   void
 122:Generated_Source\PSoC5/cyfitter_cfg.c **** *
 123:Generated_Source\PSoC5/cyfitter_cfg.c **** *******************************************************************************/
 124:Generated_Source\PSoC5/cyfitter_cfg.c **** CY_CFG_UNUSED
 125:Generated_Source\PSoC5/cyfitter_cfg.c **** static void CyClockStartupError(uint8 errorCode);
 126:Generated_Source\PSoC5/cyfitter_cfg.c **** CY_CFG_UNUSED
 127:Generated_Source\PSoC5/cyfitter_cfg.c **** static void CyClockStartupError(uint8 errorCode)
 128:Generated_Source\PSoC5/cyfitter_cfg.c **** {
 140              		.loc 1 128 0
 141              		.cfi_startproc
 142              		@ args = 0, pretend = 0, frame = 8
 143              		@ frame_needed = 1, uses_anonymous_args = 0
 144              		@ link register save eliminated.
 145 0000 80B4     		push	{r7}
 146              		.cfi_def_cfa_offset 4
 147              		.cfi_offset 7, -4
 148 0002 83B0     		sub	sp, sp, #12
 149              		.cfi_def_cfa_offset 16
 150 0004 00AF     		add	r7, sp, #0
 151              		.cfi_def_cfa_register 7
 152 0006 0346     		mov	r3, r0
 153 0008 FB71     		strb	r3, [r7, #7]
 154              	.L5:
 129:Generated_Source\PSoC5/cyfitter_cfg.c ****     /* To remove the compiler warning if errorCode not used.                */
 130:Generated_Source\PSoC5/cyfitter_cfg.c ****     errorCode = errorCode;
 131:Generated_Source\PSoC5/cyfitter_cfg.c **** 
ARM GAS  C:\Users\barto\AppData\Local\Temp\ccB6Tk3A.s 			page 6


 132:Generated_Source\PSoC5/cyfitter_cfg.c ****     /* If we have a clock startup error (bad MHz crystal, PLL lock, etc.),  */
 133:Generated_Source\PSoC5/cyfitter_cfg.c ****     /* we will end up here to allow the customer to implement something to  */
 134:Generated_Source\PSoC5/cyfitter_cfg.c ****     /* deal with the clock condition.                                       */
 135:Generated_Source\PSoC5/cyfitter_cfg.c **** 
 136:Generated_Source\PSoC5/cyfitter_cfg.c **** #ifdef CY_CFG_CLOCK_STARTUP_ERROR_CALLBACK
 137:Generated_Source\PSoC5/cyfitter_cfg.c ****     CY_CFG_Clock_Startup_ErrorCallback();
 138:Generated_Source\PSoC5/cyfitter_cfg.c **** #else
 139:Generated_Source\PSoC5/cyfitter_cfg.c ****     /*  If not using CY_CFG_CLOCK_STARTUP_ERROR_CALLBACK, place your clock startup code here. */
 140:Generated_Source\PSoC5/cyfitter_cfg.c ****     /* `#START CyClockStartupError` */
 141:Generated_Source\PSoC5/cyfitter_cfg.c **** 
 142:Generated_Source\PSoC5/cyfitter_cfg.c **** 
 143:Generated_Source\PSoC5/cyfitter_cfg.c **** 
 144:Generated_Source\PSoC5/cyfitter_cfg.c ****     /* `#END` */
 145:Generated_Source\PSoC5/cyfitter_cfg.c **** 
 146:Generated_Source\PSoC5/cyfitter_cfg.c ****     while(1) {}
 155              		.loc 1 146 0 discriminator 1
 156 000a FEE7     		b	.L5
 157              		.cfi_endproc
 158              	.LFE3:
 159              		.size	CyClockStartupError, .-CyClockStartupError
 160              		.section	.text.cfg_write_bytes32,"ax",%progbits
 161              		.align	2
 162              		.thumb
 163              		.thumb_func
 164              		.type	cfg_write_bytes32, %function
 165              	cfg_write_bytes32:
 166              	.LFB4:
 147:Generated_Source\PSoC5/cyfitter_cfg.c **** #endif /* CY_CFG_CLOCK_STARTUP_ERROR_CALLBACK */
 148:Generated_Source\PSoC5/cyfitter_cfg.c **** }
 149:Generated_Source\PSoC5/cyfitter_cfg.c **** #endif
 150:Generated_Source\PSoC5/cyfitter_cfg.c **** 
 151:Generated_Source\PSoC5/cyfitter_cfg.c **** #define CY_CFG_BASE_ADDR_COUNT 29u
 152:Generated_Source\PSoC5/cyfitter_cfg.c **** CYPACKED typedef struct
 153:Generated_Source\PSoC5/cyfitter_cfg.c **** {
 154:Generated_Source\PSoC5/cyfitter_cfg.c **** 	uint8 offset;
 155:Generated_Source\PSoC5/cyfitter_cfg.c **** 	uint8 value;
 156:Generated_Source\PSoC5/cyfitter_cfg.c **** } CYPACKED_ATTR cy_cfg_addrvalue_t;
 157:Generated_Source\PSoC5/cyfitter_cfg.c **** 
 158:Generated_Source\PSoC5/cyfitter_cfg.c **** 
 159:Generated_Source\PSoC5/cyfitter_cfg.c **** 
 160:Generated_Source\PSoC5/cyfitter_cfg.c **** /*******************************************************************************
 161:Generated_Source\PSoC5/cyfitter_cfg.c **** * Function Name: cfg_write_bytes32
 162:Generated_Source\PSoC5/cyfitter_cfg.c **** ********************************************************************************
 163:Generated_Source\PSoC5/cyfitter_cfg.c **** * Summary:
 164:Generated_Source\PSoC5/cyfitter_cfg.c **** *  This function is used for setting up the chip configuration areas that
 165:Generated_Source\PSoC5/cyfitter_cfg.c **** *  contain relatively sparse data.
 166:Generated_Source\PSoC5/cyfitter_cfg.c **** *
 167:Generated_Source\PSoC5/cyfitter_cfg.c **** * Parameters:
 168:Generated_Source\PSoC5/cyfitter_cfg.c **** *   void
 169:Generated_Source\PSoC5/cyfitter_cfg.c **** *
 170:Generated_Source\PSoC5/cyfitter_cfg.c **** * Return:
 171:Generated_Source\PSoC5/cyfitter_cfg.c **** *   void
 172:Generated_Source\PSoC5/cyfitter_cfg.c **** *
 173:Generated_Source\PSoC5/cyfitter_cfg.c **** *******************************************************************************/
 174:Generated_Source\PSoC5/cyfitter_cfg.c **** static void cfg_write_bytes32(const uint32 addr_table[], const cy_cfg_addrvalue_t data_table[]);
 175:Generated_Source\PSoC5/cyfitter_cfg.c **** static void cfg_write_bytes32(const uint32 addr_table[], const cy_cfg_addrvalue_t data_table[])
 176:Generated_Source\PSoC5/cyfitter_cfg.c **** {
ARM GAS  C:\Users\barto\AppData\Local\Temp\ccB6Tk3A.s 			page 7


 167              		.loc 1 176 0
 168              		.cfi_startproc
 169              		@ args = 0, pretend = 0, frame = 24
 170              		@ frame_needed = 1, uses_anonymous_args = 0
 171              		@ link register save eliminated.
 172 0000 80B4     		push	{r7}
 173              		.cfi_def_cfa_offset 4
 174              		.cfi_offset 7, -4
 175 0002 87B0     		sub	sp, sp, #28
 176              		.cfi_def_cfa_offset 32
 177 0004 00AF     		add	r7, sp, #0
 178              		.cfi_def_cfa_register 7
 179 0006 7860     		str	r0, [r7, #4]
 180 0008 3960     		str	r1, [r7]
 177:Generated_Source\PSoC5/cyfitter_cfg.c **** 	/* For 32-bit little-endian architectures */
 178:Generated_Source\PSoC5/cyfitter_cfg.c **** 	uint32 i, j = 0u;
 181              		.loc 1 178 0
 182 000a 0023     		movs	r3, #0
 183 000c 3B61     		str	r3, [r7, #16]
 179:Generated_Source\PSoC5/cyfitter_cfg.c **** 	for (i = 0u; i < CY_CFG_BASE_ADDR_COUNT; i++)
 184              		.loc 1 179 0
 185 000e 0023     		movs	r3, #0
 186 0010 7B61     		str	r3, [r7, #20]
 187 0012 27E0     		b	.L7
 188              	.L10:
 189              	.LBB2:
 180:Generated_Source\PSoC5/cyfitter_cfg.c **** 	{
 181:Generated_Source\PSoC5/cyfitter_cfg.c **** 		uint32 baseAddr = addr_table[i];
 190              		.loc 1 181 0
 191 0014 7B69     		ldr	r3, [r7, #20]
 192 0016 9B00     		lsls	r3, r3, #2
 193 0018 7A68     		ldr	r2, [r7, #4]
 194 001a 1344     		add	r3, r3, r2
 195 001c 1B68     		ldr	r3, [r3]
 196 001e BB60     		str	r3, [r7, #8]
 182:Generated_Source\PSoC5/cyfitter_cfg.c **** 		uint8 count = (uint8)baseAddr;
 197              		.loc 1 182 0
 198 0020 BB68     		ldr	r3, [r7, #8]
 199 0022 FB73     		strb	r3, [r7, #15]
 183:Generated_Source\PSoC5/cyfitter_cfg.c **** 		baseAddr &= 0xFFFFFF00u;
 200              		.loc 1 183 0
 201 0024 BB68     		ldr	r3, [r7, #8]
 202 0026 23F0FF03 		bic	r3, r3, #255
 203 002a BB60     		str	r3, [r7, #8]
 184:Generated_Source\PSoC5/cyfitter_cfg.c **** 		while (count != 0u)
 204              		.loc 1 184 0
 205 002c 14E0     		b	.L8
 206              	.L9:
 185:Generated_Source\PSoC5/cyfitter_cfg.c **** 		{
 186:Generated_Source\PSoC5/cyfitter_cfg.c **** 			CY_SET_REG8((void *)(baseAddr + data_table[j].offset), data_table[j].value);
 207              		.loc 1 186 0
 208 002e 3B69     		ldr	r3, [r7, #16]
 209 0030 5B00     		lsls	r3, r3, #1
 210 0032 3A68     		ldr	r2, [r7]
 211 0034 1344     		add	r3, r3, r2
 212 0036 1B78     		ldrb	r3, [r3]	@ zero_extendqisi2
 213 0038 1A46     		mov	r2, r3
ARM GAS  C:\Users\barto\AppData\Local\Temp\ccB6Tk3A.s 			page 8


 214 003a BB68     		ldr	r3, [r7, #8]
 215 003c 1344     		add	r3, r3, r2
 216 003e 1946     		mov	r1, r3
 217 0040 3B69     		ldr	r3, [r7, #16]
 218 0042 5B00     		lsls	r3, r3, #1
 219 0044 3A68     		ldr	r2, [r7]
 220 0046 1344     		add	r3, r3, r2
 221 0048 5B78     		ldrb	r3, [r3, #1]	@ zero_extendqisi2
 222 004a 0B70     		strb	r3, [r1]
 187:Generated_Source\PSoC5/cyfitter_cfg.c **** 			j++;
 223              		.loc 1 187 0
 224 004c 3B69     		ldr	r3, [r7, #16]
 225 004e 0133     		adds	r3, r3, #1
 226 0050 3B61     		str	r3, [r7, #16]
 188:Generated_Source\PSoC5/cyfitter_cfg.c **** 			count--;
 227              		.loc 1 188 0
 228 0052 FB7B     		ldrb	r3, [r7, #15]	@ zero_extendqisi2
 229 0054 013B     		subs	r3, r3, #1
 230 0056 FB73     		strb	r3, [r7, #15]
 231              	.L8:
 184:Generated_Source\PSoC5/cyfitter_cfg.c **** 		{
 232              		.loc 1 184 0
 233 0058 FB7B     		ldrb	r3, [r7, #15]	@ zero_extendqisi2
 234 005a 002B     		cmp	r3, #0
 235 005c E7D1     		bne	.L9
 236              	.LBE2:
 179:Generated_Source\PSoC5/cyfitter_cfg.c **** 	{
 237              		.loc 1 179 0 discriminator 2
 238 005e 7B69     		ldr	r3, [r7, #20]
 239 0060 0133     		adds	r3, r3, #1
 240 0062 7B61     		str	r3, [r7, #20]
 241              	.L7:
 179:Generated_Source\PSoC5/cyfitter_cfg.c **** 	{
 242              		.loc 1 179 0 is_stmt 0 discriminator 1
 243 0064 7B69     		ldr	r3, [r7, #20]
 244 0066 1C2B     		cmp	r3, #28
 245 0068 D4D9     		bls	.L10
 189:Generated_Source\PSoC5/cyfitter_cfg.c **** 		}
 190:Generated_Source\PSoC5/cyfitter_cfg.c **** 	}
 191:Generated_Source\PSoC5/cyfitter_cfg.c **** }
 246              		.loc 1 191 0 is_stmt 1
 247 006a 00BF     		nop
 248 006c 1C37     		adds	r7, r7, #28
 249              		.cfi_def_cfa_offset 4
 250 006e BD46     		mov	sp, r7
 251              		.cfi_def_cfa_register 13
 252              		@ sp needed
 253 0070 80BC     		pop	{r7}
 254              		.cfi_restore 7
 255              		.cfi_def_cfa_offset 0
 256 0072 7047     		bx	lr
 257              		.cfi_endproc
 258              	.LFE4:
 259              		.size	cfg_write_bytes32, .-cfg_write_bytes32
 260              		.section	.text.ClockSetup,"ax",%progbits
 261              		.align	2
 262              		.thumb
ARM GAS  C:\Users\barto\AppData\Local\Temp\ccB6Tk3A.s 			page 9


 263              		.thumb_func
 264              		.type	ClockSetup, %function
 265              	ClockSetup:
 266              	.LFB5:
 192:Generated_Source\PSoC5/cyfitter_cfg.c **** 
 193:Generated_Source\PSoC5/cyfitter_cfg.c **** /*******************************************************************************
 194:Generated_Source\PSoC5/cyfitter_cfg.c **** * Function Name: ClockSetup
 195:Generated_Source\PSoC5/cyfitter_cfg.c **** ********************************************************************************
 196:Generated_Source\PSoC5/cyfitter_cfg.c **** *
 197:Generated_Source\PSoC5/cyfitter_cfg.c **** * Summary:
 198:Generated_Source\PSoC5/cyfitter_cfg.c **** *  Performs the initialization of all of the clocks in the device based on the
 199:Generated_Source\PSoC5/cyfitter_cfg.c **** *  settings in the Clock tab of the DWR.  This includes enabling the requested
 200:Generated_Source\PSoC5/cyfitter_cfg.c **** *  clocks and setting the necessary dividers to produce the desired frequency. 
 201:Generated_Source\PSoC5/cyfitter_cfg.c **** *
 202:Generated_Source\PSoC5/cyfitter_cfg.c **** * Parameters:
 203:Generated_Source\PSoC5/cyfitter_cfg.c **** *  void
 204:Generated_Source\PSoC5/cyfitter_cfg.c **** *
 205:Generated_Source\PSoC5/cyfitter_cfg.c **** * Return:
 206:Generated_Source\PSoC5/cyfitter_cfg.c **** *  void
 207:Generated_Source\PSoC5/cyfitter_cfg.c **** *
 208:Generated_Source\PSoC5/cyfitter_cfg.c **** *******************************************************************************/
 209:Generated_Source\PSoC5/cyfitter_cfg.c **** static void ClockSetup(void);
 210:Generated_Source\PSoC5/cyfitter_cfg.c **** static void ClockSetup(void)
 211:Generated_Source\PSoC5/cyfitter_cfg.c **** {
 267              		.loc 1 211 0
 268              		.cfi_startproc
 269              		@ args = 0, pretend = 0, frame = 8
 270              		@ frame_needed = 1, uses_anonymous_args = 0
 271 0000 80B5     		push	{r7, lr}
 272              		.cfi_def_cfa_offset 8
 273              		.cfi_offset 7, -8
 274              		.cfi_offset 14, -4
 275 0002 82B0     		sub	sp, sp, #8
 276              		.cfi_def_cfa_offset 16
 277 0004 00AF     		add	r7, sp, #0
 278              		.cfi_def_cfa_register 7
 212:Generated_Source\PSoC5/cyfitter_cfg.c **** 	/* CYDEV_CLKDIST_ACFG0_CFG0 Address: CYREG_CLKDIST_ACFG0_CFG0 Size (bytes): 4 */
 213:Generated_Source\PSoC5/cyfitter_cfg.c **** 	static const uint8 CYCODE BS_CYDEV_CLKDIST_ACFG0_CFG0_VAL[] = {
 214:Generated_Source\PSoC5/cyfitter_cfg.c **** 		0x05u, 0x00u, 0x14u, 0x01u};
 215:Generated_Source\PSoC5/cyfitter_cfg.c **** 
 216:Generated_Source\PSoC5/cyfitter_cfg.c **** 	uint32 timeout;
 217:Generated_Source\PSoC5/cyfitter_cfg.c **** 	uint8 pllLock;
 218:Generated_Source\PSoC5/cyfitter_cfg.c **** 
 219:Generated_Source\PSoC5/cyfitter_cfg.c **** 
 220:Generated_Source\PSoC5/cyfitter_cfg.c **** 	/* Configure Digital Clocks based on settings from Clock DWR */
 221:Generated_Source\PSoC5/cyfitter_cfg.c **** 	CY_SET_XTND_REG16((void CYFAR *)(CYREG_CLKDIST_DCFG0_CFG0), 0x003Fu);
 279              		.loc 1 221 0
 280 0006 394B     		ldr	r3, .L16
 281 0008 3F22     		movs	r2, #63
 282 000a 1A80     		strh	r2, [r3]	@ movhi
 222:Generated_Source\PSoC5/cyfitter_cfg.c **** 	CY_SET_XTND_REG8((void CYFAR *)(CYREG_CLKDIST_DCFG0_CFG0 + 0x2u), 0x18u);
 283              		.loc 1 222 0
 284 000c 384B     		ldr	r3, .L16+4
 285 000e 1822     		movs	r2, #24
 286 0010 1A70     		strb	r2, [r3]
 223:Generated_Source\PSoC5/cyfitter_cfg.c **** 	CY_SET_XTND_REG16((void CYFAR *)(CYREG_CLKDIST_DCFG1_CFG0), 0x00FFu);
 287              		.loc 1 223 0
ARM GAS  C:\Users\barto\AppData\Local\Temp\ccB6Tk3A.s 			page 10


 288 0012 384B     		ldr	r3, .L16+8
 289 0014 FF22     		movs	r2, #255
 290 0016 1A80     		strh	r2, [r3]	@ movhi
 224:Generated_Source\PSoC5/cyfitter_cfg.c **** 	CY_SET_XTND_REG8((void CYFAR *)(CYREG_CLKDIST_DCFG1_CFG0 + 0x2u), 0x18u);
 291              		.loc 1 224 0
 292 0018 374B     		ldr	r3, .L16+12
 293 001a 1822     		movs	r2, #24
 294 001c 1A70     		strb	r2, [r3]
 225:Generated_Source\PSoC5/cyfitter_cfg.c **** 	CY_SET_XTND_REG16((void CYFAR *)(CYREG_CLKDIST_DCFG2_CFG0), 0xFFFFu);
 295              		.loc 1 225 0
 296 001e 374B     		ldr	r3, .L16+16
 297 0020 4FF6FF72 		movw	r2, #65535
 298 0024 1A80     		strh	r2, [r3]	@ movhi
 226:Generated_Source\PSoC5/cyfitter_cfg.c **** 	CY_SET_XTND_REG8((void CYFAR *)(CYREG_CLKDIST_DCFG2_CFG0 + 0x2u), 0x19u);
 299              		.loc 1 226 0
 300 0026 364B     		ldr	r3, .L16+20
 301 0028 1922     		movs	r2, #25
 302 002a 1A70     		strb	r2, [r3]
 227:Generated_Source\PSoC5/cyfitter_cfg.c **** 
 228:Generated_Source\PSoC5/cyfitter_cfg.c **** 	/* Configure Analog Clocks based on settings from Clock DWR */
 229:Generated_Source\PSoC5/cyfitter_cfg.c **** 	CYCONFIGCPYCODE((void CYFAR *)(CYREG_CLKDIST_ACFG0_CFG0), (const void CYCODE *)(BS_CYDEV_CLKDIST_A
 303              		.loc 1 229 0
 304 002c 0422     		movs	r2, #4
 305 002e 3549     		ldr	r1, .L16+24
 306 0030 3548     		ldr	r0, .L16+28
 307 0032 FFF7FEFF 		bl	CYCONFIGCPYCODE
 230:Generated_Source\PSoC5/cyfitter_cfg.c **** 
 231:Generated_Source\PSoC5/cyfitter_cfg.c **** 	/* Configure ILO based on settings from Clock DWR */
 232:Generated_Source\PSoC5/cyfitter_cfg.c **** 	CY_SET_XTND_REG8((void CYFAR *)(CYREG_SLOWCLK_ILO_CR0), 0x06u);
 308              		.loc 1 232 0
 309 0036 354B     		ldr	r3, .L16+32
 310 0038 0622     		movs	r2, #6
 311 003a 1A70     		strb	r2, [r3]
 233:Generated_Source\PSoC5/cyfitter_cfg.c **** 
 234:Generated_Source\PSoC5/cyfitter_cfg.c **** 	/* Configure IMO based on settings from Clock DWR */
 235:Generated_Source\PSoC5/cyfitter_cfg.c **** 	CY_SET_XTND_REG8((void CYFAR *)(CYREG_FASTCLK_IMO_CR), 0x52u);
 312              		.loc 1 235 0
 313 003c 344B     		ldr	r3, .L16+36
 314 003e 5222     		movs	r2, #82
 315 0040 1A70     		strb	r2, [r3]
 236:Generated_Source\PSoC5/cyfitter_cfg.c **** 	CY_SET_XTND_REG8((void CYFAR *)(CYREG_IMO_TR1), (CY_GET_XTND_REG8((void CYFAR *)CYREG_FLSHID_CUST_
 316              		.loc 1 236 0
 317 0042 344B     		ldr	r3, .L16+40
 318 0044 344A     		ldr	r2, .L16+44
 319 0046 1278     		ldrb	r2, [r2]
 320 0048 D2B2     		uxtb	r2, r2
 321 004a 1A70     		strb	r2, [r3]
 237:Generated_Source\PSoC5/cyfitter_cfg.c **** 
 238:Generated_Source\PSoC5/cyfitter_cfg.c **** 	/* Configure PLL based on settings from Clock DWR */
 239:Generated_Source\PSoC5/cyfitter_cfg.c **** 	CY_SET_XTND_REG16((void CYFAR *)(CYREG_FASTCLK_PLL_P), 0x0818u);
 322              		.loc 1 239 0
 323 004c 334B     		ldr	r3, .L16+48
 324 004e 40F61802 		movw	r2, #2072
 325 0052 1A80     		strh	r2, [r3]	@ movhi
 240:Generated_Source\PSoC5/cyfitter_cfg.c **** 	CY_SET_XTND_REG16((void CYFAR *)(CYREG_FASTCLK_PLL_CFG0), 0x1251u);
 326              		.loc 1 240 0
 327 0054 324B     		ldr	r3, .L16+52
ARM GAS  C:\Users\barto\AppData\Local\Temp\ccB6Tk3A.s 			page 11


 328 0056 41F25122 		movw	r2, #4689
 329 005a 1A80     		strh	r2, [r3]	@ movhi
 241:Generated_Source\PSoC5/cyfitter_cfg.c **** 	/* Wait up to 250us for the PLL to lock */
 242:Generated_Source\PSoC5/cyfitter_cfg.c **** 	pllLock = 0u;
 330              		.loc 1 242 0
 331 005c 0023     		movs	r3, #0
 332 005e FB70     		strb	r3, [r7, #3]
 243:Generated_Source\PSoC5/cyfitter_cfg.c **** 	for (timeout = 250u / 10u; (timeout > 0u) && (pllLock != 0x03u); timeout--)
 333              		.loc 1 243 0
 334 0060 1923     		movs	r3, #25
 335 0062 7B60     		str	r3, [r7, #4]
 336 0064 14E0     		b	.L12
 337              	.L14:
 244:Generated_Source\PSoC5/cyfitter_cfg.c **** 	{ 
 245:Generated_Source\PSoC5/cyfitter_cfg.c **** 		pllLock = 0x03u & ((uint8)((uint8)pllLock << 1) | ((CY_GET_XTND_REG8((void CYFAR *)CYREG_FASTCLK_
 338              		.loc 1 245 0 discriminator 4
 339 0066 FB78     		ldrb	r3, [r7, #3]
 340 0068 5B00     		lsls	r3, r3, #1
 341 006a DAB2     		uxtb	r2, r3
 342 006c 2D4B     		ldr	r3, .L16+56
 343 006e 1B78     		ldrb	r3, [r3]
 344 0070 DBB2     		uxtb	r3, r3
 345 0072 03F00103 		and	r3, r3, #1
 346 0076 DBB2     		uxtb	r3, r3
 347 0078 1343     		orrs	r3, r3, r2
 348 007a DBB2     		uxtb	r3, r3
 349 007c 03F00303 		and	r3, r3, #3
 350 0080 FB70     		strb	r3, [r7, #3]
 246:Generated_Source\PSoC5/cyfitter_cfg.c **** 		CyDelayCycles(10u * 48u); /* Delay 10us based on 48MHz clock */
 351              		.loc 1 246 0 discriminator 4
 352 0082 4FF4F070 		mov	r0, #480
 353 0086 FFF7FEFF 		bl	CyDelayCycles
 243:Generated_Source\PSoC5/cyfitter_cfg.c **** 	for (timeout = 250u / 10u; (timeout > 0u) && (pllLock != 0x03u); timeout--)
 354              		.loc 1 243 0 discriminator 4
 355 008a 7B68     		ldr	r3, [r7, #4]
 356 008c 013B     		subs	r3, r3, #1
 357 008e 7B60     		str	r3, [r7, #4]
 358              	.L12:
 243:Generated_Source\PSoC5/cyfitter_cfg.c **** 	for (timeout = 250u / 10u; (timeout > 0u) && (pllLock != 0x03u); timeout--)
 359              		.loc 1 243 0 is_stmt 0 discriminator 1
 360 0090 7B68     		ldr	r3, [r7, #4]
 361 0092 002B     		cmp	r3, #0
 362 0094 02D0     		beq	.L13
 243:Generated_Source\PSoC5/cyfitter_cfg.c **** 	for (timeout = 250u / 10u; (timeout > 0u) && (pllLock != 0x03u); timeout--)
 363              		.loc 1 243 0 discriminator 3
 364 0096 FB78     		ldrb	r3, [r7, #3]	@ zero_extendqisi2
 365 0098 032B     		cmp	r3, #3
 366 009a E4D1     		bne	.L14
 367              	.L13:
 247:Generated_Source\PSoC5/cyfitter_cfg.c **** 	}
 248:Generated_Source\PSoC5/cyfitter_cfg.c **** 	/* If we ran out of time the PLL didn't lock so go to the error function */
 249:Generated_Source\PSoC5/cyfitter_cfg.c **** 	if (timeout == 0u)
 368              		.loc 1 249 0 is_stmt 1
 369 009c 7B68     		ldr	r3, [r7, #4]
 370 009e 002B     		cmp	r3, #0
 371 00a0 02D1     		bne	.L15
 250:Generated_Source\PSoC5/cyfitter_cfg.c **** 	{
ARM GAS  C:\Users\barto\AppData\Local\Temp\ccB6Tk3A.s 			page 12


 251:Generated_Source\PSoC5/cyfitter_cfg.c **** 		CyClockStartupError(CYCLOCKSTART_PLL_ERROR);
 372              		.loc 1 251 0
 373 00a2 0320     		movs	r0, #3
 374 00a4 FFF7FEFF 		bl	CyClockStartupError
 375              	.L15:
 252:Generated_Source\PSoC5/cyfitter_cfg.c **** 	}
 253:Generated_Source\PSoC5/cyfitter_cfg.c **** 
 254:Generated_Source\PSoC5/cyfitter_cfg.c **** 	/* Configure Bus/Master Clock based on settings from Clock DWR */
 255:Generated_Source\PSoC5/cyfitter_cfg.c **** 	CY_SET_XTND_REG16((void CYFAR *)(CYREG_CLKDIST_MSTR0), 0x0100u);
 376              		.loc 1 255 0
 377 00a8 1F4B     		ldr	r3, .L16+60
 378 00aa 4FF48072 		mov	r2, #256
 379 00ae 1A80     		strh	r2, [r3]	@ movhi
 256:Generated_Source\PSoC5/cyfitter_cfg.c **** 	CY_SET_XTND_REG8((void CYFAR *)(CYREG_CLKDIST_MSTR0), 0x07u);
 380              		.loc 1 256 0
 381 00b0 1D4B     		ldr	r3, .L16+60
 382 00b2 0722     		movs	r2, #7
 383 00b4 1A70     		strb	r2, [r3]
 257:Generated_Source\PSoC5/cyfitter_cfg.c **** 	CY_SET_XTND_REG8((void CYFAR *)(CYREG_CLKDIST_BCFG0), 0x00u);
 384              		.loc 1 257 0
 385 00b6 1D4B     		ldr	r3, .L16+64
 386 00b8 0022     		movs	r2, #0
 387 00ba 1A70     		strb	r2, [r3]
 258:Generated_Source\PSoC5/cyfitter_cfg.c **** 	CY_SET_XTND_REG8((void CYFAR *)(CYREG_CLKDIST_BCFG2), 0x48u);
 388              		.loc 1 258 0
 389 00bc 1C4B     		ldr	r3, .L16+68
 390 00be 4822     		movs	r2, #72
 391 00c0 1A70     		strb	r2, [r3]
 259:Generated_Source\PSoC5/cyfitter_cfg.c **** 	CY_SET_XTND_REG8((void CYFAR *)(CYREG_CLKDIST_MSTR0), 0x00u);
 392              		.loc 1 259 0
 393 00c2 194B     		ldr	r3, .L16+60
 394 00c4 0022     		movs	r2, #0
 395 00c6 1A70     		strb	r2, [r3]
 260:Generated_Source\PSoC5/cyfitter_cfg.c **** 
 261:Generated_Source\PSoC5/cyfitter_cfg.c **** 	/* Configure USB Clock based on settings from Clock DWR */
 262:Generated_Source\PSoC5/cyfitter_cfg.c **** 	CY_SET_XTND_REG8((void CYFAR *)(CYREG_CLKDIST_UCFG), 0x00u);
 396              		.loc 1 262 0
 397 00c8 1A4B     		ldr	r3, .L16+72
 398 00ca 0022     		movs	r2, #0
 399 00cc 1A70     		strb	r2, [r3]
 263:Generated_Source\PSoC5/cyfitter_cfg.c **** 	CY_SET_XTND_REG8((void CYFAR *)(CYREG_CLKDIST_LD), 0x02u);
 400              		.loc 1 263 0
 401 00ce 1A4B     		ldr	r3, .L16+76
 402 00d0 0222     		movs	r2, #2
 403 00d2 1A70     		strb	r2, [r3]
 264:Generated_Source\PSoC5/cyfitter_cfg.c **** 
 265:Generated_Source\PSoC5/cyfitter_cfg.c **** 	CY_SET_XTND_REG8((void CYFAR *)(CYREG_PM_ACT_CFG2), ((CY_GET_XTND_REG8((void CYFAR *)CYREG_PM_ACT_
 404              		.loc 1 265 0
 405 00d4 194A     		ldr	r2, .L16+80
 406 00d6 194B     		ldr	r3, .L16+80
 407 00d8 1B78     		ldrb	r3, [r3]
 408 00da DBB2     		uxtb	r3, r3
 409 00dc 43F00703 		orr	r3, r3, #7
 410 00e0 DBB2     		uxtb	r3, r3
 411 00e2 1370     		strb	r3, [r2]
 266:Generated_Source\PSoC5/cyfitter_cfg.c **** }
 412              		.loc 1 266 0
ARM GAS  C:\Users\barto\AppData\Local\Temp\ccB6Tk3A.s 			page 13


 413 00e4 00BF     		nop
 414 00e6 0837     		adds	r7, r7, #8
 415              		.cfi_def_cfa_offset 8
 416 00e8 BD46     		mov	sp, r7
 417              		.cfi_def_cfa_register 13
 418              		@ sp needed
 419 00ea 80BD     		pop	{r7, pc}
 420              	.L17:
 421              		.align	2
 422              	.L16:
 423 00ec 80400040 		.word	1073758336
 424 00f0 82400040 		.word	1073758338
 425 00f4 84400040 		.word	1073758340
 426 00f8 86400040 		.word	1073758342
 427 00fc 88400040 		.word	1073758344
 428 0100 8A400040 		.word	1073758346
 429 0104 00000000 		.word	BS_CYDEV_CLKDIST_ACFG0_CFG0_VAL.5021
 430 0108 00410040 		.word	1073758464
 431 010c 00430040 		.word	1073758976
 432 0110 00420040 		.word	1073758720
 433 0114 A1460040 		.word	1073759905
 434 0118 0F010049 		.word	1224737039
 435 011c 22420040 		.word	1073758754
 436 0120 20420040 		.word	1073758752
 437 0124 25420040 		.word	1073758757
 438 0128 04400040 		.word	1073758212
 439 012c 06400040 		.word	1073758214
 440 0130 08400040 		.word	1073758216
 441 0134 09400040 		.word	1073758217
 442 0138 01400040 		.word	1073758209
 443 013c A2430040 		.word	1073759138
 444              		.cfi_endproc
 445              	.LFE5:
 446              		.size	ClockSetup, .-ClockSetup
 447              		.section	.text.AnalogSetDefault,"ax",%progbits
 448              		.align	2
 449              		.thumb
 450              		.thumb_func
 451              		.type	AnalogSetDefault, %function
 452              	AnalogSetDefault:
 453              	.LFB6:
 267:Generated_Source\PSoC5/cyfitter_cfg.c **** 
 268:Generated_Source\PSoC5/cyfitter_cfg.c **** 
 269:Generated_Source\PSoC5/cyfitter_cfg.c **** /* Analog API Functions */
 270:Generated_Source\PSoC5/cyfitter_cfg.c **** 
 271:Generated_Source\PSoC5/cyfitter_cfg.c **** 
 272:Generated_Source\PSoC5/cyfitter_cfg.c **** /*******************************************************************************
 273:Generated_Source\PSoC5/cyfitter_cfg.c **** * Function Name: AnalogSetDefault
 274:Generated_Source\PSoC5/cyfitter_cfg.c **** ********************************************************************************
 275:Generated_Source\PSoC5/cyfitter_cfg.c **** *
 276:Generated_Source\PSoC5/cyfitter_cfg.c **** * Summary:
 277:Generated_Source\PSoC5/cyfitter_cfg.c **** *  Sets up the analog portions of the chip to default values based on chip
 278:Generated_Source\PSoC5/cyfitter_cfg.c **** *  configuration options from the project.
 279:Generated_Source\PSoC5/cyfitter_cfg.c **** *
 280:Generated_Source\PSoC5/cyfitter_cfg.c **** * Parameters:
 281:Generated_Source\PSoC5/cyfitter_cfg.c **** *  void
 282:Generated_Source\PSoC5/cyfitter_cfg.c **** *
ARM GAS  C:\Users\barto\AppData\Local\Temp\ccB6Tk3A.s 			page 14


 283:Generated_Source\PSoC5/cyfitter_cfg.c **** * Return:
 284:Generated_Source\PSoC5/cyfitter_cfg.c **** *  void
 285:Generated_Source\PSoC5/cyfitter_cfg.c **** *
 286:Generated_Source\PSoC5/cyfitter_cfg.c **** *******************************************************************************/
 287:Generated_Source\PSoC5/cyfitter_cfg.c **** static void AnalogSetDefault(void);
 288:Generated_Source\PSoC5/cyfitter_cfg.c **** static void AnalogSetDefault(void)
 289:Generated_Source\PSoC5/cyfitter_cfg.c **** {
 454              		.loc 1 289 0
 455              		.cfi_startproc
 456              		@ args = 0, pretend = 0, frame = 8
 457              		@ frame_needed = 1, uses_anonymous_args = 0
 458              		@ link register save eliminated.
 459 0000 80B4     		push	{r7}
 460              		.cfi_def_cfa_offset 4
 461              		.cfi_offset 7, -4
 462 0002 83B0     		sub	sp, sp, #12
 463              		.cfi_def_cfa_offset 16
 464 0004 00AF     		add	r7, sp, #0
 465              		.cfi_def_cfa_register 7
 290:Generated_Source\PSoC5/cyfitter_cfg.c **** 	uint8 bg_xover_inl_trim = CY_GET_XTND_REG8((void CYFAR *)(CYREG_FLSHID_MFG_CFG_BG_XOVER_INL_TRIM +
 466              		.loc 1 290 0
 467 0006 0B4B     		ldr	r3, .L19
 468 0008 1B78     		ldrb	r3, [r3]
 469 000a FB71     		strb	r3, [r7, #7]
 291:Generated_Source\PSoC5/cyfitter_cfg.c **** 	CY_SET_XTND_REG8((void CYFAR *)(CYREG_BG_DFT0), (bg_xover_inl_trim & 0x07u));
 470              		.loc 1 291 0
 471 000c 0A4A     		ldr	r2, .L19+4
 472 000e FB79     		ldrb	r3, [r7, #7]
 473 0010 03F00703 		and	r3, r3, #7
 474 0014 DBB2     		uxtb	r3, r3
 475 0016 1370     		strb	r3, [r2]
 292:Generated_Source\PSoC5/cyfitter_cfg.c **** 	CY_SET_XTND_REG8((void CYFAR *)(CYREG_BG_DFT1), ((bg_xover_inl_trim >> 4) & 0x0Fu));
 476              		.loc 1 292 0
 477 0018 084A     		ldr	r2, .L19+8
 478 001a FB79     		ldrb	r3, [r7, #7]	@ zero_extendqisi2
 479 001c 1B09     		lsrs	r3, r3, #4
 480 001e DBB2     		uxtb	r3, r3
 481 0020 1370     		strb	r3, [r2]
 293:Generated_Source\PSoC5/cyfitter_cfg.c **** 	CY_SET_XTND_REG8((void CYFAR *)CYREG_PUMP_CR0, 0x44u);
 482              		.loc 1 293 0
 483 0022 074B     		ldr	r3, .L19+12
 484 0024 4422     		movs	r2, #68
 485 0026 1A70     		strb	r2, [r3]
 294:Generated_Source\PSoC5/cyfitter_cfg.c **** }
 486              		.loc 1 294 0
 487 0028 00BF     		nop
 488 002a 0C37     		adds	r7, r7, #12
 489              		.cfi_def_cfa_offset 4
 490 002c BD46     		mov	sp, r7
 491              		.cfi_def_cfa_register 13
 492              		@ sp needed
 493 002e 80BC     		pop	{r7}
 494              		.cfi_restore 7
 495              		.cfi_def_cfa_offset 0
 496 0030 7047     		bx	lr
 497              	.L20:
 498 0032 00BF     		.align	2
ARM GAS  C:\Users\barto\AppData\Local\Temp\ccB6Tk3A.s 			page 15


 499              	.L19:
 500 0034 CF010049 		.word	1224737231
 501 0038 6E580040 		.word	1073764462
 502 003c 6F580040 		.word	1073764463
 503 0040 76580040 		.word	1073764470
 504              		.cfi_endproc
 505              	.LFE6:
 506              		.size	AnalogSetDefault, .-AnalogSetDefault
 507              		.section	.text.SetAnalogRoutingPumps,"ax",%progbits
 508              		.align	2
 509              		.global	SetAnalogRoutingPumps
 510              		.thumb
 511              		.thumb_func
 512              		.type	SetAnalogRoutingPumps, %function
 513              	SetAnalogRoutingPumps:
 514              	.LFB7:
 295:Generated_Source\PSoC5/cyfitter_cfg.c **** 
 296:Generated_Source\PSoC5/cyfitter_cfg.c **** 
 297:Generated_Source\PSoC5/cyfitter_cfg.c **** /*******************************************************************************
 298:Generated_Source\PSoC5/cyfitter_cfg.c **** * Function Name: SetAnalogRoutingPumps
 299:Generated_Source\PSoC5/cyfitter_cfg.c **** ********************************************************************************
 300:Generated_Source\PSoC5/cyfitter_cfg.c **** *
 301:Generated_Source\PSoC5/cyfitter_cfg.c **** * Summary:
 302:Generated_Source\PSoC5/cyfitter_cfg.c **** * Enables or disables the analog pumps feeding analog routing switches.
 303:Generated_Source\PSoC5/cyfitter_cfg.c **** * Intended to be called at startup, based on the Vdda system configuration;
 304:Generated_Source\PSoC5/cyfitter_cfg.c **** * may be called during operation when the user informs us that the Vdda voltage
 305:Generated_Source\PSoC5/cyfitter_cfg.c **** * crossed the pump threshold.
 306:Generated_Source\PSoC5/cyfitter_cfg.c **** *
 307:Generated_Source\PSoC5/cyfitter_cfg.c **** * Parameters:
 308:Generated_Source\PSoC5/cyfitter_cfg.c **** *  enabled - 1 to enable the pumps, 0 to disable the pumps
 309:Generated_Source\PSoC5/cyfitter_cfg.c **** *
 310:Generated_Source\PSoC5/cyfitter_cfg.c **** * Return:
 311:Generated_Source\PSoC5/cyfitter_cfg.c **** *  void
 312:Generated_Source\PSoC5/cyfitter_cfg.c **** *
 313:Generated_Source\PSoC5/cyfitter_cfg.c **** *******************************************************************************/
 314:Generated_Source\PSoC5/cyfitter_cfg.c **** void SetAnalogRoutingPumps(uint8 enabled)
 315:Generated_Source\PSoC5/cyfitter_cfg.c **** {
 515              		.loc 1 315 0
 516              		.cfi_startproc
 517              		@ args = 0, pretend = 0, frame = 16
 518              		@ frame_needed = 1, uses_anonymous_args = 0
 519              		@ link register save eliminated.
 520 0000 80B4     		push	{r7}
 521              		.cfi_def_cfa_offset 4
 522              		.cfi_offset 7, -4
 523 0002 85B0     		sub	sp, sp, #20
 524              		.cfi_def_cfa_offset 24
 525 0004 00AF     		add	r7, sp, #0
 526              		.cfi_def_cfa_register 7
 527 0006 0346     		mov	r3, r0
 528 0008 FB71     		strb	r3, [r7, #7]
 316:Generated_Source\PSoC5/cyfitter_cfg.c **** 	uint8 regValue = CY_GET_XTND_REG8((void CYFAR *)CYREG_PUMP_CR0);
 529              		.loc 1 316 0
 530 000a 064B     		ldr	r3, .L24
 531 000c 1B78     		ldrb	r3, [r3]
 532 000e FB73     		strb	r3, [r7, #15]
 317:Generated_Source\PSoC5/cyfitter_cfg.c **** 	if (enabled != 0u)
ARM GAS  C:\Users\barto\AppData\Local\Temp\ccB6Tk3A.s 			page 16


 533              		.loc 1 317 0
 534 0010 FB79     		ldrb	r3, [r7, #7]	@ zero_extendqisi2
 535 0012 002B     		cmp	r3, #0
 318:Generated_Source\PSoC5/cyfitter_cfg.c **** 	{
 319:Generated_Source\PSoC5/cyfitter_cfg.c **** 		regValue |= 0x00u;
 320:Generated_Source\PSoC5/cyfitter_cfg.c **** 	}
 321:Generated_Source\PSoC5/cyfitter_cfg.c **** 	else
 322:Generated_Source\PSoC5/cyfitter_cfg.c **** 	{
 323:Generated_Source\PSoC5/cyfitter_cfg.c **** 		regValue &= (uint8)~0x00u;
 324:Generated_Source\PSoC5/cyfitter_cfg.c **** 	}
 325:Generated_Source\PSoC5/cyfitter_cfg.c **** 	CY_SET_XTND_REG8((void CYFAR *)CYREG_PUMP_CR0, regValue);
 536              		.loc 1 325 0
 537 0014 034A     		ldr	r2, .L24
 538 0016 FB7B     		ldrb	r3, [r7, #15]
 539 0018 1370     		strb	r3, [r2]
 326:Generated_Source\PSoC5/cyfitter_cfg.c **** }
 540              		.loc 1 326 0
 541 001a 00BF     		nop
 542 001c 1437     		adds	r7, r7, #20
 543              		.cfi_def_cfa_offset 4
 544 001e BD46     		mov	sp, r7
 545              		.cfi_def_cfa_register 13
 546              		@ sp needed
 547 0020 80BC     		pop	{r7}
 548              		.cfi_restore 7
 549              		.cfi_def_cfa_offset 0
 550 0022 7047     		bx	lr
 551              	.L25:
 552              		.align	2
 553              	.L24:
 554 0024 76580040 		.word	1073764470
 555              		.cfi_endproc
 556              	.LFE7:
 557              		.size	SetAnalogRoutingPumps, .-SetAnalogRoutingPumps
 558              		.section	.text.cyfitter_cfg,"ax",%progbits
 559              		.align	2
 560              		.global	cyfitter_cfg
 561              		.thumb
 562              		.thumb_func
 563              		.type	cyfitter_cfg, %function
 564              	cyfitter_cfg:
 565              	.LFB8:
 327:Generated_Source\PSoC5/cyfitter_cfg.c **** 
 328:Generated_Source\PSoC5/cyfitter_cfg.c **** 
 329:Generated_Source\PSoC5/cyfitter_cfg.c **** 
 330:Generated_Source\PSoC5/cyfitter_cfg.c **** 
 331:Generated_Source\PSoC5/cyfitter_cfg.c **** /*******************************************************************************
 332:Generated_Source\PSoC5/cyfitter_cfg.c **** * Function Name: cyfitter_cfg
 333:Generated_Source\PSoC5/cyfitter_cfg.c **** ********************************************************************************
 334:Generated_Source\PSoC5/cyfitter_cfg.c **** * Summary:
 335:Generated_Source\PSoC5/cyfitter_cfg.c **** *  This function is called by the start-up code for the selected device. It
 336:Generated_Source\PSoC5/cyfitter_cfg.c **** *  performs all of the necessary device configuration based on the design
 337:Generated_Source\PSoC5/cyfitter_cfg.c **** *  settings.  This includes settings from the Design Wide Resources (DWR) such
 338:Generated_Source\PSoC5/cyfitter_cfg.c **** *  as Clocks and Pins as well as any component configuration that is necessary.
 339:Generated_Source\PSoC5/cyfitter_cfg.c **** *
 340:Generated_Source\PSoC5/cyfitter_cfg.c **** * Parameters:
 341:Generated_Source\PSoC5/cyfitter_cfg.c **** *   void
ARM GAS  C:\Users\barto\AppData\Local\Temp\ccB6Tk3A.s 			page 17


 342:Generated_Source\PSoC5/cyfitter_cfg.c **** *
 343:Generated_Source\PSoC5/cyfitter_cfg.c **** * Return:
 344:Generated_Source\PSoC5/cyfitter_cfg.c **** *   void
 345:Generated_Source\PSoC5/cyfitter_cfg.c **** *
 346:Generated_Source\PSoC5/cyfitter_cfg.c **** *******************************************************************************/
 347:Generated_Source\PSoC5/cyfitter_cfg.c **** 
 348:Generated_Source\PSoC5/cyfitter_cfg.c **** void cyfitter_cfg(void)
 349:Generated_Source\PSoC5/cyfitter_cfg.c **** {
 566              		.loc 1 349 0
 567              		.cfi_startproc
 568              		@ args = 0, pretend = 0, frame = 8
 569              		@ frame_needed = 1, uses_anonymous_args = 0
 570 0000 80B5     		push	{r7, lr}
 571              		.cfi_def_cfa_offset 8
 572              		.cfi_offset 7, -8
 573              		.cfi_offset 14, -4
 574 0002 82B0     		sub	sp, sp, #8
 575              		.cfi_def_cfa_offset 16
 576 0004 00AF     		add	r7, sp, #0
 577              		.cfi_def_cfa_register 7
 350:Generated_Source\PSoC5/cyfitter_cfg.c **** 	/* IOPINS0_0 Address: CYREG_PRT0_DM0 Size (bytes): 8 */
 351:Generated_Source\PSoC5/cyfitter_cfg.c **** 	static const uint8 CYCODE BS_IOPINS0_0_VAL[] = {
 352:Generated_Source\PSoC5/cyfitter_cfg.c **** 		0x00u, 0x6Fu, 0x6Fu, 0x00u, 0x6Fu, 0x00u, 0x00u, 0x00u};
 353:Generated_Source\PSoC5/cyfitter_cfg.c **** 
 354:Generated_Source\PSoC5/cyfitter_cfg.c **** 	/* IOPINS0_7 Address: CYREG_PRT12_DR Size (bytes): 10 */
 355:Generated_Source\PSoC5/cyfitter_cfg.c **** 	static const uint8 CYCODE BS_IOPINS0_7_VAL[] = {
 356:Generated_Source\PSoC5/cyfitter_cfg.c **** 		0x10u, 0x00u, 0x00u, 0x10u, 0x00u, 0x00u, 0x00u, 0x00u, 0x00u, 0x00u};
 357:Generated_Source\PSoC5/cyfitter_cfg.c **** 
 358:Generated_Source\PSoC5/cyfitter_cfg.c **** 	/* IOPINS0_8 Address: CYREG_PRT15_DR Size (bytes): 10 */
 359:Generated_Source\PSoC5/cyfitter_cfg.c **** 	static const uint8 CYCODE BS_IOPINS0_8_VAL[] = {
 360:Generated_Source\PSoC5/cyfitter_cfg.c **** 		0x7Fu, 0x00u, 0x00u, 0x3Fu, 0x00u, 0x00u, 0x00u, 0x00u, 0xC0u, 0x00u};
 361:Generated_Source\PSoC5/cyfitter_cfg.c **** 
 362:Generated_Source\PSoC5/cyfitter_cfg.c **** 	/* IOPINS0_1 Address: CYREG_PRT1_DM0 Size (bytes): 8 */
 363:Generated_Source\PSoC5/cyfitter_cfg.c **** 	static const uint8 CYCODE BS_IOPINS0_1_VAL[] = {
 364:Generated_Source\PSoC5/cyfitter_cfg.c **** 		0x00u, 0x6Fu, 0x0Bu, 0x00u, 0x00u, 0x00u, 0x00u, 0x00u};
 365:Generated_Source\PSoC5/cyfitter_cfg.c **** 
 366:Generated_Source\PSoC5/cyfitter_cfg.c **** 	/* IOPINS0_2 Address: CYREG_PRT2_DM0 Size (bytes): 8 */
 367:Generated_Source\PSoC5/cyfitter_cfg.c **** 	static const uint8 CYCODE BS_IOPINS0_2_VAL[] = {
 368:Generated_Source\PSoC5/cyfitter_cfg.c **** 		0x00u, 0xFFu, 0xFFu, 0x00u, 0x33u, 0x00u, 0x00u, 0x00u};
 369:Generated_Source\PSoC5/cyfitter_cfg.c **** 
 370:Generated_Source\PSoC5/cyfitter_cfg.c **** #ifdef CYGlobalIntDisable
 371:Generated_Source\PSoC5/cyfitter_cfg.c **** 	/* Disable interrupts by default. Let user enable if/when they want. */
 372:Generated_Source\PSoC5/cyfitter_cfg.c **** 	CYGlobalIntDisable
 578              		.loc 1 372 0
 579              		.syntax unified
 580              	@ 372 "Generated_Source\PSoC5\cyfitter_cfg.c" 1
 581 0006 72B6     		CPSID   i
 582              	@ 0 "" 2
 373:Generated_Source\PSoC5/cyfitter_cfg.c **** #endif
 374:Generated_Source\PSoC5/cyfitter_cfg.c **** 
 375:Generated_Source\PSoC5/cyfitter_cfg.c **** 
 376:Generated_Source\PSoC5/cyfitter_cfg.c **** 	/* Set Flash Cycles based on max possible frequency in case a glitch occurs during ClockSetup(). *
 377:Generated_Source\PSoC5/cyfitter_cfg.c **** 	CY_SET_XTND_REG8((void CYFAR *)(CYREG_CACHE_CC_CTL), (((CYDEV_INSTRUCT_CACHE_ENABLED) != 0) ? 0x61
 583              		.loc 1 377 0
 584              		.thumb
 585              		.syntax unified
 586 0008 3C4B     		ldr	r3, .L29
ARM GAS  C:\Users\barto\AppData\Local\Temp\ccB6Tk3A.s 			page 18


 587 000a 6022     		movs	r2, #96
 588 000c 1A70     		strb	r2, [r3]
 378:Generated_Source\PSoC5/cyfitter_cfg.c **** 	/* Setup clocks based on selections from Clock DWR */
 379:Generated_Source\PSoC5/cyfitter_cfg.c **** 	ClockSetup();
 589              		.loc 1 379 0
 590 000e FFF7FEFF 		bl	ClockSetup
 380:Generated_Source\PSoC5/cyfitter_cfg.c **** 	/* Set Flash Cycles based on newly configured 64.00MHz Bus Clock. */
 381:Generated_Source\PSoC5/cyfitter_cfg.c **** 	CY_SET_XTND_REG8((void CYFAR *)(CYREG_CACHE_CC_CTL), (((CYDEV_INSTRUCT_CACHE_ENABLED) != 0) ? 0x01
 591              		.loc 1 381 0
 592 0012 3A4B     		ldr	r3, .L29
 593 0014 0022     		movs	r2, #0
 594 0016 1A70     		strb	r2, [r3]
 382:Generated_Source\PSoC5/cyfitter_cfg.c **** 	/* Enable/Disable Debug functionality based on settings from System DWR */
 383:Generated_Source\PSoC5/cyfitter_cfg.c **** 	CY_SET_XTND_REG8((void CYFAR *)CYREG_MLOGIC_DEBUG, (CY_GET_XTND_REG8((void CYFAR *)CYREG_MLOGIC_DE
 595              		.loc 1 383 0
 596 0018 394A     		ldr	r2, .L29+4
 597 001a 394B     		ldr	r3, .L29+4
 598 001c 1B78     		ldrb	r3, [r3]
 599 001e DBB2     		uxtb	r3, r3
 600 0020 43F00403 		orr	r3, r3, #4
 601 0024 DBB2     		uxtb	r3, r3
 602 0026 1370     		strb	r3, [r2]
 603              	.LBB3:
 384:Generated_Source\PSoC5/cyfitter_cfg.c **** 
 385:Generated_Source\PSoC5/cyfitter_cfg.c **** 	{
 386:Generated_Source\PSoC5/cyfitter_cfg.c **** 		static const uint32 CYCODE cy_cfg_addr_table[] = {
 387:Generated_Source\PSoC5/cyfitter_cfg.c **** 			0x40004501u, /* Base address: 0x40004500 Count: 1 */
 388:Generated_Source\PSoC5/cyfitter_cfg.c **** 			0x40004F03u, /* Base address: 0x40004F00 Count: 3 */
 389:Generated_Source\PSoC5/cyfitter_cfg.c **** 			0x40005205u, /* Base address: 0x40005200 Count: 5 */
 390:Generated_Source\PSoC5/cyfitter_cfg.c **** 			0x40006403u, /* Base address: 0x40006400 Count: 3 */
 391:Generated_Source\PSoC5/cyfitter_cfg.c **** 			0x40010204u, /* Base address: 0x40010200 Count: 4 */
 392:Generated_Source\PSoC5/cyfitter_cfg.c **** 			0x40010306u, /* Base address: 0x40010300 Count: 6 */
 393:Generated_Source\PSoC5/cyfitter_cfg.c **** 			0x4001041Bu, /* Base address: 0x40010400 Count: 27 */
 394:Generated_Source\PSoC5/cyfitter_cfg.c **** 			0x40010523u, /* Base address: 0x40010500 Count: 35 */
 395:Generated_Source\PSoC5/cyfitter_cfg.c **** 			0x4001061Du, /* Base address: 0x40010600 Count: 29 */
 396:Generated_Source\PSoC5/cyfitter_cfg.c **** 			0x4001072Au, /* Base address: 0x40010700 Count: 42 */
 397:Generated_Source\PSoC5/cyfitter_cfg.c **** 			0x40010903u, /* Base address: 0x40010900 Count: 3 */
 398:Generated_Source\PSoC5/cyfitter_cfg.c **** 			0x40010B03u, /* Base address: 0x40010B00 Count: 3 */
 399:Generated_Source\PSoC5/cyfitter_cfg.c **** 			0x40010D01u, /* Base address: 0x40010D00 Count: 1 */
 400:Generated_Source\PSoC5/cyfitter_cfg.c **** 			0x40011502u, /* Base address: 0x40011500 Count: 2 */
 401:Generated_Source\PSoC5/cyfitter_cfg.c **** 			0x40011709u, /* Base address: 0x40011700 Count: 9 */
 402:Generated_Source\PSoC5/cyfitter_cfg.c **** 			0x40011903u, /* Base address: 0x40011900 Count: 3 */
 403:Generated_Source\PSoC5/cyfitter_cfg.c **** 			0x40014006u, /* Base address: 0x40014000 Count: 6 */
 404:Generated_Source\PSoC5/cyfitter_cfg.c **** 			0x4001410Eu, /* Base address: 0x40014100 Count: 14 */
 405:Generated_Source\PSoC5/cyfitter_cfg.c **** 			0x4001420Du, /* Base address: 0x40014200 Count: 13 */
 406:Generated_Source\PSoC5/cyfitter_cfg.c **** 			0x4001430Du, /* Base address: 0x40014300 Count: 13 */
 407:Generated_Source\PSoC5/cyfitter_cfg.c **** 			0x40014402u, /* Base address: 0x40014400 Count: 2 */
 408:Generated_Source\PSoC5/cyfitter_cfg.c **** 			0x40014507u, /* Base address: 0x40014500 Count: 7 */
 409:Generated_Source\PSoC5/cyfitter_cfg.c **** 			0x4001460Bu, /* Base address: 0x40014600 Count: 11 */
 410:Generated_Source\PSoC5/cyfitter_cfg.c **** 			0x40014706u, /* Base address: 0x40014700 Count: 6 */
 411:Generated_Source\PSoC5/cyfitter_cfg.c **** 			0x4001480Du, /* Base address: 0x40014800 Count: 13 */
 412:Generated_Source\PSoC5/cyfitter_cfg.c **** 			0x40014904u, /* Base address: 0x40014900 Count: 4 */
 413:Generated_Source\PSoC5/cyfitter_cfg.c **** 			0x40014C08u, /* Base address: 0x40014C00 Count: 8 */
 414:Generated_Source\PSoC5/cyfitter_cfg.c **** 			0x40015002u, /* Base address: 0x40015000 Count: 2 */
 415:Generated_Source\PSoC5/cyfitter_cfg.c **** 			0x40015102u, /* Base address: 0x40015100 Count: 2 */
 416:Generated_Source\PSoC5/cyfitter_cfg.c **** 		};
 417:Generated_Source\PSoC5/cyfitter_cfg.c **** 
ARM GAS  C:\Users\barto\AppData\Local\Temp\ccB6Tk3A.s 			page 19


 418:Generated_Source\PSoC5/cyfitter_cfg.c **** 		static const cy_cfg_addrvalue_t CYCODE cy_cfg_data_table[] = {
 419:Generated_Source\PSoC5/cyfitter_cfg.c **** 			{0x7Eu, 0x02u},
 420:Generated_Source\PSoC5/cyfitter_cfg.c **** 			{0x0Au, 0x4Bu},
 421:Generated_Source\PSoC5/cyfitter_cfg.c **** 			{0x0Du, 0x80u},
 422:Generated_Source\PSoC5/cyfitter_cfg.c **** 			{0x16u, 0x4Bu},
 423:Generated_Source\PSoC5/cyfitter_cfg.c **** 			{0x00u, 0x46u},
 424:Generated_Source\PSoC5/cyfitter_cfg.c **** 			{0x01u, 0x0Au},
 425:Generated_Source\PSoC5/cyfitter_cfg.c **** 			{0x10u, 0x12u},
 426:Generated_Source\PSoC5/cyfitter_cfg.c **** 			{0x11u, 0x30u},
 427:Generated_Source\PSoC5/cyfitter_cfg.c **** 			{0x7Cu, 0x40u},
 428:Generated_Source\PSoC5/cyfitter_cfg.c **** 			{0x84u, 0x07u},
 429:Generated_Source\PSoC5/cyfitter_cfg.c **** 			{0x86u, 0x0Fu},
 430:Generated_Source\PSoC5/cyfitter_cfg.c **** 			{0x87u, 0x01u},
 431:Generated_Source\PSoC5/cyfitter_cfg.c **** 			{0xB8u, 0x80u},
 432:Generated_Source\PSoC5/cyfitter_cfg.c **** 			{0xBEu, 0x40u},
 433:Generated_Source\PSoC5/cyfitter_cfg.c **** 			{0xD8u, 0x04u},
 434:Generated_Source\PSoC5/cyfitter_cfg.c **** 			{0xDFu, 0x01u},
 435:Generated_Source\PSoC5/cyfitter_cfg.c **** 			{0x1Bu, 0x80u},
 436:Generated_Source\PSoC5/cyfitter_cfg.c **** 			{0x8Bu, 0x80u},
 437:Generated_Source\PSoC5/cyfitter_cfg.c **** 			{0x9Au, 0x01u},
 438:Generated_Source\PSoC5/cyfitter_cfg.c **** 			{0xAAu, 0x01u},
 439:Generated_Source\PSoC5/cyfitter_cfg.c **** 			{0xE6u, 0x20u},
 440:Generated_Source\PSoC5/cyfitter_cfg.c **** 			{0xEAu, 0x04u},
 441:Generated_Source\PSoC5/cyfitter_cfg.c **** 			{0x0Cu, 0x02u},
 442:Generated_Source\PSoC5/cyfitter_cfg.c **** 			{0x1Au, 0x01u},
 443:Generated_Source\PSoC5/cyfitter_cfg.c **** 			{0x1Cu, 0x08u},
 444:Generated_Source\PSoC5/cyfitter_cfg.c **** 			{0x1Fu, 0x01u},
 445:Generated_Source\PSoC5/cyfitter_cfg.c **** 			{0x28u, 0x04u},
 446:Generated_Source\PSoC5/cyfitter_cfg.c **** 			{0x30u, 0x08u},
 447:Generated_Source\PSoC5/cyfitter_cfg.c **** 			{0x32u, 0x04u},
 448:Generated_Source\PSoC5/cyfitter_cfg.c **** 			{0x34u, 0x02u},
 449:Generated_Source\PSoC5/cyfitter_cfg.c **** 			{0x36u, 0x01u},
 450:Generated_Source\PSoC5/cyfitter_cfg.c **** 			{0x37u, 0x01u},
 451:Generated_Source\PSoC5/cyfitter_cfg.c **** 			{0x3Eu, 0x15u},
 452:Generated_Source\PSoC5/cyfitter_cfg.c **** 			{0x56u, 0x04u},
 453:Generated_Source\PSoC5/cyfitter_cfg.c **** 			{0x58u, 0x04u},
 454:Generated_Source\PSoC5/cyfitter_cfg.c **** 			{0x59u, 0x04u},
 455:Generated_Source\PSoC5/cyfitter_cfg.c **** 			{0x5Bu, 0x04u},
 456:Generated_Source\PSoC5/cyfitter_cfg.c **** 			{0x5Cu, 0x22u},
 457:Generated_Source\PSoC5/cyfitter_cfg.c **** 			{0x5Fu, 0x01u},
 458:Generated_Source\PSoC5/cyfitter_cfg.c **** 			{0xADu, 0x01u},
 459:Generated_Source\PSoC5/cyfitter_cfg.c **** 			{0xB7u, 0x01u},
 460:Generated_Source\PSoC5/cyfitter_cfg.c **** 			{0xBFu, 0x40u},
 461:Generated_Source\PSoC5/cyfitter_cfg.c **** 			{0xD2u, 0x0Fu},
 462:Generated_Source\PSoC5/cyfitter_cfg.c **** 			{0xD3u, 0x0Fu},
 463:Generated_Source\PSoC5/cyfitter_cfg.c **** 			{0xD6u, 0x10u},
 464:Generated_Source\PSoC5/cyfitter_cfg.c **** 			{0xD9u, 0x04u},
 465:Generated_Source\PSoC5/cyfitter_cfg.c **** 			{0xDBu, 0x04u},
 466:Generated_Source\PSoC5/cyfitter_cfg.c **** 			{0xDDu, 0x10u},
 467:Generated_Source\PSoC5/cyfitter_cfg.c **** 			{0xDFu, 0x01u},
 468:Generated_Source\PSoC5/cyfitter_cfg.c **** 			{0x01u, 0x80u},
 469:Generated_Source\PSoC5/cyfitter_cfg.c **** 			{0x08u, 0x20u},
 470:Generated_Source\PSoC5/cyfitter_cfg.c **** 			{0x09u, 0x80u},
 471:Generated_Source\PSoC5/cyfitter_cfg.c **** 			{0x12u, 0x08u},
 472:Generated_Source\PSoC5/cyfitter_cfg.c **** 			{0x19u, 0x95u},
 473:Generated_Source\PSoC5/cyfitter_cfg.c **** 			{0x21u, 0x80u},
 474:Generated_Source\PSoC5/cyfitter_cfg.c **** 			{0x24u, 0x02u},
ARM GAS  C:\Users\barto\AppData\Local\Temp\ccB6Tk3A.s 			page 20


 475:Generated_Source\PSoC5/cyfitter_cfg.c **** 			{0x2Du, 0x40u},
 476:Generated_Source\PSoC5/cyfitter_cfg.c **** 			{0x30u, 0x80u},
 477:Generated_Source\PSoC5/cyfitter_cfg.c **** 			{0x59u, 0x15u},
 478:Generated_Source\PSoC5/cyfitter_cfg.c **** 			{0x5Au, 0x40u},
 479:Generated_Source\PSoC5/cyfitter_cfg.c **** 			{0x63u, 0x40u},
 480:Generated_Source\PSoC5/cyfitter_cfg.c **** 			{0x68u, 0x05u},
 481:Generated_Source\PSoC5/cyfitter_cfg.c **** 			{0x6Bu, 0x90u},
 482:Generated_Source\PSoC5/cyfitter_cfg.c **** 			{0x6Cu, 0x04u},
 483:Generated_Source\PSoC5/cyfitter_cfg.c **** 			{0x6Du, 0x02u},
 484:Generated_Source\PSoC5/cyfitter_cfg.c **** 			{0x6Fu, 0x21u},
 485:Generated_Source\PSoC5/cyfitter_cfg.c **** 			{0x87u, 0x60u},
 486:Generated_Source\PSoC5/cyfitter_cfg.c **** 			{0x88u, 0x04u},
 487:Generated_Source\PSoC5/cyfitter_cfg.c **** 			{0x8Bu, 0x80u},
 488:Generated_Source\PSoC5/cyfitter_cfg.c **** 			{0x8Cu, 0x05u},
 489:Generated_Source\PSoC5/cyfitter_cfg.c **** 			{0x9Au, 0x01u},
 490:Generated_Source\PSoC5/cyfitter_cfg.c **** 			{0x9Fu, 0x90u},
 491:Generated_Source\PSoC5/cyfitter_cfg.c **** 			{0xA3u, 0x80u},
 492:Generated_Source\PSoC5/cyfitter_cfg.c **** 			{0xABu, 0x10u},
 493:Generated_Source\PSoC5/cyfitter_cfg.c **** 			{0xC0u, 0x01u},
 494:Generated_Source\PSoC5/cyfitter_cfg.c **** 			{0xC2u, 0x03u},
 495:Generated_Source\PSoC5/cyfitter_cfg.c **** 			{0xC4u, 0x02u},
 496:Generated_Source\PSoC5/cyfitter_cfg.c **** 			{0xCAu, 0x10u},
 497:Generated_Source\PSoC5/cyfitter_cfg.c **** 			{0xCCu, 0x08u},
 498:Generated_Source\PSoC5/cyfitter_cfg.c **** 			{0xD6u, 0x0Fu},
 499:Generated_Source\PSoC5/cyfitter_cfg.c **** 			{0xD8u, 0x01u},
 500:Generated_Source\PSoC5/cyfitter_cfg.c **** 			{0xE2u, 0xC0u},
 501:Generated_Source\PSoC5/cyfitter_cfg.c **** 			{0xE4u, 0x08u},
 502:Generated_Source\PSoC5/cyfitter_cfg.c **** 			{0xE8u, 0x04u},
 503:Generated_Source\PSoC5/cyfitter_cfg.c **** 			{0x00u, 0x02u},
 504:Generated_Source\PSoC5/cyfitter_cfg.c **** 			{0x28u, 0x04u},
 505:Generated_Source\PSoC5/cyfitter_cfg.c **** 			{0x29u, 0x01u},
 506:Generated_Source\PSoC5/cyfitter_cfg.c **** 			{0x2Cu, 0x01u},
 507:Generated_Source\PSoC5/cyfitter_cfg.c **** 			{0x30u, 0x04u},
 508:Generated_Source\PSoC5/cyfitter_cfg.c **** 			{0x33u, 0x01u},
 509:Generated_Source\PSoC5/cyfitter_cfg.c **** 			{0x34u, 0x01u},
 510:Generated_Source\PSoC5/cyfitter_cfg.c **** 			{0x36u, 0x02u},
 511:Generated_Source\PSoC5/cyfitter_cfg.c **** 			{0x3Eu, 0x51u},
 512:Generated_Source\PSoC5/cyfitter_cfg.c **** 			{0x3Fu, 0x04u},
 513:Generated_Source\PSoC5/cyfitter_cfg.c **** 			{0x56u, 0x04u},
 514:Generated_Source\PSoC5/cyfitter_cfg.c **** 			{0x58u, 0x04u},
 515:Generated_Source\PSoC5/cyfitter_cfg.c **** 			{0x59u, 0x04u},
 516:Generated_Source\PSoC5/cyfitter_cfg.c **** 			{0x5Bu, 0x04u},
 517:Generated_Source\PSoC5/cyfitter_cfg.c **** 			{0x5Fu, 0x01u},
 518:Generated_Source\PSoC5/cyfitter_cfg.c **** 			{0x8Fu, 0x02u},
 519:Generated_Source\PSoC5/cyfitter_cfg.c **** 			{0x91u, 0x01u},
 520:Generated_Source\PSoC5/cyfitter_cfg.c **** 			{0x97u, 0x08u},
 521:Generated_Source\PSoC5/cyfitter_cfg.c **** 			{0xA1u, 0x04u},
 522:Generated_Source\PSoC5/cyfitter_cfg.c **** 			{0xB1u, 0x02u},
 523:Generated_Source\PSoC5/cyfitter_cfg.c **** 			{0xB3u, 0x08u},
 524:Generated_Source\PSoC5/cyfitter_cfg.c **** 			{0xB5u, 0x01u},
 525:Generated_Source\PSoC5/cyfitter_cfg.c **** 			{0xB7u, 0x04u},
 526:Generated_Source\PSoC5/cyfitter_cfg.c **** 			{0xBFu, 0x50u},
 527:Generated_Source\PSoC5/cyfitter_cfg.c **** 			{0xD6u, 0x04u},
 528:Generated_Source\PSoC5/cyfitter_cfg.c **** 			{0xD9u, 0x04u},
 529:Generated_Source\PSoC5/cyfitter_cfg.c **** 			{0xDBu, 0x04u},
 530:Generated_Source\PSoC5/cyfitter_cfg.c **** 			{0xDCu, 0x20u},
 531:Generated_Source\PSoC5/cyfitter_cfg.c **** 			{0xDFu, 0x01u},
ARM GAS  C:\Users\barto\AppData\Local\Temp\ccB6Tk3A.s 			page 21


 532:Generated_Source\PSoC5/cyfitter_cfg.c **** 			{0x06u, 0x80u},
 533:Generated_Source\PSoC5/cyfitter_cfg.c **** 			{0x16u, 0x08u},
 534:Generated_Source\PSoC5/cyfitter_cfg.c **** 			{0x17u, 0x80u},
 535:Generated_Source\PSoC5/cyfitter_cfg.c **** 			{0x1Eu, 0x8Au},
 536:Generated_Source\PSoC5/cyfitter_cfg.c **** 			{0x21u, 0x22u},
 537:Generated_Source\PSoC5/cyfitter_cfg.c **** 			{0x22u, 0x48u},
 538:Generated_Source\PSoC5/cyfitter_cfg.c **** 			{0x27u, 0x20u},
 539:Generated_Source\PSoC5/cyfitter_cfg.c **** 			{0x2Au, 0x01u},
 540:Generated_Source\PSoC5/cyfitter_cfg.c **** 			{0x2Fu, 0x04u},
 541:Generated_Source\PSoC5/cyfitter_cfg.c **** 			{0x30u, 0x08u},
 542:Generated_Source\PSoC5/cyfitter_cfg.c **** 			{0x31u, 0x02u},
 543:Generated_Source\PSoC5/cyfitter_cfg.c **** 			{0x38u, 0x80u},
 544:Generated_Source\PSoC5/cyfitter_cfg.c **** 			{0x5Au, 0x80u},
 545:Generated_Source\PSoC5/cyfitter_cfg.c **** 			{0x5Eu, 0x8Au},
 546:Generated_Source\PSoC5/cyfitter_cfg.c **** 			{0x5Fu, 0x20u},
 547:Generated_Source\PSoC5/cyfitter_cfg.c **** 			{0x60u, 0x40u},
 548:Generated_Source\PSoC5/cyfitter_cfg.c **** 			{0x67u, 0x80u},
 549:Generated_Source\PSoC5/cyfitter_cfg.c **** 			{0x6Du, 0x40u},
 550:Generated_Source\PSoC5/cyfitter_cfg.c **** 			{0x84u, 0x08u},
 551:Generated_Source\PSoC5/cyfitter_cfg.c **** 			{0x87u, 0x40u},
 552:Generated_Source\PSoC5/cyfitter_cfg.c **** 			{0x90u, 0x80u},
 553:Generated_Source\PSoC5/cyfitter_cfg.c **** 			{0x95u, 0x40u},
 554:Generated_Source\PSoC5/cyfitter_cfg.c **** 			{0x9Au, 0x01u},
 555:Generated_Source\PSoC5/cyfitter_cfg.c **** 			{0xA4u, 0x80u},
 556:Generated_Source\PSoC5/cyfitter_cfg.c **** 			{0xA5u, 0x20u},
 557:Generated_Source\PSoC5/cyfitter_cfg.c **** 			{0xA6u, 0x08u},
 558:Generated_Source\PSoC5/cyfitter_cfg.c **** 			{0xA8u, 0x60u},
 559:Generated_Source\PSoC5/cyfitter_cfg.c **** 			{0xA9u, 0x01u},
 560:Generated_Source\PSoC5/cyfitter_cfg.c **** 			{0xACu, 0x01u},
 561:Generated_Source\PSoC5/cyfitter_cfg.c **** 			{0xAFu, 0x01u},
 562:Generated_Source\PSoC5/cyfitter_cfg.c **** 			{0xB5u, 0x20u},
 563:Generated_Source\PSoC5/cyfitter_cfg.c **** 			{0xB6u, 0x40u},
 564:Generated_Source\PSoC5/cyfitter_cfg.c **** 			{0xC0u, 0x10u},
 565:Generated_Source\PSoC5/cyfitter_cfg.c **** 			{0xC4u, 0xC0u},
 566:Generated_Source\PSoC5/cyfitter_cfg.c **** 			{0xCAu, 0x21u},
 567:Generated_Source\PSoC5/cyfitter_cfg.c **** 			{0xCCu, 0x03u},
 568:Generated_Source\PSoC5/cyfitter_cfg.c **** 			{0xCEu, 0x08u},
 569:Generated_Source\PSoC5/cyfitter_cfg.c **** 			{0xD6u, 0xF8u},
 570:Generated_Source\PSoC5/cyfitter_cfg.c **** 			{0xD8u, 0x81u},
 571:Generated_Source\PSoC5/cyfitter_cfg.c **** 			{0xE2u, 0x02u},
 572:Generated_Source\PSoC5/cyfitter_cfg.c **** 			{0xEAu, 0x01u},
 573:Generated_Source\PSoC5/cyfitter_cfg.c **** 			{0xEEu, 0x04u},
 574:Generated_Source\PSoC5/cyfitter_cfg.c **** 			{0xE2u, 0x02u},
 575:Generated_Source\PSoC5/cyfitter_cfg.c **** 			{0xEAu, 0x01u},
 576:Generated_Source\PSoC5/cyfitter_cfg.c **** 			{0xEEu, 0x04u},
 577:Generated_Source\PSoC5/cyfitter_cfg.c **** 			{0xE0u, 0x30u},
 578:Generated_Source\PSoC5/cyfitter_cfg.c **** 			{0xE4u, 0x08u},
 579:Generated_Source\PSoC5/cyfitter_cfg.c **** 			{0xE8u, 0x04u},
 580:Generated_Source\PSoC5/cyfitter_cfg.c **** 			{0xEAu, 0x04u},
 581:Generated_Source\PSoC5/cyfitter_cfg.c **** 			{0xAAu, 0x88u},
 582:Generated_Source\PSoC5/cyfitter_cfg.c **** 			{0xAFu, 0x04u},
 583:Generated_Source\PSoC5/cyfitter_cfg.c **** 			{0x80u, 0x80u},
 584:Generated_Source\PSoC5/cyfitter_cfg.c **** 			{0x97u, 0x08u},
 585:Generated_Source\PSoC5/cyfitter_cfg.c **** 			{0x9Eu, 0x88u},
 586:Generated_Source\PSoC5/cyfitter_cfg.c **** 			{0xA4u, 0x80u},
 587:Generated_Source\PSoC5/cyfitter_cfg.c **** 			{0xA8u, 0x40u},
 588:Generated_Source\PSoC5/cyfitter_cfg.c **** 			{0xABu, 0x80u},
ARM GAS  C:\Users\barto\AppData\Local\Temp\ccB6Tk3A.s 			page 22


 589:Generated_Source\PSoC5/cyfitter_cfg.c **** 			{0xE2u, 0x04u},
 590:Generated_Source\PSoC5/cyfitter_cfg.c **** 			{0xEAu, 0x02u},
 591:Generated_Source\PSoC5/cyfitter_cfg.c **** 			{0xEEu, 0x0Au},
 592:Generated_Source\PSoC5/cyfitter_cfg.c **** 			{0xE2u, 0x04u},
 593:Generated_Source\PSoC5/cyfitter_cfg.c **** 			{0xEAu, 0x02u},
 594:Generated_Source\PSoC5/cyfitter_cfg.c **** 			{0xEEu, 0x0Au},
 595:Generated_Source\PSoC5/cyfitter_cfg.c **** 			{0x31u, 0x02u},
 596:Generated_Source\PSoC5/cyfitter_cfg.c **** 			{0x33u, 0x80u},
 597:Generated_Source\PSoC5/cyfitter_cfg.c **** 			{0x36u, 0x48u},
 598:Generated_Source\PSoC5/cyfitter_cfg.c **** 			{0x3Bu, 0x20u},
 599:Generated_Source\PSoC5/cyfitter_cfg.c **** 			{0xCCu, 0xF0u},
 600:Generated_Source\PSoC5/cyfitter_cfg.c **** 			{0xCEu, 0x10u},
 601:Generated_Source\PSoC5/cyfitter_cfg.c **** 			{0x32u, 0x10u},
 602:Generated_Source\PSoC5/cyfitter_cfg.c **** 			{0x51u, 0x08u},
 603:Generated_Source\PSoC5/cyfitter_cfg.c **** 			{0x53u, 0x02u},
 604:Generated_Source\PSoC5/cyfitter_cfg.c **** 			{0x57u, 0x21u},
 605:Generated_Source\PSoC5/cyfitter_cfg.c **** 			{0x5Au, 0x04u},
 606:Generated_Source\PSoC5/cyfitter_cfg.c **** 			{0x5Cu, 0x02u},
 607:Generated_Source\PSoC5/cyfitter_cfg.c **** 			{0x8Au, 0x04u},
 608:Generated_Source\PSoC5/cyfitter_cfg.c **** 			{0x97u, 0x20u},
 609:Generated_Source\PSoC5/cyfitter_cfg.c **** 			{0xA5u, 0x02u},
 610:Generated_Source\PSoC5/cyfitter_cfg.c **** 			{0xA6u, 0x48u},
 611:Generated_Source\PSoC5/cyfitter_cfg.c **** 			{0xA7u, 0x80u},
 612:Generated_Source\PSoC5/cyfitter_cfg.c **** 			{0xCCu, 0x10u},
 613:Generated_Source\PSoC5/cyfitter_cfg.c **** 			{0xD4u, 0xE0u},
 614:Generated_Source\PSoC5/cyfitter_cfg.c **** 			{0xD6u, 0xE0u},
 615:Generated_Source\PSoC5/cyfitter_cfg.c **** 			{0x58u, 0x08u},
 616:Generated_Source\PSoC5/cyfitter_cfg.c **** 			{0x5Cu, 0x08u},
 617:Generated_Source\PSoC5/cyfitter_cfg.c **** 			{0x87u, 0x10u},
 618:Generated_Source\PSoC5/cyfitter_cfg.c **** 			{0x88u, 0x08u},
 619:Generated_Source\PSoC5/cyfitter_cfg.c **** 			{0x8Fu, 0x20u},
 620:Generated_Source\PSoC5/cyfitter_cfg.c **** 			{0x96u, 0x20u},
 621:Generated_Source\PSoC5/cyfitter_cfg.c **** 			{0x97u, 0x20u},
 622:Generated_Source\PSoC5/cyfitter_cfg.c **** 			{0x9Cu, 0x02u},
 623:Generated_Source\PSoC5/cyfitter_cfg.c **** 			{0xA5u, 0x0Au},
 624:Generated_Source\PSoC5/cyfitter_cfg.c **** 			{0xA6u, 0x48u},
 625:Generated_Source\PSoC5/cyfitter_cfg.c **** 			{0xA7u, 0xA3u},
 626:Generated_Source\PSoC5/cyfitter_cfg.c **** 			{0xD6u, 0xC0u},
 627:Generated_Source\PSoC5/cyfitter_cfg.c **** 			{0xE6u, 0x40u},
 628:Generated_Source\PSoC5/cyfitter_cfg.c **** 			{0x1Bu, 0x02u},
 629:Generated_Source\PSoC5/cyfitter_cfg.c **** 			{0x86u, 0x08u},
 630:Generated_Source\PSoC5/cyfitter_cfg.c **** 			{0x96u, 0x20u},
 631:Generated_Source\PSoC5/cyfitter_cfg.c **** 			{0xA5u, 0x02u},
 632:Generated_Source\PSoC5/cyfitter_cfg.c **** 			{0xA6u, 0x48u},
 633:Generated_Source\PSoC5/cyfitter_cfg.c **** 			{0xA7u, 0x82u},
 634:Generated_Source\PSoC5/cyfitter_cfg.c **** 			{0xA8u, 0x02u},
 635:Generated_Source\PSoC5/cyfitter_cfg.c **** 			{0xADu, 0x08u},
 636:Generated_Source\PSoC5/cyfitter_cfg.c **** 			{0xAFu, 0x01u},
 637:Generated_Source\PSoC5/cyfitter_cfg.c **** 			{0xC6u, 0x10u},
 638:Generated_Source\PSoC5/cyfitter_cfg.c **** 			{0xE2u, 0x10u},
 639:Generated_Source\PSoC5/cyfitter_cfg.c **** 			{0xEAu, 0x40u},
 640:Generated_Source\PSoC5/cyfitter_cfg.c **** 			{0xEEu, 0x90u},
 641:Generated_Source\PSoC5/cyfitter_cfg.c **** 			{0x13u, 0x08u},
 642:Generated_Source\PSoC5/cyfitter_cfg.c **** 			{0xC4u, 0x08u},
 643:Generated_Source\PSoC5/cyfitter_cfg.c **** 			{0x50u, 0x04u},
 644:Generated_Source\PSoC5/cyfitter_cfg.c **** 			{0x54u, 0x04u},
 645:Generated_Source\PSoC5/cyfitter_cfg.c **** 			{0x62u, 0x08u},
ARM GAS  C:\Users\barto\AppData\Local\Temp\ccB6Tk3A.s 			page 23


 646:Generated_Source\PSoC5/cyfitter_cfg.c **** 			{0x64u, 0x08u},
 647:Generated_Source\PSoC5/cyfitter_cfg.c **** 			{0xABu, 0x08u},
 648:Generated_Source\PSoC5/cyfitter_cfg.c **** 			{0xD4u, 0x06u},
 649:Generated_Source\PSoC5/cyfitter_cfg.c **** 			{0xD8u, 0x03u},
 650:Generated_Source\PSoC5/cyfitter_cfg.c **** 			{0x03u, 0x80u},
 651:Generated_Source\PSoC5/cyfitter_cfg.c **** 			{0x07u, 0x20u},
 652:Generated_Source\PSoC5/cyfitter_cfg.c **** 			{0x84u, 0x08u},
 653:Generated_Source\PSoC5/cyfitter_cfg.c **** 			{0x88u, 0x04u},
 654:Generated_Source\PSoC5/cyfitter_cfg.c **** 			{0x8Cu, 0x04u},
 655:Generated_Source\PSoC5/cyfitter_cfg.c **** 			{0x94u, 0x08u},
 656:Generated_Source\PSoC5/cyfitter_cfg.c **** 			{0x9Cu, 0x08u},
 657:Generated_Source\PSoC5/cyfitter_cfg.c **** 			{0xA4u, 0x04u},
 658:Generated_Source\PSoC5/cyfitter_cfg.c **** 			{0xAAu, 0x08u},
 659:Generated_Source\PSoC5/cyfitter_cfg.c **** 			{0xC0u, 0x0Cu},
 660:Generated_Source\PSoC5/cyfitter_cfg.c **** 			{0xE0u, 0x0Cu},
 661:Generated_Source\PSoC5/cyfitter_cfg.c **** 			{0x08u, 0x08u},
 662:Generated_Source\PSoC5/cyfitter_cfg.c **** 			{0x09u, 0x40u},
 663:Generated_Source\PSoC5/cyfitter_cfg.c **** 			{0x0Fu, 0x40u},
 664:Generated_Source\PSoC5/cyfitter_cfg.c **** 			{0x86u, 0x04u},
 665:Generated_Source\PSoC5/cyfitter_cfg.c **** 			{0xABu, 0xA0u},
 666:Generated_Source\PSoC5/cyfitter_cfg.c **** 			{0xC2u, 0x0Eu},
 667:Generated_Source\PSoC5/cyfitter_cfg.c **** 			{0x02u, 0x04u},
 668:Generated_Source\PSoC5/cyfitter_cfg.c **** 			{0x03u, 0x40u},
 669:Generated_Source\PSoC5/cyfitter_cfg.c **** 			{0x05u, 0x02u},
 670:Generated_Source\PSoC5/cyfitter_cfg.c **** 			{0x07u, 0x04u},
 671:Generated_Source\PSoC5/cyfitter_cfg.c **** 			{0x9Eu, 0x04u},
 672:Generated_Source\PSoC5/cyfitter_cfg.c **** 			{0xAAu, 0x14u},
 673:Generated_Source\PSoC5/cyfitter_cfg.c **** 			{0xADu, 0x02u},
 674:Generated_Source\PSoC5/cyfitter_cfg.c **** 			{0xAEu, 0x40u},
 675:Generated_Source\PSoC5/cyfitter_cfg.c **** 			{0xAFu, 0x80u},
 676:Generated_Source\PSoC5/cyfitter_cfg.c **** 			{0xC0u, 0xF0u},
 677:Generated_Source\PSoC5/cyfitter_cfg.c **** 			{0xE8u, 0x80u},
 678:Generated_Source\PSoC5/cyfitter_cfg.c **** 			{0xEAu, 0x40u},
 679:Generated_Source\PSoC5/cyfitter_cfg.c **** 			{0xEEu, 0x70u},
 680:Generated_Source\PSoC5/cyfitter_cfg.c **** 			{0xABu, 0x44u},
 681:Generated_Source\PSoC5/cyfitter_cfg.c **** 			{0xADu, 0x02u},
 682:Generated_Source\PSoC5/cyfitter_cfg.c **** 			{0xE8u, 0x80u},
 683:Generated_Source\PSoC5/cyfitter_cfg.c **** 			{0xECu, 0x90u},
 684:Generated_Source\PSoC5/cyfitter_cfg.c **** 			{0x0Au, 0x04u},
 685:Generated_Source\PSoC5/cyfitter_cfg.c **** 			{0x0Eu, 0x40u},
 686:Generated_Source\PSoC5/cyfitter_cfg.c **** 			{0x82u, 0x40u},
 687:Generated_Source\PSoC5/cyfitter_cfg.c **** 			{0x96u, 0x04u},
 688:Generated_Source\PSoC5/cyfitter_cfg.c **** 			{0xACu, 0x08u},
 689:Generated_Source\PSoC5/cyfitter_cfg.c **** 			{0xADu, 0x40u},
 690:Generated_Source\PSoC5/cyfitter_cfg.c **** 			{0xAFu, 0x40u},
 691:Generated_Source\PSoC5/cyfitter_cfg.c **** 			{0xC2u, 0x06u},
 692:Generated_Source\PSoC5/cyfitter_cfg.c **** 			{0x00u, 0x06u},
 693:Generated_Source\PSoC5/cyfitter_cfg.c **** 			{0x0Au, 0x06u},
 694:Generated_Source\PSoC5/cyfitter_cfg.c **** 			{0x00u, 0xEAu},
 695:Generated_Source\PSoC5/cyfitter_cfg.c **** 			{0x01u, 0x0Fu},
 696:Generated_Source\PSoC5/cyfitter_cfg.c **** 		};
 697:Generated_Source\PSoC5/cyfitter_cfg.c **** 
 698:Generated_Source\PSoC5/cyfitter_cfg.c **** 
 699:Generated_Source\PSoC5/cyfitter_cfg.c **** 
 700:Generated_Source\PSoC5/cyfitter_cfg.c **** 		CYPACKED typedef struct {
 701:Generated_Source\PSoC5/cyfitter_cfg.c **** 			void CYFAR *address;
 702:Generated_Source\PSoC5/cyfitter_cfg.c **** 			uint16 size;
ARM GAS  C:\Users\barto\AppData\Local\Temp\ccB6Tk3A.s 			page 24


 703:Generated_Source\PSoC5/cyfitter_cfg.c **** 		} CYPACKED_ATTR cfg_memset_t;
 704:Generated_Source\PSoC5/cyfitter_cfg.c **** 
 705:Generated_Source\PSoC5/cyfitter_cfg.c **** 		static const cfg_memset_t CYCODE cfg_memset_list[] = {
 706:Generated_Source\PSoC5/cyfitter_cfg.c **** 			/* address, size */
 707:Generated_Source\PSoC5/cyfitter_cfg.c **** 			{(void CYFAR *)(CYREG_TMR0_CFG0), 24u},
 708:Generated_Source\PSoC5/cyfitter_cfg.c **** 			{(void CYFAR *)(CYREG_PRT3_DR), 64u},
 709:Generated_Source\PSoC5/cyfitter_cfg.c **** 			{(void CYFAR *)(CYDEV_UCFG_B0_P0_U0_BASE), 4096u},
 710:Generated_Source\PSoC5/cyfitter_cfg.c **** 			{(void CYFAR *)(CYDEV_UCFG_B1_P2_U0_BASE), 2048u},
 711:Generated_Source\PSoC5/cyfitter_cfg.c **** 			{(void CYFAR *)(CYDEV_UCFG_DSI0_BASE), 2560u},
 712:Generated_Source\PSoC5/cyfitter_cfg.c **** 			{(void CYFAR *)(CYDEV_UCFG_DSI12_BASE), 512u},
 713:Generated_Source\PSoC5/cyfitter_cfg.c **** 			{(void CYFAR *)(CYREG_BCTL0_MDCLK_EN), 32u},
 714:Generated_Source\PSoC5/cyfitter_cfg.c **** 		};
 715:Generated_Source\PSoC5/cyfitter_cfg.c **** 
 716:Generated_Source\PSoC5/cyfitter_cfg.c **** 		uint8 CYDATA i;
 717:Generated_Source\PSoC5/cyfitter_cfg.c **** 
 718:Generated_Source\PSoC5/cyfitter_cfg.c **** 		/* Zero out critical memory blocks before beginning configuration */
 719:Generated_Source\PSoC5/cyfitter_cfg.c **** 		for (i = 0u; i < (sizeof(cfg_memset_list)/sizeof(cfg_memset_list[0])); i++)
 604              		.loc 1 719 0
 605 0028 0023     		movs	r3, #0
 606 002a FB71     		strb	r3, [r7, #7]
 607 002c 13E0     		b	.L27
 608              	.L28:
 609              	.LBB4:
 720:Generated_Source\PSoC5/cyfitter_cfg.c **** 		{
 721:Generated_Source\PSoC5/cyfitter_cfg.c **** 			const cfg_memset_t CYCODE * CYDATA ms = &cfg_memset_list[i];
 610              		.loc 1 721 0 discriminator 3
 611 002e FA79     		ldrb	r2, [r7, #7]	@ zero_extendqisi2
 612 0030 1346     		mov	r3, r2
 613 0032 5B00     		lsls	r3, r3, #1
 614 0034 1344     		add	r3, r3, r2
 615 0036 5B00     		lsls	r3, r3, #1
 616 0038 324A     		ldr	r2, .L29+8
 617 003a 1344     		add	r3, r3, r2
 618 003c 3B60     		str	r3, [r7]
 722:Generated_Source\PSoC5/cyfitter_cfg.c **** 			CYMEMZERO(ms->address, (size_t)(uint32)(ms->size));
 619              		.loc 1 722 0 discriminator 3
 620 003e 3B68     		ldr	r3, [r7]
 621 0040 1A68     		ldr	r2, [r3]	@ unaligned
 622 0042 3B68     		ldr	r3, [r7]
 623 0044 9B88     		ldrh	r3, [r3, #4]	@ unaligned
 624 0046 9BB2     		uxth	r3, r3
 625 0048 1946     		mov	r1, r3
 626 004a 1046     		mov	r0, r2
 627 004c FFF7FEFF 		bl	CYMEMZERO
 628              	.LBE4:
 719:Generated_Source\PSoC5/cyfitter_cfg.c **** 		{
 629              		.loc 1 719 0 discriminator 3
 630 0050 FB79     		ldrb	r3, [r7, #7]	@ zero_extendqisi2
 631 0052 0133     		adds	r3, r3, #1
 632 0054 FB71     		strb	r3, [r7, #7]
 633              	.L27:
 719:Generated_Source\PSoC5/cyfitter_cfg.c **** 		{
 634              		.loc 1 719 0 is_stmt 0 discriminator 1
 635 0056 FB79     		ldrb	r3, [r7, #7]	@ zero_extendqisi2
 636 0058 062B     		cmp	r3, #6
 637 005a E8D9     		bls	.L28
 723:Generated_Source\PSoC5/cyfitter_cfg.c **** 		}
ARM GAS  C:\Users\barto\AppData\Local\Temp\ccB6Tk3A.s 			page 25


 724:Generated_Source\PSoC5/cyfitter_cfg.c **** 
 725:Generated_Source\PSoC5/cyfitter_cfg.c **** 		cfg_write_bytes32(cy_cfg_addr_table, cy_cfg_data_table);
 638              		.loc 1 725 0 is_stmt 1
 639 005c 2A49     		ldr	r1, .L29+12
 640 005e 2B48     		ldr	r0, .L29+16
 641 0060 FFF7FEFF 		bl	cfg_write_bytes32
 726:Generated_Source\PSoC5/cyfitter_cfg.c **** 
 727:Generated_Source\PSoC5/cyfitter_cfg.c **** 		/* Enable digital routing */
 728:Generated_Source\PSoC5/cyfitter_cfg.c **** 		CY_SET_XTND_REG8((void CYFAR *)CYREG_BCTL0_BANK_CTL, CY_GET_XTND_REG8((void CYFAR *)CYREG_BCTL0_B
 642              		.loc 1 728 0
 643 0064 2A4A     		ldr	r2, .L29+20
 644 0066 2A4B     		ldr	r3, .L29+20
 645 0068 1B78     		ldrb	r3, [r3]
 646 006a DBB2     		uxtb	r3, r3
 647 006c 43F00203 		orr	r3, r3, #2
 648 0070 DBB2     		uxtb	r3, r3
 649 0072 1370     		strb	r3, [r2]
 729:Generated_Source\PSoC5/cyfitter_cfg.c **** 		CY_SET_XTND_REG8((void CYFAR *)CYREG_BCTL1_BANK_CTL, CY_GET_XTND_REG8((void CYFAR *)CYREG_BCTL1_B
 650              		.loc 1 729 0
 651 0074 274A     		ldr	r2, .L29+24
 652 0076 274B     		ldr	r3, .L29+24
 653 0078 1B78     		ldrb	r3, [r3]
 654 007a DBB2     		uxtb	r3, r3
 655 007c 43F00203 		orr	r3, r3, #2
 656 0080 DBB2     		uxtb	r3, r3
 657 0082 1370     		strb	r3, [r2]
 730:Generated_Source\PSoC5/cyfitter_cfg.c **** 
 731:Generated_Source\PSoC5/cyfitter_cfg.c **** 		/* Enable UDB array */
 732:Generated_Source\PSoC5/cyfitter_cfg.c **** 		CY_SET_XTND_REG8((void CYFAR *)CYREG_PM_ACT_CFG0, CY_GET_XTND_REG8((void CYFAR *)CYREG_PM_ACT_CFG
 658              		.loc 1 732 0
 659 0084 244A     		ldr	r2, .L29+28
 660 0086 244B     		ldr	r3, .L29+28
 661 0088 1B78     		ldrb	r3, [r3]
 662 008a DBB2     		uxtb	r3, r3
 663 008c 43F04003 		orr	r3, r3, #64
 664 0090 DBB2     		uxtb	r3, r3
 665 0092 1370     		strb	r3, [r2]
 733:Generated_Source\PSoC5/cyfitter_cfg.c **** 		CY_SET_XTND_REG8((void CYFAR *)CYREG_PM_AVAIL_CR2, CY_GET_XTND_REG8((void CYFAR *)CYREG_PM_AVAIL_
 666              		.loc 1 733 0
 667 0094 214A     		ldr	r2, .L29+32
 668 0096 214B     		ldr	r3, .L29+32
 669 0098 1B78     		ldrb	r3, [r3]
 670 009a DBB2     		uxtb	r3, r3
 671 009c 43F01003 		orr	r3, r3, #16
 672 00a0 DBB2     		uxtb	r3, r3
 673 00a2 1370     		strb	r3, [r2]
 674              	.LBE3:
 734:Generated_Source\PSoC5/cyfitter_cfg.c **** 	}
 735:Generated_Source\PSoC5/cyfitter_cfg.c **** 
 736:Generated_Source\PSoC5/cyfitter_cfg.c **** 
 737:Generated_Source\PSoC5/cyfitter_cfg.c **** 	/* Perform second pass device configuration. These items must be configured in specific order afte
 738:Generated_Source\PSoC5/cyfitter_cfg.c **** 	CYCONFIGCPYCODE((void CYFAR *)(CYREG_PRT0_DM0), (const void CYCODE *)(BS_IOPINS0_0_VAL), 8u);
 675              		.loc 1 738 0
 676 00a4 0822     		movs	r2, #8
 677 00a6 1E49     		ldr	r1, .L29+36
 678 00a8 1E48     		ldr	r0, .L29+40
 679 00aa FFF7FEFF 		bl	CYCONFIGCPYCODE
ARM GAS  C:\Users\barto\AppData\Local\Temp\ccB6Tk3A.s 			page 26


 739:Generated_Source\PSoC5/cyfitter_cfg.c **** 	CYCONFIGCPYCODE((void CYFAR *)(CYREG_PRT12_DR), (const void CYCODE *)(BS_IOPINS0_7_VAL), 10u);
 680              		.loc 1 739 0
 681 00ae 0A22     		movs	r2, #10
 682 00b0 1D49     		ldr	r1, .L29+44
 683 00b2 1E48     		ldr	r0, .L29+48
 684 00b4 FFF7FEFF 		bl	CYCONFIGCPYCODE
 740:Generated_Source\PSoC5/cyfitter_cfg.c **** 	CYCONFIGCPYCODE((void CYFAR *)(CYREG_PRT15_DR), (const void CYCODE *)(BS_IOPINS0_8_VAL), 10u);
 685              		.loc 1 740 0
 686 00b8 0A22     		movs	r2, #10
 687 00ba 1D49     		ldr	r1, .L29+52
 688 00bc 1D48     		ldr	r0, .L29+56
 689 00be FFF7FEFF 		bl	CYCONFIGCPYCODE
 741:Generated_Source\PSoC5/cyfitter_cfg.c **** 	CYCONFIGCPYCODE((void CYFAR *)(CYREG_PRT1_DM0), (const void CYCODE *)(BS_IOPINS0_1_VAL), 8u);
 690              		.loc 1 741 0
 691 00c2 0822     		movs	r2, #8
 692 00c4 1C49     		ldr	r1, .L29+60
 693 00c6 1D48     		ldr	r0, .L29+64
 694 00c8 FFF7FEFF 		bl	CYCONFIGCPYCODE
 742:Generated_Source\PSoC5/cyfitter_cfg.c **** 	CYCONFIGCPYCODE((void CYFAR *)(CYREG_PRT2_DM0), (const void CYCODE *)(BS_IOPINS0_2_VAL), 8u);
 695              		.loc 1 742 0
 696 00cc 0822     		movs	r2, #8
 697 00ce 1C49     		ldr	r1, .L29+68
 698 00d0 1C48     		ldr	r0, .L29+72
 699 00d2 FFF7FEFF 		bl	CYCONFIGCPYCODE
 743:Generated_Source\PSoC5/cyfitter_cfg.c **** 	/* Switch Boost to the precision bandgap reference from its internal reference */
 744:Generated_Source\PSoC5/cyfitter_cfg.c **** 	CY_SET_REG8((void CYXDATA *)CYREG_BOOST_CR2, (CY_GET_REG8((void CYXDATA *)CYREG_BOOST_CR2) | 0x08u
 700              		.loc 1 744 0
 701 00d6 1C4A     		ldr	r2, .L29+76
 702 00d8 1B4B     		ldr	r3, .L29+76
 703 00da 1B78     		ldrb	r3, [r3]
 704 00dc DBB2     		uxtb	r3, r3
 705 00de 43F00803 		orr	r3, r3, #8
 706 00e2 DBB2     		uxtb	r3, r3
 707 00e4 1370     		strb	r3, [r2]
 745:Generated_Source\PSoC5/cyfitter_cfg.c **** 
 746:Generated_Source\PSoC5/cyfitter_cfg.c **** 	/* Perform basic analog initialization to defaults */
 747:Generated_Source\PSoC5/cyfitter_cfg.c **** 	AnalogSetDefault();
 708              		.loc 1 747 0
 709 00e6 FFF7FEFF 		bl	AnalogSetDefault
 748:Generated_Source\PSoC5/cyfitter_cfg.c **** 
 749:Generated_Source\PSoC5/cyfitter_cfg.c **** 	/* Configure alternate active mode */
 750:Generated_Source\PSoC5/cyfitter_cfg.c **** 	CYCONFIGCPY((void CYFAR *)CYDEV_PM_STBY_BASE, (const void CYFAR *)CYDEV_PM_ACT_BASE, 14u);
 710              		.loc 1 750 0
 711 00ea 0E22     		movs	r2, #14
 712 00ec 0A49     		ldr	r1, .L29+28
 713 00ee 1748     		ldr	r0, .L29+80
 714 00f0 FFF7FEFF 		bl	CYCONFIGCPY
 751:Generated_Source\PSoC5/cyfitter_cfg.c **** }
 715              		.loc 1 751 0
 716 00f4 00BF     		nop
 717 00f6 0837     		adds	r7, r7, #8
 718              		.cfi_def_cfa_offset 8
 719 00f8 BD46     		mov	sp, r7
 720              		.cfi_def_cfa_register 13
 721              		@ sp needed
 722 00fa 80BD     		pop	{r7, pc}
 723              	.L30:
ARM GAS  C:\Users\barto\AppData\Local\Temp\ccB6Tk3A.s 			page 27


 724              		.align	2
 725              	.L29:
 726 00fc 00480040 		.word	1073760256
 727 0100 E8460040 		.word	1073759976
 728 0104 04000000 		.word	cfg_memset_list.5051
 729 0108 A4000000 		.word	cy_cfg_data_table.5046
 730 010c 30000000 		.word	cy_cfg_addr_table.5045
 731 0110 03500140 		.word	1073827843
 732 0114 13500140 		.word	1073827859
 733 0118 A0430040 		.word	1073759136
 734 011c C2430040 		.word	1073759170
 735 0120 D0020000 		.word	BS_IOPINS0_0_VAL.5040
 736 0124 02510040 		.word	1073762562
 737 0128 D8020000 		.word	BS_IOPINS0_7_VAL.5041
 738 012c C0510040 		.word	1073762752
 739 0130 E4020000 		.word	BS_IOPINS0_8_VAL.5042
 740 0134 F0510040 		.word	1073762800
 741 0138 F0020000 		.word	BS_IOPINS0_1_VAL.5043
 742 013c 12510040 		.word	1073762578
 743 0140 F8020000 		.word	BS_IOPINS0_2_VAL.5044
 744 0144 22510040 		.word	1073762594
 745 0148 22430040 		.word	1073759010
 746 014c B0430040 		.word	1073759152
 747              		.cfi_endproc
 748              	.LFE8:
 749              		.size	cyfitter_cfg, .-cyfitter_cfg
 750              		.section	.rodata
 751              		.align	2
 752              		.type	BS_CYDEV_CLKDIST_ACFG0_CFG0_VAL.5021, %object
 753              		.size	BS_CYDEV_CLKDIST_ACFG0_CFG0_VAL.5021, 4
 754              	BS_CYDEV_CLKDIST_ACFG0_CFG0_VAL.5021:
 755 0000 05       		.byte	5
 756 0001 00       		.byte	0
 757 0002 14       		.byte	20
 758 0003 01       		.byte	1
 759              		.align	2
 760              		.type	cfg_memset_list.5051, %object
 761              		.size	cfg_memset_list.5051, 42
 762              	cfg_memset_list.5051:
 763 0004 004F0040 		.word	1073762048
 764 0008 1800     		.short	24
 765 000a 30510040 		.4byte	1073762608
 766 000e 4000     		.short	64
 767 0010 00000140 		.word	1073807360
 768 0014 0010     		.short	4096
 769 0016 00140140 		.4byte	1073812480
 770 001a 0008     		.short	2048
 771 001c 00400140 		.word	1073823744
 772 0020 000A     		.short	2560
 773 0022 004C0140 		.4byte	1073826816
 774 0026 0002     		.short	512
 775 0028 00500140 		.word	1073827840
 776 002c 2000     		.short	32
 777 002e 0000     		.align	2
 778              		.type	cy_cfg_addr_table.5045, %object
 779              		.size	cy_cfg_addr_table.5045, 116
 780              	cy_cfg_addr_table.5045:
ARM GAS  C:\Users\barto\AppData\Local\Temp\ccB6Tk3A.s 			page 28


 781 0030 01450040 		.word	1073759489
 782 0034 034F0040 		.word	1073762051
 783 0038 05520040 		.word	1073762821
 784 003c 03640040 		.word	1073767427
 785 0040 04020140 		.word	1073807876
 786 0044 06030140 		.word	1073808134
 787 0048 1B040140 		.word	1073808411
 788 004c 23050140 		.word	1073808675
 789 0050 1D060140 		.word	1073808925
 790 0054 2A070140 		.word	1073809194
 791 0058 03090140 		.word	1073809667
 792 005c 030B0140 		.word	1073810179
 793 0060 010D0140 		.word	1073810689
 794 0064 02150140 		.word	1073812738
 795 0068 09170140 		.word	1073813257
 796 006c 03190140 		.word	1073813763
 797 0070 06400140 		.word	1073823750
 798 0074 0E410140 		.word	1073824014
 799 0078 0D420140 		.word	1073824269
 800 007c 0D430140 		.word	1073824525
 801 0080 02440140 		.word	1073824770
 802 0084 07450140 		.word	1073825031
 803 0088 0B460140 		.word	1073825291
 804 008c 06470140 		.word	1073825542
 805 0090 0D480140 		.word	1073825805
 806 0094 04490140 		.word	1073826052
 807 0098 084C0140 		.word	1073826824
 808 009c 02500140 		.word	1073827842
 809 00a0 02510140 		.word	1073828098
 810              		.align	2
 811              		.type	cy_cfg_data_table.5046, %object
 812              		.size	cy_cfg_data_table.5046, 554
 813              	cy_cfg_data_table.5046:
 814 00a4 7E       		.byte	126
 815 00a5 02       		.byte	2
 816 00a6 0A       		.byte	10
 817 00a7 4B       		.byte	75
 818 00a8 0D       		.byte	13
 819 00a9 80       		.byte	-128
 820 00aa 16       		.byte	22
 821 00ab 4B       		.byte	75
 822 00ac 00       		.byte	0
 823 00ad 46       		.byte	70
 824 00ae 01       		.byte	1
 825 00af 0A       		.byte	10
 826 00b0 10       		.byte	16
 827 00b1 12       		.byte	18
 828 00b2 11       		.byte	17
 829 00b3 30       		.byte	48
 830 00b4 7C       		.byte	124
 831 00b5 40       		.byte	64
 832 00b6 84       		.byte	-124
 833 00b7 07       		.byte	7
 834 00b8 86       		.byte	-122
 835 00b9 0F       		.byte	15
 836 00ba 87       		.byte	-121
 837 00bb 01       		.byte	1
ARM GAS  C:\Users\barto\AppData\Local\Temp\ccB6Tk3A.s 			page 29


 838 00bc B8       		.byte	-72
 839 00bd 80       		.byte	-128
 840 00be BE       		.byte	-66
 841 00bf 40       		.byte	64
 842 00c0 D8       		.byte	-40
 843 00c1 04       		.byte	4
 844 00c2 DF       		.byte	-33
 845 00c3 01       		.byte	1
 846 00c4 1B       		.byte	27
 847 00c5 80       		.byte	-128
 848 00c6 8B       		.byte	-117
 849 00c7 80       		.byte	-128
 850 00c8 9A       		.byte	-102
 851 00c9 01       		.byte	1
 852 00ca AA       		.byte	-86
 853 00cb 01       		.byte	1
 854 00cc E6       		.byte	-26
 855 00cd 20       		.byte	32
 856 00ce EA       		.byte	-22
 857 00cf 04       		.byte	4
 858 00d0 0C       		.byte	12
 859 00d1 02       		.byte	2
 860 00d2 1A       		.byte	26
 861 00d3 01       		.byte	1
 862 00d4 1C       		.byte	28
 863 00d5 08       		.byte	8
 864 00d6 1F       		.byte	31
 865 00d7 01       		.byte	1
 866 00d8 28       		.byte	40
 867 00d9 04       		.byte	4
 868 00da 30       		.byte	48
 869 00db 08       		.byte	8
 870 00dc 32       		.byte	50
 871 00dd 04       		.byte	4
 872 00de 34       		.byte	52
 873 00df 02       		.byte	2
 874 00e0 36       		.byte	54
 875 00e1 01       		.byte	1
 876 00e2 37       		.byte	55
 877 00e3 01       		.byte	1
 878 00e4 3E       		.byte	62
 879 00e5 15       		.byte	21
 880 00e6 56       		.byte	86
 881 00e7 04       		.byte	4
 882 00e8 58       		.byte	88
 883 00e9 04       		.byte	4
 884 00ea 59       		.byte	89
 885 00eb 04       		.byte	4
 886 00ec 5B       		.byte	91
 887 00ed 04       		.byte	4
 888 00ee 5C       		.byte	92
 889 00ef 22       		.byte	34
 890 00f0 5F       		.byte	95
 891 00f1 01       		.byte	1
 892 00f2 AD       		.byte	-83
 893 00f3 01       		.byte	1
 894 00f4 B7       		.byte	-73
ARM GAS  C:\Users\barto\AppData\Local\Temp\ccB6Tk3A.s 			page 30


 895 00f5 01       		.byte	1
 896 00f6 BF       		.byte	-65
 897 00f7 40       		.byte	64
 898 00f8 D2       		.byte	-46
 899 00f9 0F       		.byte	15
 900 00fa D3       		.byte	-45
 901 00fb 0F       		.byte	15
 902 00fc D6       		.byte	-42
 903 00fd 10       		.byte	16
 904 00fe D9       		.byte	-39
 905 00ff 04       		.byte	4
 906 0100 DB       		.byte	-37
 907 0101 04       		.byte	4
 908 0102 DD       		.byte	-35
 909 0103 10       		.byte	16
 910 0104 DF       		.byte	-33
 911 0105 01       		.byte	1
 912 0106 01       		.byte	1
 913 0107 80       		.byte	-128
 914 0108 08       		.byte	8
 915 0109 20       		.byte	32
 916 010a 09       		.byte	9
 917 010b 80       		.byte	-128
 918 010c 12       		.byte	18
 919 010d 08       		.byte	8
 920 010e 19       		.byte	25
 921 010f 95       		.byte	-107
 922 0110 21       		.byte	33
 923 0111 80       		.byte	-128
 924 0112 24       		.byte	36
 925 0113 02       		.byte	2
 926 0114 2D       		.byte	45
 927 0115 40       		.byte	64
 928 0116 30       		.byte	48
 929 0117 80       		.byte	-128
 930 0118 59       		.byte	89
 931 0119 15       		.byte	21
 932 011a 5A       		.byte	90
 933 011b 40       		.byte	64
 934 011c 63       		.byte	99
 935 011d 40       		.byte	64
 936 011e 68       		.byte	104
 937 011f 05       		.byte	5
 938 0120 6B       		.byte	107
 939 0121 90       		.byte	-112
 940 0122 6C       		.byte	108
 941 0123 04       		.byte	4
 942 0124 6D       		.byte	109
 943 0125 02       		.byte	2
 944 0126 6F       		.byte	111
 945 0127 21       		.byte	33
 946 0128 87       		.byte	-121
 947 0129 60       		.byte	96
 948 012a 88       		.byte	-120
 949 012b 04       		.byte	4
 950 012c 8B       		.byte	-117
 951 012d 80       		.byte	-128
ARM GAS  C:\Users\barto\AppData\Local\Temp\ccB6Tk3A.s 			page 31


 952 012e 8C       		.byte	-116
 953 012f 05       		.byte	5
 954 0130 9A       		.byte	-102
 955 0131 01       		.byte	1
 956 0132 9F       		.byte	-97
 957 0133 90       		.byte	-112
 958 0134 A3       		.byte	-93
 959 0135 80       		.byte	-128
 960 0136 AB       		.byte	-85
 961 0137 10       		.byte	16
 962 0138 C0       		.byte	-64
 963 0139 01       		.byte	1
 964 013a C2       		.byte	-62
 965 013b 03       		.byte	3
 966 013c C4       		.byte	-60
 967 013d 02       		.byte	2
 968 013e CA       		.byte	-54
 969 013f 10       		.byte	16
 970 0140 CC       		.byte	-52
 971 0141 08       		.byte	8
 972 0142 D6       		.byte	-42
 973 0143 0F       		.byte	15
 974 0144 D8       		.byte	-40
 975 0145 01       		.byte	1
 976 0146 E2       		.byte	-30
 977 0147 C0       		.byte	-64
 978 0148 E4       		.byte	-28
 979 0149 08       		.byte	8
 980 014a E8       		.byte	-24
 981 014b 04       		.byte	4
 982 014c 00       		.byte	0
 983 014d 02       		.byte	2
 984 014e 28       		.byte	40
 985 014f 04       		.byte	4
 986 0150 29       		.byte	41
 987 0151 01       		.byte	1
 988 0152 2C       		.byte	44
 989 0153 01       		.byte	1
 990 0154 30       		.byte	48
 991 0155 04       		.byte	4
 992 0156 33       		.byte	51
 993 0157 01       		.byte	1
 994 0158 34       		.byte	52
 995 0159 01       		.byte	1
 996 015a 36       		.byte	54
 997 015b 02       		.byte	2
 998 015c 3E       		.byte	62
 999 015d 51       		.byte	81
 1000 015e 3F       		.byte	63
 1001 015f 04       		.byte	4
 1002 0160 56       		.byte	86
 1003 0161 04       		.byte	4
 1004 0162 58       		.byte	88
 1005 0163 04       		.byte	4
 1006 0164 59       		.byte	89
 1007 0165 04       		.byte	4
 1008 0166 5B       		.byte	91
ARM GAS  C:\Users\barto\AppData\Local\Temp\ccB6Tk3A.s 			page 32


 1009 0167 04       		.byte	4
 1010 0168 5F       		.byte	95
 1011 0169 01       		.byte	1
 1012 016a 8F       		.byte	-113
 1013 016b 02       		.byte	2
 1014 016c 91       		.byte	-111
 1015 016d 01       		.byte	1
 1016 016e 97       		.byte	-105
 1017 016f 08       		.byte	8
 1018 0170 A1       		.byte	-95
 1019 0171 04       		.byte	4
 1020 0172 B1       		.byte	-79
 1021 0173 02       		.byte	2
 1022 0174 B3       		.byte	-77
 1023 0175 08       		.byte	8
 1024 0176 B5       		.byte	-75
 1025 0177 01       		.byte	1
 1026 0178 B7       		.byte	-73
 1027 0179 04       		.byte	4
 1028 017a BF       		.byte	-65
 1029 017b 50       		.byte	80
 1030 017c D6       		.byte	-42
 1031 017d 04       		.byte	4
 1032 017e D9       		.byte	-39
 1033 017f 04       		.byte	4
 1034 0180 DB       		.byte	-37
 1035 0181 04       		.byte	4
 1036 0182 DC       		.byte	-36
 1037 0183 20       		.byte	32
 1038 0184 DF       		.byte	-33
 1039 0185 01       		.byte	1
 1040 0186 06       		.byte	6
 1041 0187 80       		.byte	-128
 1042 0188 16       		.byte	22
 1043 0189 08       		.byte	8
 1044 018a 17       		.byte	23
 1045 018b 80       		.byte	-128
 1046 018c 1E       		.byte	30
 1047 018d 8A       		.byte	-118
 1048 018e 21       		.byte	33
 1049 018f 22       		.byte	34
 1050 0190 22       		.byte	34
 1051 0191 48       		.byte	72
 1052 0192 27       		.byte	39
 1053 0193 20       		.byte	32
 1054 0194 2A       		.byte	42
 1055 0195 01       		.byte	1
 1056 0196 2F       		.byte	47
 1057 0197 04       		.byte	4
 1058 0198 30       		.byte	48
 1059 0199 08       		.byte	8
 1060 019a 31       		.byte	49
 1061 019b 02       		.byte	2
 1062 019c 38       		.byte	56
 1063 019d 80       		.byte	-128
 1064 019e 5A       		.byte	90
 1065 019f 80       		.byte	-128
ARM GAS  C:\Users\barto\AppData\Local\Temp\ccB6Tk3A.s 			page 33


 1066 01a0 5E       		.byte	94
 1067 01a1 8A       		.byte	-118
 1068 01a2 5F       		.byte	95
 1069 01a3 20       		.byte	32
 1070 01a4 60       		.byte	96
 1071 01a5 40       		.byte	64
 1072 01a6 67       		.byte	103
 1073 01a7 80       		.byte	-128
 1074 01a8 6D       		.byte	109
 1075 01a9 40       		.byte	64
 1076 01aa 84       		.byte	-124
 1077 01ab 08       		.byte	8
 1078 01ac 87       		.byte	-121
 1079 01ad 40       		.byte	64
 1080 01ae 90       		.byte	-112
 1081 01af 80       		.byte	-128
 1082 01b0 95       		.byte	-107
 1083 01b1 40       		.byte	64
 1084 01b2 9A       		.byte	-102
 1085 01b3 01       		.byte	1
 1086 01b4 A4       		.byte	-92
 1087 01b5 80       		.byte	-128
 1088 01b6 A5       		.byte	-91
 1089 01b7 20       		.byte	32
 1090 01b8 A6       		.byte	-90
 1091 01b9 08       		.byte	8
 1092 01ba A8       		.byte	-88
 1093 01bb 60       		.byte	96
 1094 01bc A9       		.byte	-87
 1095 01bd 01       		.byte	1
 1096 01be AC       		.byte	-84
 1097 01bf 01       		.byte	1
 1098 01c0 AF       		.byte	-81
 1099 01c1 01       		.byte	1
 1100 01c2 B5       		.byte	-75
 1101 01c3 20       		.byte	32
 1102 01c4 B6       		.byte	-74
 1103 01c5 40       		.byte	64
 1104 01c6 C0       		.byte	-64
 1105 01c7 10       		.byte	16
 1106 01c8 C4       		.byte	-60
 1107 01c9 C0       		.byte	-64
 1108 01ca CA       		.byte	-54
 1109 01cb 21       		.byte	33
 1110 01cc CC       		.byte	-52
 1111 01cd 03       		.byte	3
 1112 01ce CE       		.byte	-50
 1113 01cf 08       		.byte	8
 1114 01d0 D6       		.byte	-42
 1115 01d1 F8       		.byte	-8
 1116 01d2 D8       		.byte	-40
 1117 01d3 81       		.byte	-127
 1118 01d4 E2       		.byte	-30
 1119 01d5 02       		.byte	2
 1120 01d6 EA       		.byte	-22
 1121 01d7 01       		.byte	1
 1122 01d8 EE       		.byte	-18
ARM GAS  C:\Users\barto\AppData\Local\Temp\ccB6Tk3A.s 			page 34


 1123 01d9 04       		.byte	4
 1124 01da E2       		.byte	-30
 1125 01db 02       		.byte	2
 1126 01dc EA       		.byte	-22
 1127 01dd 01       		.byte	1
 1128 01de EE       		.byte	-18
 1129 01df 04       		.byte	4
 1130 01e0 E0       		.byte	-32
 1131 01e1 30       		.byte	48
 1132 01e2 E4       		.byte	-28
 1133 01e3 08       		.byte	8
 1134 01e4 E8       		.byte	-24
 1135 01e5 04       		.byte	4
 1136 01e6 EA       		.byte	-22
 1137 01e7 04       		.byte	4
 1138 01e8 AA       		.byte	-86
 1139 01e9 88       		.byte	-120
 1140 01ea AF       		.byte	-81
 1141 01eb 04       		.byte	4
 1142 01ec 80       		.byte	-128
 1143 01ed 80       		.byte	-128
 1144 01ee 97       		.byte	-105
 1145 01ef 08       		.byte	8
 1146 01f0 9E       		.byte	-98
 1147 01f1 88       		.byte	-120
 1148 01f2 A4       		.byte	-92
 1149 01f3 80       		.byte	-128
 1150 01f4 A8       		.byte	-88
 1151 01f5 40       		.byte	64
 1152 01f6 AB       		.byte	-85
 1153 01f7 80       		.byte	-128
 1154 01f8 E2       		.byte	-30
 1155 01f9 04       		.byte	4
 1156 01fa EA       		.byte	-22
 1157 01fb 02       		.byte	2
 1158 01fc EE       		.byte	-18
 1159 01fd 0A       		.byte	10
 1160 01fe E2       		.byte	-30
 1161 01ff 04       		.byte	4
 1162 0200 EA       		.byte	-22
 1163 0201 02       		.byte	2
 1164 0202 EE       		.byte	-18
 1165 0203 0A       		.byte	10
 1166 0204 31       		.byte	49
 1167 0205 02       		.byte	2
 1168 0206 33       		.byte	51
 1169 0207 80       		.byte	-128
 1170 0208 36       		.byte	54
 1171 0209 48       		.byte	72
 1172 020a 3B       		.byte	59
 1173 020b 20       		.byte	32
 1174 020c CC       		.byte	-52
 1175 020d F0       		.byte	-16
 1176 020e CE       		.byte	-50
 1177 020f 10       		.byte	16
 1178 0210 32       		.byte	50
 1179 0211 10       		.byte	16
ARM GAS  C:\Users\barto\AppData\Local\Temp\ccB6Tk3A.s 			page 35


 1180 0212 51       		.byte	81
 1181 0213 08       		.byte	8
 1182 0214 53       		.byte	83
 1183 0215 02       		.byte	2
 1184 0216 57       		.byte	87
 1185 0217 21       		.byte	33
 1186 0218 5A       		.byte	90
 1187 0219 04       		.byte	4
 1188 021a 5C       		.byte	92
 1189 021b 02       		.byte	2
 1190 021c 8A       		.byte	-118
 1191 021d 04       		.byte	4
 1192 021e 97       		.byte	-105
 1193 021f 20       		.byte	32
 1194 0220 A5       		.byte	-91
 1195 0221 02       		.byte	2
 1196 0222 A6       		.byte	-90
 1197 0223 48       		.byte	72
 1198 0224 A7       		.byte	-89
 1199 0225 80       		.byte	-128
 1200 0226 CC       		.byte	-52
 1201 0227 10       		.byte	16
 1202 0228 D4       		.byte	-44
 1203 0229 E0       		.byte	-32
 1204 022a D6       		.byte	-42
 1205 022b E0       		.byte	-32
 1206 022c 58       		.byte	88
 1207 022d 08       		.byte	8
 1208 022e 5C       		.byte	92
 1209 022f 08       		.byte	8
 1210 0230 87       		.byte	-121
 1211 0231 10       		.byte	16
 1212 0232 88       		.byte	-120
 1213 0233 08       		.byte	8
 1214 0234 8F       		.byte	-113
 1215 0235 20       		.byte	32
 1216 0236 96       		.byte	-106
 1217 0237 20       		.byte	32
 1218 0238 97       		.byte	-105
 1219 0239 20       		.byte	32
 1220 023a 9C       		.byte	-100
 1221 023b 02       		.byte	2
 1222 023c A5       		.byte	-91
 1223 023d 0A       		.byte	10
 1224 023e A6       		.byte	-90
 1225 023f 48       		.byte	72
 1226 0240 A7       		.byte	-89
 1227 0241 A3       		.byte	-93
 1228 0242 D6       		.byte	-42
 1229 0243 C0       		.byte	-64
 1230 0244 E6       		.byte	-26
 1231 0245 40       		.byte	64
 1232 0246 1B       		.byte	27
 1233 0247 02       		.byte	2
 1234 0248 86       		.byte	-122
 1235 0249 08       		.byte	8
 1236 024a 96       		.byte	-106
ARM GAS  C:\Users\barto\AppData\Local\Temp\ccB6Tk3A.s 			page 36


 1237 024b 20       		.byte	32
 1238 024c A5       		.byte	-91
 1239 024d 02       		.byte	2
 1240 024e A6       		.byte	-90
 1241 024f 48       		.byte	72
 1242 0250 A7       		.byte	-89
 1243 0251 82       		.byte	-126
 1244 0252 A8       		.byte	-88
 1245 0253 02       		.byte	2
 1246 0254 AD       		.byte	-83
 1247 0255 08       		.byte	8
 1248 0256 AF       		.byte	-81
 1249 0257 01       		.byte	1
 1250 0258 C6       		.byte	-58
 1251 0259 10       		.byte	16
 1252 025a E2       		.byte	-30
 1253 025b 10       		.byte	16
 1254 025c EA       		.byte	-22
 1255 025d 40       		.byte	64
 1256 025e EE       		.byte	-18
 1257 025f 90       		.byte	-112
 1258 0260 13       		.byte	19
 1259 0261 08       		.byte	8
 1260 0262 C4       		.byte	-60
 1261 0263 08       		.byte	8
 1262 0264 50       		.byte	80
 1263 0265 04       		.byte	4
 1264 0266 54       		.byte	84
 1265 0267 04       		.byte	4
 1266 0268 62       		.byte	98
 1267 0269 08       		.byte	8
 1268 026a 64       		.byte	100
 1269 026b 08       		.byte	8
 1270 026c AB       		.byte	-85
 1271 026d 08       		.byte	8
 1272 026e D4       		.byte	-44
 1273 026f 06       		.byte	6
 1274 0270 D8       		.byte	-40
 1275 0271 03       		.byte	3
 1276 0272 03       		.byte	3
 1277 0273 80       		.byte	-128
 1278 0274 07       		.byte	7
 1279 0275 20       		.byte	32
 1280 0276 84       		.byte	-124
 1281 0277 08       		.byte	8
 1282 0278 88       		.byte	-120
 1283 0279 04       		.byte	4
 1284 027a 8C       		.byte	-116
 1285 027b 04       		.byte	4
 1286 027c 94       		.byte	-108
 1287 027d 08       		.byte	8
 1288 027e 9C       		.byte	-100
 1289 027f 08       		.byte	8
 1290 0280 A4       		.byte	-92
 1291 0281 04       		.byte	4
 1292 0282 AA       		.byte	-86
 1293 0283 08       		.byte	8
ARM GAS  C:\Users\barto\AppData\Local\Temp\ccB6Tk3A.s 			page 37


 1294 0284 C0       		.byte	-64
 1295 0285 0C       		.byte	12
 1296 0286 E0       		.byte	-32
 1297 0287 0C       		.byte	12
 1298 0288 08       		.byte	8
 1299 0289 08       		.byte	8
 1300 028a 09       		.byte	9
 1301 028b 40       		.byte	64
 1302 028c 0F       		.byte	15
 1303 028d 40       		.byte	64
 1304 028e 86       		.byte	-122
 1305 028f 04       		.byte	4
 1306 0290 AB       		.byte	-85
 1307 0291 A0       		.byte	-96
 1308 0292 C2       		.byte	-62
 1309 0293 0E       		.byte	14
 1310 0294 02       		.byte	2
 1311 0295 04       		.byte	4
 1312 0296 03       		.byte	3
 1313 0297 40       		.byte	64
 1314 0298 05       		.byte	5
 1315 0299 02       		.byte	2
 1316 029a 07       		.byte	7
 1317 029b 04       		.byte	4
 1318 029c 9E       		.byte	-98
 1319 029d 04       		.byte	4
 1320 029e AA       		.byte	-86
 1321 029f 14       		.byte	20
 1322 02a0 AD       		.byte	-83
 1323 02a1 02       		.byte	2
 1324 02a2 AE       		.byte	-82
 1325 02a3 40       		.byte	64
 1326 02a4 AF       		.byte	-81
 1327 02a5 80       		.byte	-128
 1328 02a6 C0       		.byte	-64
 1329 02a7 F0       		.byte	-16
 1330 02a8 E8       		.byte	-24
 1331 02a9 80       		.byte	-128
 1332 02aa EA       		.byte	-22
 1333 02ab 40       		.byte	64
 1334 02ac EE       		.byte	-18
 1335 02ad 70       		.byte	112
 1336 02ae AB       		.byte	-85
 1337 02af 44       		.byte	68
 1338 02b0 AD       		.byte	-83
 1339 02b1 02       		.byte	2
 1340 02b2 E8       		.byte	-24
 1341 02b3 80       		.byte	-128
 1342 02b4 EC       		.byte	-20
 1343 02b5 90       		.byte	-112
 1344 02b6 0A       		.byte	10
 1345 02b7 04       		.byte	4
 1346 02b8 0E       		.byte	14
 1347 02b9 40       		.byte	64
 1348 02ba 82       		.byte	-126
 1349 02bb 40       		.byte	64
 1350 02bc 96       		.byte	-106
ARM GAS  C:\Users\barto\AppData\Local\Temp\ccB6Tk3A.s 			page 38


 1351 02bd 04       		.byte	4
 1352 02be AC       		.byte	-84
 1353 02bf 08       		.byte	8
 1354 02c0 AD       		.byte	-83
 1355 02c1 40       		.byte	64
 1356 02c2 AF       		.byte	-81
 1357 02c3 40       		.byte	64
 1358 02c4 C2       		.byte	-62
 1359 02c5 06       		.byte	6
 1360 02c6 00       		.byte	0
 1361 02c7 06       		.byte	6
 1362 02c8 0A       		.byte	10
 1363 02c9 06       		.byte	6
 1364 02ca 00       		.byte	0
 1365 02cb EA       		.byte	-22
 1366 02cc 01       		.byte	1
 1367 02cd 0F       		.byte	15
 1368 02ce 0000     		.align	2
 1369              		.type	BS_IOPINS0_0_VAL.5040, %object
 1370              		.size	BS_IOPINS0_0_VAL.5040, 8
 1371              	BS_IOPINS0_0_VAL.5040:
 1372 02d0 00       		.byte	0
 1373 02d1 6F       		.byte	111
 1374 02d2 6F       		.byte	111
 1375 02d3 00       		.byte	0
 1376 02d4 6F       		.byte	111
 1377 02d5 00       		.byte	0
 1378 02d6 00       		.byte	0
 1379 02d7 00       		.byte	0
 1380              		.align	2
 1381              		.type	BS_IOPINS0_7_VAL.5041, %object
 1382              		.size	BS_IOPINS0_7_VAL.5041, 10
 1383              	BS_IOPINS0_7_VAL.5041:
 1384 02d8 10       		.byte	16
 1385 02d9 00       		.byte	0
 1386 02da 00       		.byte	0
 1387 02db 10       		.byte	16
 1388 02dc 00       		.byte	0
 1389 02dd 00       		.byte	0
 1390 02de 00       		.byte	0
 1391 02df 00       		.byte	0
 1392 02e0 00       		.byte	0
 1393 02e1 00       		.byte	0
 1394 02e2 0000     		.align	2
 1395              		.type	BS_IOPINS0_8_VAL.5042, %object
 1396              		.size	BS_IOPINS0_8_VAL.5042, 10
 1397              	BS_IOPINS0_8_VAL.5042:
 1398 02e4 7F       		.byte	127
 1399 02e5 00       		.byte	0
 1400 02e6 00       		.byte	0
 1401 02e7 3F       		.byte	63
 1402 02e8 00       		.byte	0
 1403 02e9 00       		.byte	0
 1404 02ea 00       		.byte	0
 1405 02eb 00       		.byte	0
 1406 02ec C0       		.byte	-64
 1407 02ed 00       		.byte	0
ARM GAS  C:\Users\barto\AppData\Local\Temp\ccB6Tk3A.s 			page 39


 1408 02ee 0000     		.align	2
 1409              		.type	BS_IOPINS0_1_VAL.5043, %object
 1410              		.size	BS_IOPINS0_1_VAL.5043, 8
 1411              	BS_IOPINS0_1_VAL.5043:
 1412 02f0 00       		.byte	0
 1413 02f1 6F       		.byte	111
 1414 02f2 0B       		.byte	11
 1415 02f3 00       		.byte	0
 1416 02f4 00       		.byte	0
 1417 02f5 00       		.byte	0
 1418 02f6 00       		.byte	0
 1419 02f7 00       		.byte	0
 1420              		.align	2
 1421              		.type	BS_IOPINS0_2_VAL.5044, %object
 1422              		.size	BS_IOPINS0_2_VAL.5044, 8
 1423              	BS_IOPINS0_2_VAL.5044:
 1424 02f8 00       		.byte	0
 1425 02f9 FF       		.byte	-1
 1426 02fa FF       		.byte	-1
 1427 02fb 00       		.byte	0
 1428 02fc 33       		.byte	51
 1429 02fd 00       		.byte	0
 1430 02fe 00       		.byte	0
 1431 02ff 00       		.byte	0
 1432              		.text
 1433              	.Letext0:
 1434              		.file 2 "c:\\program files (x86)\\cypress\\psoc creator\\4.2\\psoc creator\\import\\gnu\\arm\\5.4.
 1435              		.file 3 "Generated_Source\\PSoC5\\cytypes.h"