ARM GAS  C:\Users\barto\AppData\Local\Temp\ccXFYTGd.s 			page 1


   1              		.syntax unified
   2              		.cpu cortex-m3
   3              		.fpu softvfp
   4              		.eabi_attribute 20, 1
   5              		.eabi_attribute 21, 1
   6              		.eabi_attribute 23, 3
   7              		.eabi_attribute 24, 1
   8              		.eabi_attribute 25, 1
   9              		.eabi_attribute 26, 1
  10              		.eabi_attribute 30, 6
  11              		.eabi_attribute 34, 1
  12              		.eabi_attribute 18, 4
  13              		.thumb
  14              		.syntax unified
  15              		.file	"eeprom.c"
  16              		.text
  17              	.Ltext0:
  18              		.cfi_sections	.debug_frame
  19              		.section	.text.eeprom_get_char,"ax",%progbits
  20              		.align	2
  21              		.global	eeprom_get_char
  22              		.thumb
  23              		.thumb_func
  24              		.type	eeprom_get_char, %function
  25              	eeprom_get_char:
  26              	.LFB0:
  27              		.file 1 "eeprom.c"
   1:eeprom.c      **** // This file has been prepared for Doxygen automatic documentation generation.
   2:eeprom.c      **** /*! \file ********************************************************************
   3:eeprom.c      **** *
   4:eeprom.c      **** * Atmel Corporation
   5:eeprom.c      **** *
   6:eeprom.c      **** * \li File:               eeprom.c
   7:eeprom.c      **** * \li Compiler:           IAR EWAAVR 3.10c
   8:eeprom.c      **** * \li Support mail:       avr@atmel.com
   9:eeprom.c      **** *
  10:eeprom.c      **** * \li Supported devices:  All devices with split EEPROM erase/write
  11:eeprom.c      **** *                         capabilities can be used.
  12:eeprom.c      **** *                         The example is written for ATmega48.
  13:eeprom.c      **** *
  14:eeprom.c      **** * \li AppNote:            AVR103 - Using the EEPROM Programming Modes.
  15:eeprom.c      **** *
  16:eeprom.c      **** * \li Description:        Example on how to use the split EEPROM erase/write
  17:eeprom.c      **** *                         capabilities in e.g. ATmega48. All EEPROM
  18:eeprom.c      **** *                         programming modes are tested, i.e. Erase+Write,
  19:eeprom.c      **** *                         Erase-only and Write-only.
  20:eeprom.c      **** *
  21:eeprom.c      **** *                         $Revision: 1.6 $
  22:eeprom.c      **** *                         $Date: Friday, February 11, 2005 07:16:44 UTC $
  23:eeprom.c      **** 
  24:eeprom.c      **** Updated For PSoC/Grbl 2017-2018 Barton Dring buildlog.net
  25:eeprom.c      **** 
  26:eeprom.c      **** ****************************************************************************/
  27:eeprom.c      **** 
  28:eeprom.c      **** 
  29:eeprom.c      **** #include "EEPROM_PSoC.h"
  30:eeprom.c      **** 
ARM GAS  C:\Users\barto\AppData\Local\Temp\ccXFYTGd.s 			page 2


  31:eeprom.c      **** 
  32:eeprom.c      **** unsigned char eeprom_get_char( unsigned int addr )
  33:eeprom.c      **** {
  28              		.loc 1 33 0
  29              		.cfi_startproc
  30              		@ args = 0, pretend = 0, frame = 8
  31              		@ frame_needed = 1, uses_anonymous_args = 0
  32 0000 80B5     		push	{r7, lr}
  33              		.cfi_def_cfa_offset 8
  34              		.cfi_offset 7, -8
  35              		.cfi_offset 14, -4
  36 0002 82B0     		sub	sp, sp, #8
  37              		.cfi_def_cfa_offset 16
  38 0004 00AF     		add	r7, sp, #0
  39              		.cfi_def_cfa_register 7
  40 0006 7860     		str	r0, [r7, #4]
  34:eeprom.c      **** 	return EEPROM_PSoC_ReadByte(addr);
  41              		.loc 1 34 0
  42 0008 7B68     		ldr	r3, [r7, #4]
  43 000a 9BB2     		uxth	r3, r3
  44 000c 1846     		mov	r0, r3
  45 000e FFF7FEFF 		bl	EEPROM_PSoC_ReadByte
  46 0012 0346     		mov	r3, r0
  35:eeprom.c      **** }
  47              		.loc 1 35 0
  48 0014 1846     		mov	r0, r3
  49 0016 0837     		adds	r7, r7, #8
  50              		.cfi_def_cfa_offset 8
  51 0018 BD46     		mov	sp, r7
  52              		.cfi_def_cfa_register 13
  53              		@ sp needed
  54 001a 80BD     		pop	{r7, pc}
  55              		.cfi_endproc
  56              	.LFE0:
  57              		.size	eeprom_get_char, .-eeprom_get_char
  58              		.section	.text.eeprom_put_char,"ax",%progbits
  59              		.align	2
  60              		.global	eeprom_put_char
  61              		.thumb
  62              		.thumb_func
  63              		.type	eeprom_put_char, %function
  64              	eeprom_put_char:
  65              	.LFB1:
  36:eeprom.c      **** 
  37:eeprom.c      **** /*! \brief  Write byte to EEPROM.
  38:eeprom.c      ****  *
  39:eeprom.c      ****  *  This function writes one byte to a given EEPROM address.
  40:eeprom.c      ****  *  The differences between the existing byte and the new value is used
  41:eeprom.c      ****  *  to select the most efficient EEPROM programming mode.
  42:eeprom.c      ****  *
  43:eeprom.c      ****  *  \note  The CPU is halted for 2 clock cycles during EEPROM programming.
  44:eeprom.c      ****  *
  45:eeprom.c      ****  *  \note  When this function returns, the new EEPROM value is not available
  46:eeprom.c      ****  *         until the EEPROM programming time has passed. The EEPE bit in EECR
  47:eeprom.c      ****  *         should be polled to check whether the programming is finished.
  48:eeprom.c      ****  *
  49:eeprom.c      ****  *  \note  The EEPROM_GetChar() function checks the EEPE bit automatically.
ARM GAS  C:\Users\barto\AppData\Local\Temp\ccXFYTGd.s 			page 3


  50:eeprom.c      ****  *
  51:eeprom.c      ****  *  \param  addr  EEPROM address to write to.
  52:eeprom.c      ****  *  \param  new_value  New EEPROM value.
  53:eeprom.c      ****  */
  54:eeprom.c      **** void eeprom_put_char( unsigned int addr, unsigned char new_value )
  55:eeprom.c      **** {	
  66              		.loc 1 55 0
  67              		.cfi_startproc
  68              		@ args = 0, pretend = 0, frame = 8
  69              		@ frame_needed = 1, uses_anonymous_args = 0
  70 0000 80B5     		push	{r7, lr}
  71              		.cfi_def_cfa_offset 8
  72              		.cfi_offset 7, -8
  73              		.cfi_offset 14, -4
  74 0002 82B0     		sub	sp, sp, #8
  75              		.cfi_def_cfa_offset 16
  76 0004 00AF     		add	r7, sp, #0
  77              		.cfi_def_cfa_register 7
  78 0006 7860     		str	r0, [r7, #4]
  79 0008 0B46     		mov	r3, r1
  80 000a FB70     		strb	r3, [r7, #3]
  56:eeprom.c      ****     EEPROM_PSoC_WriteByte(new_value, addr);
  81              		.loc 1 56 0
  82 000c 7B68     		ldr	r3, [r7, #4]
  83 000e 9AB2     		uxth	r2, r3
  84 0010 FB78     		ldrb	r3, [r7, #3]	@ zero_extendqisi2
  85 0012 1146     		mov	r1, r2
  86 0014 1846     		mov	r0, r3
  87 0016 FFF7FEFF 		bl	EEPROM_PSoC_WriteByte
  57:eeprom.c      **** }
  88              		.loc 1 57 0
  89 001a 00BF     		nop
  90 001c 0837     		adds	r7, r7, #8
  91              		.cfi_def_cfa_offset 8
  92 001e BD46     		mov	sp, r7
  93              		.cfi_def_cfa_register 13
  94              		@ sp needed
  95 0020 80BD     		pop	{r7, pc}
  96              		.cfi_endproc
  97              	.LFE1:
  98              		.size	eeprom_put_char, .-eeprom_put_char
  99 0022 00BF     		.section	.text.memcpy_to_eeprom_with_checksum,"ax",%progbits
 100              		.align	2
 101              		.global	memcpy_to_eeprom_with_checksum
 102              		.thumb
 103              		.thumb_func
 104              		.type	memcpy_to_eeprom_with_checksum, %function
 105              	memcpy_to_eeprom_with_checksum:
 106              	.LFB2:
  58:eeprom.c      **** 
  59:eeprom.c      **** // Extensions added as part of Grbl 
  60:eeprom.c      **** 
  61:eeprom.c      **** 
  62:eeprom.c      **** void memcpy_to_eeprom_with_checksum(unsigned int destination, char *source, unsigned int size) {
 107              		.loc 1 62 0
 108              		.cfi_startproc
 109              		@ args = 0, pretend = 0, frame = 24
ARM GAS  C:\Users\barto\AppData\Local\Temp\ccXFYTGd.s 			page 4


 110              		@ frame_needed = 1, uses_anonymous_args = 0
 111 0000 80B5     		push	{r7, lr}
 112              		.cfi_def_cfa_offset 8
 113              		.cfi_offset 7, -8
 114              		.cfi_offset 14, -4
 115 0002 86B0     		sub	sp, sp, #24
 116              		.cfi_def_cfa_offset 32
 117 0004 00AF     		add	r7, sp, #0
 118              		.cfi_def_cfa_register 7
 119 0006 F860     		str	r0, [r7, #12]
 120 0008 B960     		str	r1, [r7, #8]
 121 000a 7A60     		str	r2, [r7, #4]
  63:eeprom.c      ****   unsigned char checksum = 0;
 122              		.loc 1 63 0
 123 000c 0023     		movs	r3, #0
 124 000e FB75     		strb	r3, [r7, #23]
  64:eeprom.c      ****   for(; size > 0; size--) { 
 125              		.loc 1 64 0
 126 0010 1EE0     		b	.L5
 127              	.L9:
  65:eeprom.c      ****     checksum = (checksum << 1) || (checksum >> 7);
 128              		.loc 1 65 0
 129 0012 FB7D     		ldrb	r3, [r7, #23]	@ zero_extendqisi2
 130 0014 5B00     		lsls	r3, r3, #1
 131 0016 002B     		cmp	r3, #0
 132 0018 03D1     		bne	.L6
 133              		.loc 1 65 0 is_stmt 0 discriminator 2
 134 001a 97F91730 		ldrsb	r3, [r7, #23]
 135 001e 002B     		cmp	r3, #0
 136 0020 01DA     		bge	.L7
 137              	.L6:
 138              		.loc 1 65 0 discriminator 3
 139 0022 0123     		movs	r3, #1
 140 0024 00E0     		b	.L8
 141              	.L7:
 142              		.loc 1 65 0 discriminator 4
 143 0026 0023     		movs	r3, #0
 144              	.L8:
 145              		.loc 1 65 0 discriminator 6
 146 0028 FB75     		strb	r3, [r7, #23]
  66:eeprom.c      ****     checksum += *source;
 147              		.loc 1 66 0 is_stmt 1 discriminator 6
 148 002a BB68     		ldr	r3, [r7, #8]
 149 002c 1A78     		ldrb	r2, [r3]	@ zero_extendqisi2
 150 002e FB7D     		ldrb	r3, [r7, #23]
 151 0030 1344     		add	r3, r3, r2
 152 0032 FB75     		strb	r3, [r7, #23]
  67:eeprom.c      ****     eeprom_put_char(destination++, *(source++)); 
 153              		.loc 1 67 0 discriminator 6
 154 0034 FA68     		ldr	r2, [r7, #12]
 155 0036 531C     		adds	r3, r2, #1
 156 0038 FB60     		str	r3, [r7, #12]
 157 003a BB68     		ldr	r3, [r7, #8]
 158 003c 591C     		adds	r1, r3, #1
 159 003e B960     		str	r1, [r7, #8]
 160 0040 1B78     		ldrb	r3, [r3]	@ zero_extendqisi2
 161 0042 1946     		mov	r1, r3
ARM GAS  C:\Users\barto\AppData\Local\Temp\ccXFYTGd.s 			page 5


 162 0044 1046     		mov	r0, r2
 163 0046 FFF7FEFF 		bl	eeprom_put_char
  64:eeprom.c      ****     checksum = (checksum << 1) || (checksum >> 7);
 164              		.loc 1 64 0 discriminator 6
 165 004a 7B68     		ldr	r3, [r7, #4]
 166 004c 013B     		subs	r3, r3, #1
 167 004e 7B60     		str	r3, [r7, #4]
 168              	.L5:
  64:eeprom.c      ****     checksum = (checksum << 1) || (checksum >> 7);
 169              		.loc 1 64 0 is_stmt 0 discriminator 1
 170 0050 7B68     		ldr	r3, [r7, #4]
 171 0052 002B     		cmp	r3, #0
 172 0054 DDD1     		bne	.L9
  68:eeprom.c      ****   }
  69:eeprom.c      ****   eeprom_put_char(destination, checksum);
 173              		.loc 1 69 0 is_stmt 1
 174 0056 FB7D     		ldrb	r3, [r7, #23]	@ zero_extendqisi2
 175 0058 1946     		mov	r1, r3
 176 005a F868     		ldr	r0, [r7, #12]
 177 005c FFF7FEFF 		bl	eeprom_put_char
  70:eeprom.c      **** }
 178              		.loc 1 70 0
 179 0060 00BF     		nop
 180 0062 1837     		adds	r7, r7, #24
 181              		.cfi_def_cfa_offset 8
 182 0064 BD46     		mov	sp, r7
 183              		.cfi_def_cfa_register 13
 184              		@ sp needed
 185 0066 80BD     		pop	{r7, pc}
 186              		.cfi_endproc
 187              	.LFE2:
 188              		.size	memcpy_to_eeprom_with_checksum, .-memcpy_to_eeprom_with_checksum
 189              		.section	.text.memcpy_from_eeprom_with_checksum,"ax",%progbits
 190              		.align	2
 191              		.global	memcpy_from_eeprom_with_checksum
 192              		.thumb
 193              		.thumb_func
 194              		.type	memcpy_from_eeprom_with_checksum, %function
 195              	memcpy_from_eeprom_with_checksum:
 196              	.LFB3:
  71:eeprom.c      **** 
  72:eeprom.c      **** int memcpy_from_eeprom_with_checksum(char *destination, unsigned int source, unsigned int size) {
 197              		.loc 1 72 0
 198              		.cfi_startproc
 199              		@ args = 0, pretend = 0, frame = 24
 200              		@ frame_needed = 1, uses_anonymous_args = 0
 201 0000 80B5     		push	{r7, lr}
 202              		.cfi_def_cfa_offset 8
 203              		.cfi_offset 7, -8
 204              		.cfi_offset 14, -4
 205 0002 86B0     		sub	sp, sp, #24
 206              		.cfi_def_cfa_offset 32
 207 0004 00AF     		add	r7, sp, #0
 208              		.cfi_def_cfa_register 7
 209 0006 F860     		str	r0, [r7, #12]
 210 0008 B960     		str	r1, [r7, #8]
 211 000a 7A60     		str	r2, [r7, #4]
ARM GAS  C:\Users\barto\AppData\Local\Temp\ccXFYTGd.s 			page 6


  73:eeprom.c      ****   unsigned char data, checksum = 0;
 212              		.loc 1 73 0
 213 000c 0023     		movs	r3, #0
 214 000e FB75     		strb	r3, [r7, #23]
  74:eeprom.c      ****   for(; size > 0; size--) { 
 215              		.loc 1 74 0
 216 0010 1FE0     		b	.L11
 217              	.L15:
  75:eeprom.c      ****     data = eeprom_get_char(source++);
 218              		.loc 1 75 0
 219 0012 BB68     		ldr	r3, [r7, #8]
 220 0014 5A1C     		adds	r2, r3, #1
 221 0016 BA60     		str	r2, [r7, #8]
 222 0018 1846     		mov	r0, r3
 223 001a FFF7FEFF 		bl	eeprom_get_char
 224 001e 0346     		mov	r3, r0
 225 0020 BB75     		strb	r3, [r7, #22]
  76:eeprom.c      ****     checksum = (checksum << 1) || (checksum >> 7);
 226              		.loc 1 76 0
 227 0022 FB7D     		ldrb	r3, [r7, #23]	@ zero_extendqisi2
 228 0024 5B00     		lsls	r3, r3, #1
 229 0026 002B     		cmp	r3, #0
 230 0028 03D1     		bne	.L12
 231              		.loc 1 76 0 is_stmt 0 discriminator 2
 232 002a 97F91730 		ldrsb	r3, [r7, #23]
 233 002e 002B     		cmp	r3, #0
 234 0030 01DA     		bge	.L13
 235              	.L12:
 236              		.loc 1 76 0 discriminator 3
 237 0032 0123     		movs	r3, #1
 238 0034 00E0     		b	.L14
 239              	.L13:
 240              		.loc 1 76 0 discriminator 4
 241 0036 0023     		movs	r3, #0
 242              	.L14:
 243              		.loc 1 76 0 discriminator 6
 244 0038 FB75     		strb	r3, [r7, #23]
  77:eeprom.c      ****     checksum += data;    
 245              		.loc 1 77 0 is_stmt 1 discriminator 6
 246 003a FA7D     		ldrb	r2, [r7, #23]
 247 003c BB7D     		ldrb	r3, [r7, #22]
 248 003e 1344     		add	r3, r3, r2
 249 0040 FB75     		strb	r3, [r7, #23]
  78:eeprom.c      ****     *(destination++) = data; 
 250              		.loc 1 78 0 discriminator 6
 251 0042 FB68     		ldr	r3, [r7, #12]
 252 0044 5A1C     		adds	r2, r3, #1
 253 0046 FA60     		str	r2, [r7, #12]
 254 0048 BA7D     		ldrb	r2, [r7, #22]
 255 004a 1A70     		strb	r2, [r3]
  74:eeprom.c      ****     data = eeprom_get_char(source++);
 256              		.loc 1 74 0 discriminator 6
 257 004c 7B68     		ldr	r3, [r7, #4]
 258 004e 013B     		subs	r3, r3, #1
 259 0050 7B60     		str	r3, [r7, #4]
 260              	.L11:
  74:eeprom.c      ****     data = eeprom_get_char(source++);
ARM GAS  C:\Users\barto\AppData\Local\Temp\ccXFYTGd.s 			page 7


 261              		.loc 1 74 0 is_stmt 0 discriminator 1
 262 0052 7B68     		ldr	r3, [r7, #4]
 263 0054 002B     		cmp	r3, #0
 264 0056 DCD1     		bne	.L15
  79:eeprom.c      ****   }
  80:eeprom.c      ****   return(checksum == eeprom_get_char(source));
 265              		.loc 1 80 0 is_stmt 1
 266 0058 B868     		ldr	r0, [r7, #8]
 267 005a FFF7FEFF 		bl	eeprom_get_char
 268 005e 0346     		mov	r3, r0
 269 0060 1A46     		mov	r2, r3
 270 0062 FB7D     		ldrb	r3, [r7, #23]	@ zero_extendqisi2
 271 0064 9342     		cmp	r3, r2
 272 0066 0CBF     		ite	eq
 273 0068 0123     		moveq	r3, #1
 274 006a 0023     		movne	r3, #0
 275 006c DBB2     		uxtb	r3, r3
  81:eeprom.c      **** }
 276              		.loc 1 81 0
 277 006e 1846     		mov	r0, r3
 278 0070 1837     		adds	r7, r7, #24
 279              		.cfi_def_cfa_offset 8
 280 0072 BD46     		mov	sp, r7
 281              		.cfi_def_cfa_register 13
 282              		@ sp needed
 283 0074 80BD     		pop	{r7, pc}
 284              		.cfi_endproc
 285              	.LFE3:
 286              		.size	memcpy_from_eeprom_with_checksum, .-memcpy_from_eeprom_with_checksum
 287 0076 00BF     		.text
 288              	.Letext0: