ARM GAS  C:\Users\barto\AppData\Local\Temp\ccuCQb5w.s 			page 1


   1              		.syntax unified
   2              		.cpu cortex-m3
   3              		.fpu softvfp
   4              		.eabi_attribute 20, 1
   5              		.eabi_attribute 21, 1
   6              		.eabi_attribute 23, 3
   7              		.eabi_attribute 24, 1
   8              		.eabi_attribute 25, 1
   9              		.eabi_attribute 26, 1
  10              		.eabi_attribute 30, 6
  11              		.eabi_attribute 34, 1
  12              		.eabi_attribute 18, 4
  13              		.thumb
  14              		.syntax unified
  15              		.file	"jog.c"
  16              		.text
  17              	.Ltext0:
  18              		.cfi_sections	.debug_frame
  19              		.comm	sys_position,12,4
  20              		.comm	sys_probe_position,12,4
  21              		.comm	sys_probe_state,1,1
  22              		.comm	sys_rt_exec_state,1,1
  23              		.comm	sys_rt_exec_alarm,1,1
  24              		.comm	sys_rt_exec_motion_override,1,1
  25              		.comm	sys_rt_exec_accessory_override,1,1
  26              		.section	.text.jog_execute,"ax",%progbits
  27              		.align	2
  28              		.global	jog_execute
  29              		.thumb
  30              		.thumb_func
  31              		.type	jog_execute, %function
  32              	jog_execute:
  33              	.LFB64:
  34              		.file 1 "jog.c"
   1:jog.c         **** /*
   2:jog.c         ****   jog.h - Jogging methods
   3:jog.c         ****   Part of Grbl
   4:jog.c         **** 
   5:jog.c         ****   Copyright (c) 2016 Sungeun K. Jeon for Gnea Research LLC
   6:jog.c         ****     Updated For PSoC 2017-2018 Barton Dring buildlog.net
   7:jog.c         **** 
   8:jog.c         ****   Grbl is free software: you can redistribute it and/or modify
   9:jog.c         ****   it under the terms of the GNU General Public License as published by
  10:jog.c         ****   the Free Software Foundation, either version 3 of the License, or
  11:jog.c         ****   (at your option) any later version.
  12:jog.c         **** 
  13:jog.c         ****   Grbl is distributed in the hope that it will be useful,
  14:jog.c         ****   but WITHOUT ANY WARRANTY; without even the implied warranty of
  15:jog.c         ****   MERCHANTABILITY or FITNESS FOR A PARTICULAR PURPOSE.  See the
  16:jog.c         ****   GNU General Public License for more details.
  17:jog.c         **** 
  18:jog.c         ****   You should have received a copy of the GNU General Public License
  19:jog.c         ****   along with Grbl.  If not, see <http://www.gnu.org/licenses/>.
  20:jog.c         **** */
  21:jog.c         **** 
  22:jog.c         **** #include "grbl.h"
  23:jog.c         **** 
ARM GAS  C:\Users\barto\AppData\Local\Temp\ccuCQb5w.s 			page 2


  24:jog.c         **** 
  25:jog.c         **** // Sets up valid jog motion received from g-code parser, checks for soft-limits, and executes the j
  26:jog.c         **** uint8_t jog_execute(plan_line_data_t *pl_data, parser_block_t *gc_block)
  27:jog.c         **** {
  35              		.loc 1 27 0
  36              		.cfi_startproc
  37              		@ args = 0, pretend = 0, frame = 8
  38              		@ frame_needed = 1, uses_anonymous_args = 0
  39 0000 80B5     		push	{r7, lr}
  40              		.cfi_def_cfa_offset 8
  41              		.cfi_offset 7, -8
  42              		.cfi_offset 14, -4
  43 0002 82B0     		sub	sp, sp, #8
  44              		.cfi_def_cfa_offset 16
  45 0004 00AF     		add	r7, sp, #0
  46              		.cfi_def_cfa_register 7
  47 0006 7860     		str	r0, [r7, #4]
  48 0008 3960     		str	r1, [r7]
  28:jog.c         ****   // Initialize planner data struct for jogging motions.
  29:jog.c         ****   // NOTE: Spindle and coolant are allowed to fully function with overrides during a jog.
  30:jog.c         ****   pl_data->feed_rate = gc_block->values.f;
  49              		.loc 1 30 0
  50 000a 3B68     		ldr	r3, [r7]
  51 000c DA68     		ldr	r2, [r3, #12]	@ float
  52 000e 7B68     		ldr	r3, [r7, #4]
  53 0010 1A60     		str	r2, [r3]	@ float
  31:jog.c         ****   pl_data->condition |= PL_COND_FLAG_NO_FEED_OVERRIDE;
  54              		.loc 1 31 0
  55 0012 7B68     		ldr	r3, [r7, #4]
  56 0014 1B7A     		ldrb	r3, [r3, #8]	@ zero_extendqisi2
  57 0016 43F00403 		orr	r3, r3, #4
  58 001a DAB2     		uxtb	r2, r3
  59 001c 7B68     		ldr	r3, [r7, #4]
  60 001e 1A72     		strb	r2, [r3, #8]
  32:jog.c         ****   #ifdef USE_LINE_NUMBERS
  33:jog.c         ****     pl_data->line_number = gc_block->values.n;
  34:jog.c         ****   #endif
  35:jog.c         **** 
  36:jog.c         ****   if (bit_istrue(settings.flags,BITFLAG_SOFT_LIMIT_ENABLE)) {
  61              		.loc 1 36 0
  62 0020 154B     		ldr	r3, .L5
  63 0022 93F84830 		ldrb	r3, [r3, #72]	@ zero_extendqisi2
  64 0026 03F02003 		and	r3, r3, #32
  65 002a 002B     		cmp	r3, #0
  66 002c 09D0     		beq	.L2
  37:jog.c         ****     if (system_check_travel_limits(gc_block->values.xyz)) { return(STATUS_TRAVEL_EXCEEDED); }
  67              		.loc 1 37 0
  68 002e 3B68     		ldr	r3, [r7]
  69 0030 3433     		adds	r3, r3, #52
  70 0032 1846     		mov	r0, r3
  71 0034 FFF7FEFF 		bl	system_check_travel_limits
  72 0038 0346     		mov	r3, r0
  73 003a 002B     		cmp	r3, #0
  74 003c 01D0     		beq	.L2
  75              		.loc 1 37 0 is_stmt 0 discriminator 1
  76 003e 0F23     		movs	r3, #15
  77 0040 16E0     		b	.L3
ARM GAS  C:\Users\barto\AppData\Local\Temp\ccuCQb5w.s 			page 3


  78              	.L2:
  38:jog.c         ****   }
  39:jog.c         **** 
  40:jog.c         ****   // Valid jog command. Plan, set state, and execute.
  41:jog.c         ****   mc_line(gc_block->values.xyz,pl_data);
  79              		.loc 1 41 0 is_stmt 1
  80 0042 3B68     		ldr	r3, [r7]
  81 0044 3433     		adds	r3, r3, #52
  82 0046 7968     		ldr	r1, [r7, #4]
  83 0048 1846     		mov	r0, r3
  84 004a FFF7FEFF 		bl	mc_line
  42:jog.c         ****   if (sys.state == STATE_IDLE) {
  85              		.loc 1 42 0
  86 004e 0B4B     		ldr	r3, .L5+4
  87 0050 1B78     		ldrb	r3, [r3]	@ zero_extendqisi2
  88 0052 002B     		cmp	r3, #0
  89 0054 0BD1     		bne	.L4
  43:jog.c         ****     if (plan_get_current_block() != NULL) { // Check if there is a block to execute.
  90              		.loc 1 43 0
  91 0056 FFF7FEFF 		bl	plan_get_current_block
  92 005a 0346     		mov	r3, r0
  93 005c 002B     		cmp	r3, #0
  94 005e 06D0     		beq	.L4
  44:jog.c         ****       sys.state = STATE_JOG;
  95              		.loc 1 44 0
  96 0060 064B     		ldr	r3, .L5+4
  97 0062 2022     		movs	r2, #32
  98 0064 1A70     		strb	r2, [r3]
  45:jog.c         ****       st_prep_buffer();
  99              		.loc 1 45 0
 100 0066 FFF7FEFF 		bl	st_prep_buffer
  46:jog.c         ****       st_wake_up();  // NOTE: Manual start. No state machine required.
 101              		.loc 1 46 0
 102 006a FFF7FEFF 		bl	st_wake_up
 103              	.L4:
  47:jog.c         ****     }
  48:jog.c         ****   }
  49:jog.c         **** 
  50:jog.c         ****   return(STATUS_OK);
 104              		.loc 1 50 0
 105 006e 0023     		movs	r3, #0
 106              	.L3:
  51:jog.c         **** }
 107              		.loc 1 51 0
 108 0070 1846     		mov	r0, r3
 109 0072 0837     		adds	r7, r7, #8
 110              		.cfi_def_cfa_offset 8
 111 0074 BD46     		mov	sp, r7
 112              		.cfi_def_cfa_register 13
 113              		@ sp needed
 114 0076 80BD     		pop	{r7, pc}
 115              	.L6:
 116              		.align	2
 117              	.L5:
 118 0078 00000000 		.word	settings
 119 007c 00000000 		.word	sys
 120              		.cfi_endproc
ARM GAS  C:\Users\barto\AppData\Local\Temp\ccuCQb5w.s 			page 4


 121              	.LFE64:
 122              		.size	jog_execute, .-jog_execute
 123              		.text
 124              	.Letext0:
 125              		.file 2 "c:\\program files (x86)\\cypress\\psoc creator\\4.2\\psoc creator\\import\\gnu\\arm\\5.4.
 126              		.file 3 "c:\\program files (x86)\\cypress\\psoc creator\\4.2\\psoc creator\\import\\gnu\\arm\\5.4.
 127              		.file 4 "settings.h"
 128              		.file 5 "system.h"
 129              		.file 6 "planner.h"
 130              		.file 7 "gcode.h"
 131              		.file 8 "Generated_Source\\PSoC5/core_cm3.h"