ARM GAS  C:\Users\barto\AppData\Local\Temp\ccamTRzO.s 			page 1


   1              		.syntax unified
   2              		.cpu cortex-m3
   3              		.fpu softvfp
   4              		.eabi_attribute 20, 1
   5              		.eabi_attribute 21, 1
   6              		.eabi_attribute 23, 3
   7              		.eabi_attribute 24, 1
   8              		.eabi_attribute 25, 1
   9              		.eabi_attribute 26, 1
  10              		.eabi_attribute 30, 6
  11              		.eabi_attribute 34, 1
  12              		.eabi_attribute 18, 4
  13              		.thumb
  14              		.syntax unified
  15              		.file	"limits.c"
  16              		.text
  17              	.Ltext0:
  18              		.cfi_sections	.debug_frame
  19              		.comm	sys_position,12,4
  20              		.comm	sys_probe_position,12,4
  21              		.comm	sys_probe_state,1,1
  22              		.comm	sys_rt_exec_state,1,1
  23              		.comm	sys_rt_exec_alarm,1,1
  24              		.comm	sys_rt_exec_motion_override,1,1
  25              		.comm	sys_rt_exec_accessory_override,1,1
  26              		.section	.text.limits_init,"ax",%progbits
  27              		.align	2
  28              		.global	limits_init
  29              		.thumb
  30              		.thumb_func
  31              		.type	limits_init, %function
  32              	limits_init:
  33              	.LFB64:
  34              		.file 1 "limits.c"
   1:limits.c      **** /*
   2:limits.c      ****   limits.c - code pertaining to limit-switches and performing the homing cycle
   3:limits.c      ****   Part of Grbl
   4:limits.c      **** 
   5:limits.c      ****   Copyright (c) 2012-2016 Sungeun K. Jeon for Gnea Research LLC
   6:limits.c      ****   Copyright (c) 2009-2011 Simen Svale Skogsrud
   7:limits.c      ****       Updated For PSoC 2017-2018 Barton Dring buildlog.net
   8:limits.c      **** 
   9:limits.c      ****   Grbl is free software: you can redistribute it and/or modify
  10:limits.c      ****   it under the terms of the GNU General Public License as published by
  11:limits.c      ****   the Free Software Foundation, either version 3 of the License, or
  12:limits.c      ****   (at your option) any later version.
  13:limits.c      **** 
  14:limits.c      ****   Grbl is distributed in the hope that it will be useful,
  15:limits.c      ****   but WITHOUT ANY WARRANTY; without even the implied warranty of
  16:limits.c      ****   MERCHANTABILITY or FITNESS FOR A PARTICULAR PURPOSE.  See the
  17:limits.c      ****   GNU General Public License for more details.
  18:limits.c      **** 
  19:limits.c      ****   You should have received a copy of the GNU General Public License
  20:limits.c      ****   along with Grbl.  If not, see <http://www.gnu.org/licenses/>.
  21:limits.c      **** */
  22:limits.c      **** 
  23:limits.c      **** #include "grbl.h"
ARM GAS  C:\Users\barto\AppData\Local\Temp\ccamTRzO.s 			page 2


  24:limits.c      **** 
  25:limits.c      **** 
  26:limits.c      **** // Homing axis search distance multiplier. Computed by this value times the cycle travel.
  27:limits.c      **** #ifndef HOMING_AXIS_SEARCH_SCALAR
  28:limits.c      ****   #define HOMING_AXIS_SEARCH_SCALAR  1.5 // Must be > 1 to ensure limit switch will be engaged.
  29:limits.c      **** #endif
  30:limits.c      **** #ifndef HOMING_AXIS_LOCATE_SCALAR
  31:limits.c      ****   #define HOMING_AXIS_LOCATE_SCALAR  5.0 // Must be > 1 to ensure limit switch is cleared.
  32:limits.c      **** #endif
  33:limits.c      **** 
  34:limits.c      **** // PSoc Complete rewrire.  Pins and debouncing are setup on the PSoc Schematic
  35:limits.c      **** void limits_init() 
  36:limits.c      **** { 
  35              		.loc 1 36 0
  36              		.cfi_startproc
  37              		@ args = 0, pretend = 0, frame = 0
  38              		@ frame_needed = 1, uses_anonymous_args = 0
  39 0000 80B5     		push	{r7, lr}
  40              		.cfi_def_cfa_offset 8
  41              		.cfi_offset 7, -8
  42              		.cfi_offset 14, -4
  43 0002 00AF     		add	r7, sp, #0
  44              		.cfi_def_cfa_register 7
  37:limits.c      **** 
  38:limits.c      ****   if (bit_istrue(settings.flags,BITFLAG_HARD_LIMIT_ENABLE)) {
  45              		.loc 1 38 0
  46 0004 084B     		ldr	r3, .L5
  47 0006 93F84830 		ldrb	r3, [r3, #72]	@ zero_extendqisi2
  48 000a 03F00803 		and	r3, r3, #8
  49 000e 002B     		cmp	r3, #0
  50 0010 05D0     		beq	.L2
  39:limits.c      ****     Status_Limit_InterruptEnable();
  51              		.loc 1 39 0
  52 0012 FFF7FEFF 		bl	Status_Limit_InterruptEnable
  40:limits.c      ****     isr_Limits_StartEx(limit_isr_handler);
  53              		.loc 1 40 0
  54 0016 0548     		ldr	r0, .L5+4
  55 0018 FFF7FEFF 		bl	isr_Limits_StartEx
  41:limits.c      ****   } else {
  42:limits.c      ****     
  43:limits.c      ****     limits_disable(); 
  44:limits.c      ****   }
  45:limits.c      **** }
  56              		.loc 1 45 0
  57 001c 01E0     		b	.L4
  58              	.L2:
  43:limits.c      ****   }
  59              		.loc 1 43 0
  60 001e FFF7FEFF 		bl	limits_disable
  61              	.L4:
  62              		.loc 1 45 0
  63 0022 00BF     		nop
  64 0024 80BD     		pop	{r7, pc}
  65              	.L6:
  66 0026 00BF     		.align	2
  67              	.L5:
  68 0028 00000000 		.word	settings
ARM GAS  C:\Users\barto\AppData\Local\Temp\ccamTRzO.s 			page 3


  69 002c 00000000 		.word	limit_isr_handler
  70              		.cfi_endproc
  71              	.LFE64:
  72              		.size	limits_init, .-limits_init
  73              		.section	.text.limits_disable,"ax",%progbits
  74              		.align	2
  75              		.global	limits_disable
  76              		.thumb
  77              		.thumb_func
  78              		.type	limits_disable, %function
  79              	limits_disable:
  80              	.LFB65:
  46:limits.c      **** 
  47:limits.c      **** 
  48:limits.c      **** // complete PSoc rewrite
  49:limits.c      **** void limits_disable()
  50:limits.c      **** {
  81              		.loc 1 50 0
  82              		.cfi_startproc
  83              		@ args = 0, pretend = 0, frame = 0
  84              		@ frame_needed = 1, uses_anonymous_args = 0
  85 0000 80B5     		push	{r7, lr}
  86              		.cfi_def_cfa_offset 8
  87              		.cfi_offset 7, -8
  88              		.cfi_offset 14, -4
  89 0002 00AF     		add	r7, sp, #0
  90              		.cfi_def_cfa_register 7
  51:limits.c      ****   Status_Limit_InterruptDisable();
  91              		.loc 1 51 0
  92 0004 FFF7FEFF 		bl	Status_Limit_InterruptDisable
  52:limits.c      ****   isr_Limits_Stop();
  93              		.loc 1 52 0
  94 0008 FFF7FEFF 		bl	isr_Limits_Stop
  53:limits.c      **** }
  95              		.loc 1 53 0
  96 000c 00BF     		nop
  97 000e 80BD     		pop	{r7, pc}
  98              		.cfi_endproc
  99              	.LFE65:
 100              		.size	limits_disable, .-limits_disable
 101              		.section	.text.limits_get_state,"ax",%progbits
 102              		.align	2
 103              		.global	limits_get_state
 104              		.thumb
 105              		.thumb_func
 106              		.type	limits_get_state, %function
 107              	limits_get_state:
 108              	.LFB66:
  54:limits.c      **** 
  55:limits.c      **** 
  56:limits.c      **** // Returns limit state as a bit-wise uint8 variable. Each bit indicates an axis limit, where
  57:limits.c      **** // triggered is 1 and not triggered is 0. Invert mask is applied. Axes are defined by their
  58:limits.c      **** // number in bit position, i.e. Z_AXIS is (1<<2) or bit 2, and Y_AXIS is (1<<1) or bit 1.
  59:limits.c      **** // Complete PSoC Rewrite
  60:limits.c      **** uint8_t limits_get_state()
  61:limits.c      **** {  
 109              		.loc 1 61 0
ARM GAS  C:\Users\barto\AppData\Local\Temp\ccamTRzO.s 			page 4


 110              		.cfi_startproc
 111              		@ args = 0, pretend = 0, frame = 0
 112              		@ frame_needed = 1, uses_anonymous_args = 0
 113 0000 80B5     		push	{r7, lr}
 114              		.cfi_def_cfa_offset 8
 115              		.cfi_offset 7, -8
 116              		.cfi_offset 14, -4
 117 0002 00AF     		add	r7, sp, #0
 118              		.cfi_def_cfa_register 7
  62:limits.c      ****   return Status_Limit_Read(); 
 119              		.loc 1 62 0
 120 0004 FFF7FEFF 		bl	Status_Limit_Read
 121 0008 0346     		mov	r3, r0
  63:limits.c      **** }
 122              		.loc 1 63 0
 123 000a 1846     		mov	r0, r3
 124 000c 80BD     		pop	{r7, pc}
 125              		.cfi_endproc
 126              	.LFE66:
 127              		.size	limits_get_state, .-limits_get_state
 128 000e 00BF     		.section	.text.limit_isr_handler,"ax",%progbits
 129              		.align	2
 130              		.global	limit_isr_handler
 131              		.thumb
 132              		.thumb_func
 133              		.type	limit_isr_handler, %function
 134              	limit_isr_handler:
 135              	.LFB67:
  64:limits.c      **** 
  65:limits.c      **** // PSoc Change
  66:limits.c      **** void limit_isr_handler() // ISR(LIMIT_INT_vect) // DEFAULT: Limit pin change interrupt process. 
  67:limits.c      ****   {
 136              		.loc 1 67 0
 137              		.cfi_startproc
 138              		@ args = 0, pretend = 0, frame = 0
 139              		@ frame_needed = 1, uses_anonymous_args = 0
 140 0000 80B5     		push	{r7, lr}
 141              		.cfi_def_cfa_offset 8
 142              		.cfi_offset 7, -8
 143              		.cfi_offset 14, -4
 144 0002 00AF     		add	r7, sp, #0
 145              		.cfi_def_cfa_register 7
  68:limits.c      ****     // Ignore limit switches if already in an alarm state or in-process of executing an alarm.
  69:limits.c      ****     // When in the alarm state, Grbl should have been reset or will force a reset, so any pending 
  70:limits.c      ****     // moves in the planner and serial buffers are all cleared and newly sent blocks will be 
  71:limits.c      ****     // locked out until a homing cycle or a kill lock command. Allows the user to disable the hard
  72:limits.c      ****     // limit setting if their limits are constantly triggering after a reset and move their axes.
  73:limits.c      ****     if (sys.state != STATE_ALARM) { 
 146              		.loc 1 73 0
 147 0004 074B     		ldr	r3, .L13
 148 0006 1B78     		ldrb	r3, [r3]	@ zero_extendqisi2
 149 0008 012B     		cmp	r3, #1
 150 000a 09D0     		beq	.L12
  74:limits.c      ****       if (!(sys_rt_exec_alarm)) {
 151              		.loc 1 74 0
 152 000c 064B     		ldr	r3, .L13+4
 153 000e 1B78     		ldrb	r3, [r3]
ARM GAS  C:\Users\barto\AppData\Local\Temp\ccamTRzO.s 			page 5


 154 0010 DBB2     		uxtb	r3, r3
 155 0012 002B     		cmp	r3, #0
 156 0014 04D1     		bne	.L12
  75:limits.c      ****         #ifdef HARD_LIMIT_FORCE_STATE_CHECK
  76:limits.c      ****           // Check limit pin state. 
  77:limits.c      ****           if (limits_get_state()) {
  78:limits.c      ****             mc_reset(); // Initiate system kill.
  79:limits.c      ****             system_set_exec_alarm_flag((EXEC_ALARM_HARD_LIMIT|EXEC_CRITICAL_EVENT)); // Indicate ha
  80:limits.c      ****           }
  81:limits.c      ****         #else
  82:limits.c      ****           mc_reset(); // Initiate system kill.
 157              		.loc 1 82 0
 158 0016 FFF7FEFF 		bl	mc_reset
  83:limits.c      ****           system_set_exec_alarm(EXEC_ALARM_HARD_LIMIT); // Indicate hard limit critical event
 159              		.loc 1 83 0
 160 001a 0120     		movs	r0, #1
 161 001c FFF7FEFF 		bl	system_set_exec_alarm
 162              	.L12:
  84:limits.c      ****         #endif
  85:limits.c      ****       }
  86:limits.c      ****     }
  87:limits.c      ****   }  
 163              		.loc 1 87 0
 164 0020 00BF     		nop
 165 0022 80BD     		pop	{r7, pc}
 166              	.L14:
 167              		.align	2
 168              	.L13:
 169 0024 00000000 		.word	sys
 170 0028 00000000 		.word	sys_rt_exec_alarm
 171              		.cfi_endproc
 172              	.LFE67:
 173              		.size	limit_isr_handler, .-limit_isr_handler
 174              		.global	__aeabi_f2d
 175              		.global	__aeabi_dmul
 176              		.global	__aeabi_dcmpgt
 177              		.global	__aeabi_d2f
 178              		.global	__aeabi_ui2d
 179              		.global	__aeabi_fmul
 180              		.global	__aeabi_fadd
 181              		.section	.text.limits_go_home,"ax",%progbits
 182              		.align	2
 183              		.global	limits_go_home
 184              		.thumb
 185              		.thumb_func
 186              		.type	limits_go_home, %function
 187              	limits_go_home:
 188              	.LFB68:
  88:limits.c      **** 
  89:limits.c      **** // Homes the specified cycle axes, sets the machine position, and performs a pull-off motion after
  90:limits.c      **** // completing. Homing is a special motion case, which involves rapid uncontrolled stops to locate
  91:limits.c      **** // the trigger point of the limit switches. The rapid stops are handled by a system level axis lock
  92:limits.c      **** // mask, which prevents the stepper algorithm from executing step pulses. Homing motions typically
  93:limits.c      **** // circumvent the processes for executing motions in normal operation.
  94:limits.c      **** // NOTE: Only the abort realtime command can interrupt this process.
  95:limits.c      **** // TODO: Move limit pin-specific calls to a general function for portability.
  96:limits.c      **** void limits_go_home(uint8_t cycle_mask)
ARM GAS  C:\Users\barto\AppData\Local\Temp\ccamTRzO.s 			page 6


  97:limits.c      **** {
 189              		.loc 1 97 0
 190              		.cfi_startproc
 191              		@ args = 0, pretend = 0, frame = 88
 192              		@ frame_needed = 1, uses_anonymous_args = 0
 193 0000 B0B5     		push	{r4, r5, r7, lr}
 194              		.cfi_def_cfa_offset 16
 195              		.cfi_offset 4, -16
 196              		.cfi_offset 5, -12
 197              		.cfi_offset 7, -8
 198              		.cfi_offset 14, -4
 199 0002 96B0     		sub	sp, sp, #88
 200              		.cfi_def_cfa_offset 104
 201 0004 00AF     		add	r7, sp, #0
 202              		.cfi_def_cfa_register 7
 203 0006 0346     		mov	r3, r0
 204 0008 FB71     		strb	r3, [r7, #7]
  98:limits.c      ****   if (sys.abort) { return; } // Block if system reset has been issued.
 205              		.loc 1 98 0
 206 000a C44B     		ldr	r3, .L64
 207 000c 5B78     		ldrb	r3, [r3, #1]	@ zero_extendqisi2
 208 000e 002B     		cmp	r3, #0
 209 0010 40F0C082 		bne	.L63
  99:limits.c      **** 
 100:limits.c      ****   // Initialize plan data struct for homing motion. Spindle and coolant are disabled.
 101:limits.c      ****   plan_line_data_t plan_data;
 102:limits.c      ****   plan_line_data_t *pl_data = &plan_data;
 210              		.loc 1 102 0
 211 0014 07F11C03 		add	r3, r7, #28
 212 0018 FB63     		str	r3, [r7, #60]
 103:limits.c      ****   memset(pl_data,0,sizeof(plan_line_data_t));
 213              		.loc 1 103 0
 214 001a 0C22     		movs	r2, #12
 215 001c 0021     		movs	r1, #0
 216 001e F86B     		ldr	r0, [r7, #60]
 217 0020 FFF7FEFF 		bl	memset
 104:limits.c      ****   pl_data->condition = (PL_COND_FLAG_SYSTEM_MOTION|PL_COND_FLAG_NO_FEED_OVERRIDE);
 218              		.loc 1 104 0
 219 0024 FB6B     		ldr	r3, [r7, #60]
 220 0026 0622     		movs	r2, #6
 221 0028 1A72     		strb	r2, [r3, #8]
 105:limits.c      ****   #ifdef USE_LINE_NUMBERS
 106:limits.c      ****     pl_data->line_number = HOMING_CYCLE_LINE_NUMBER;
 107:limits.c      ****   #endif
 108:limits.c      **** 
 109:limits.c      ****   // Initialize variables used for homing computations.
 110:limits.c      ****   uint8_t n_cycle = (2*N_HOMING_LOCATE_CYCLE+1);
 222              		.loc 1 110 0
 223 002a 0323     		movs	r3, #3
 224 002c 87F85730 		strb	r3, [r7, #87]
 111:limits.c      ****   uint8_t step_pin[N_AXIS];
 112:limits.c      ****   float target[N_AXIS];
 113:limits.c      ****   float max_travel = 0.0;
 225              		.loc 1 113 0
 226 0030 4FF00003 		mov	r3, #0
 227 0034 3B65     		str	r3, [r7, #80]	@ float
 114:limits.c      ****   uint8_t idx;
ARM GAS  C:\Users\barto\AppData\Local\Temp\ccamTRzO.s 			page 7


 115:limits.c      ****   for (idx=0; idx<N_AXIS; idx++) {
 228              		.loc 1 115 0
 229 0036 0023     		movs	r3, #0
 230 0038 87F84F30 		strb	r3, [r7, #79]
 231 003c 6BE0     		b	.L18
 232              	.L25:
 116:limits.c      ****     // Initialize step pin masks
 117:limits.c      ****     step_pin[idx] = get_step_pin_mask(idx);
 233              		.loc 1 117 0
 234 003e 97F84F40 		ldrb	r4, [r7, #79]	@ zero_extendqisi2
 235 0042 97F84F30 		ldrb	r3, [r7, #79]	@ zero_extendqisi2
 236 0046 1846     		mov	r0, r3
 237 0048 FFF7FEFF 		bl	get_step_pin_mask
 238 004c 0346     		mov	r3, r0
 239 004e 1A46     		mov	r2, r3
 240 0050 07F15803 		add	r3, r7, #88
 241 0054 2344     		add	r3, r3, r4
 242 0056 03F8402C 		strb	r2, [r3, #-64]
 118:limits.c      ****     #ifdef COREXY
 119:limits.c      ****       if ((idx==A_MOTOR)||(idx==B_MOTOR)) { step_pin[idx] = (get_step_pin_mask(X_AXIS)|get_step_pin
 243              		.loc 1 119 0
 244 005a 97F84F30 		ldrb	r3, [r7, #79]	@ zero_extendqisi2
 245 005e 002B     		cmp	r3, #0
 246 0060 03D0     		beq	.L19
 247              		.loc 1 119 0 is_stmt 0 discriminator 2
 248 0062 97F84F30 		ldrb	r3, [r7, #79]	@ zero_extendqisi2
 249 0066 012B     		cmp	r3, #1
 250 0068 11D1     		bne	.L20
 251              	.L19:
 252              		.loc 1 119 0 discriminator 3
 253 006a 97F84F40 		ldrb	r4, [r7, #79]	@ zero_extendqisi2
 254 006e 0020     		movs	r0, #0
 255 0070 FFF7FEFF 		bl	get_step_pin_mask
 256 0074 0346     		mov	r3, r0
 257 0076 1D46     		mov	r5, r3
 258 0078 0120     		movs	r0, #1
 259 007a FFF7FEFF 		bl	get_step_pin_mask
 260 007e 0346     		mov	r3, r0
 261 0080 2B43     		orrs	r3, r3, r5
 262 0082 DAB2     		uxtb	r2, r3
 263 0084 07F15803 		add	r3, r7, #88
 264 0088 2344     		add	r3, r3, r4
 265 008a 03F8402C 		strb	r2, [r3, #-64]
 266              	.L20:
 120:limits.c      ****     #endif
 121:limits.c      **** 
 122:limits.c      ****     if (bit_istrue(cycle_mask,bit(idx))) {
 267              		.loc 1 122 0 is_stmt 1
 268 008e FA79     		ldrb	r2, [r7, #7]	@ zero_extendqisi2
 269 0090 97F84F30 		ldrb	r3, [r7, #79]	@ zero_extendqisi2
 270 0094 42FA03F3 		asr	r3, r2, r3
 271 0098 03F00103 		and	r3, r3, #1
 272 009c 002B     		cmp	r3, #0
 273 009e 35D0     		beq	.L21
 123:limits.c      ****       // Set target based on max_travel setting. Ensure homing switches engaged with search scalar.
 124:limits.c      ****       // NOTE: settings.max_travel[] is stored as a negative value.
 125:limits.c      ****       max_travel = max(max_travel,(-HOMING_AXIS_SEARCH_SCALAR)*settings.max_travel[idx]);
ARM GAS  C:\Users\barto\AppData\Local\Temp\ccamTRzO.s 			page 8


 274              		.loc 1 125 0
 275 00a0 386D     		ldr	r0, [r7, #80]	@ float
 276 00a2 FFF7FEFF 		bl	__aeabi_f2d
 277 00a6 0446     		mov	r4, r0
 278 00a8 0D46     		mov	r5, r1
 279 00aa 97F84F30 		ldrb	r3, [r7, #79]	@ zero_extendqisi2
 280 00ae 9C4A     		ldr	r2, .L64+4
 281 00b0 0833     		adds	r3, r3, #8
 282 00b2 9B00     		lsls	r3, r3, #2
 283 00b4 1344     		add	r3, r3, r2
 284 00b6 5B68     		ldr	r3, [r3, #4]	@ float
 285 00b8 1846     		mov	r0, r3
 286 00ba FFF7FEFF 		bl	__aeabi_f2d
 287 00be 4FF00002 		mov	r2, #0
 288 00c2 984B     		ldr	r3, .L64+8
 289 00c4 FFF7FEFF 		bl	__aeabi_dmul
 290 00c8 0246     		mov	r2, r0
 291 00ca 0B46     		mov	r3, r1
 292 00cc 2046     		mov	r0, r4
 293 00ce 2946     		mov	r1, r5
 294 00d0 FFF7FEFF 		bl	__aeabi_dcmpgt
 295 00d4 0346     		mov	r3, r0
 296 00d6 002B     		cmp	r3, #0
 297 00d8 01D0     		beq	.L62
 298              		.loc 1 125 0 is_stmt 0 discriminator 1
 299 00da 3B6D     		ldr	r3, [r7, #80]	@ float
 300 00dc 15E0     		b	.L24
 301              	.L62:
 302              		.loc 1 125 0 discriminator 2
 303 00de 97F84F30 		ldrb	r3, [r7, #79]	@ zero_extendqisi2
 304 00e2 8F4A     		ldr	r2, .L64+4
 305 00e4 0833     		adds	r3, r3, #8
 306 00e6 9B00     		lsls	r3, r3, #2
 307 00e8 1344     		add	r3, r3, r2
 308 00ea 5B68     		ldr	r3, [r3, #4]	@ float
 309 00ec 1846     		mov	r0, r3
 310 00ee FFF7FEFF 		bl	__aeabi_f2d
 311 00f2 4FF00002 		mov	r2, #0
 312 00f6 8B4B     		ldr	r3, .L64+8
 313 00f8 FFF7FEFF 		bl	__aeabi_dmul
 314 00fc 0346     		mov	r3, r0
 315 00fe 0C46     		mov	r4, r1
 316 0100 1846     		mov	r0, r3
 317 0102 2146     		mov	r1, r4
 318 0104 FFF7FEFF 		bl	__aeabi_d2f
 319 0108 0346     		mov	r3, r0
 320              	.L24:
 321              		.loc 1 125 0 discriminator 4
 322 010a 3B65     		str	r3, [r7, #80]	@ float
 323              	.L21:
 115:limits.c      ****     // Initialize step pin masks
 324              		.loc 1 115 0 is_stmt 1 discriminator 2
 325 010c 97F84F30 		ldrb	r3, [r7, #79]	@ zero_extendqisi2
 326 0110 0133     		adds	r3, r3, #1
 327 0112 87F84F30 		strb	r3, [r7, #79]
 328              	.L18:
 115:limits.c      ****     // Initialize step pin masks
ARM GAS  C:\Users\barto\AppData\Local\Temp\ccamTRzO.s 			page 9


 329              		.loc 1 115 0 is_stmt 0 discriminator 1
 330 0116 97F84F30 		ldrb	r3, [r7, #79]	@ zero_extendqisi2
 331 011a 022B     		cmp	r3, #2
 332 011c 8FD9     		bls	.L25
 126:limits.c      ****     }
 127:limits.c      ****   }
 128:limits.c      **** 
 129:limits.c      ****   // Set search mode with approach at seek rate to quickly engage the specified cycle_mask limit sw
 130:limits.c      ****   bool approach = true;
 333              		.loc 1 130 0 is_stmt 1
 334 011e 0123     		movs	r3, #1
 335 0120 87F84E30 		strb	r3, [r7, #78]
 131:limits.c      ****   float homing_rate = settings.homing_seek_rate;
 336              		.loc 1 131 0
 337 0124 7E4B     		ldr	r3, .L64+4
 338 0126 1B6D     		ldr	r3, [r3, #80]	@ float
 339 0128 BB64     		str	r3, [r7, #72]	@ float
 340              	.L52:
 132:limits.c      **** 
 133:limits.c      ****   uint8_t limit_state, axislock, n_active_axis;
 134:limits.c      ****   do {
 135:limits.c      **** 
 136:limits.c      ****     system_convert_array_steps_to_mpos(target,sys_position);
 341              		.loc 1 136 0
 342 012a 07F10C03 		add	r3, r7, #12
 343 012e 7E49     		ldr	r1, .L64+12
 344 0130 1846     		mov	r0, r3
 345 0132 FFF7FEFF 		bl	system_convert_array_steps_to_mpos
 137:limits.c      **** 
 138:limits.c      ****     // Initialize and declare variables needed for homing routine.
 139:limits.c      ****     axislock = 0;
 346              		.loc 1 139 0
 347 0136 0023     		movs	r3, #0
 348 0138 87F84730 		strb	r3, [r7, #71]
 140:limits.c      ****     n_active_axis = 0;
 349              		.loc 1 140 0
 350 013c 0023     		movs	r3, #0
 351 013e 87F84630 		strb	r3, [r7, #70]
 141:limits.c      ****     for (idx=0; idx<N_AXIS; idx++) {
 352              		.loc 1 141 0
 353 0142 0023     		movs	r3, #0
 354 0144 87F84F30 		strb	r3, [r7, #79]
 355 0148 80E0     		b	.L26
 356              	.L36:
 142:limits.c      ****       // Set target location for active axes and setup computation for homing rate.
 143:limits.c      ****       if (bit_istrue(cycle_mask,bit(idx))) {
 357              		.loc 1 143 0
 358 014a FA79     		ldrb	r2, [r7, #7]	@ zero_extendqisi2
 359 014c 97F84F30 		ldrb	r3, [r7, #79]	@ zero_extendqisi2
 360 0150 42FA03F3 		asr	r3, r2, r3
 361 0154 03F00103 		and	r3, r3, #1
 362 0158 002B     		cmp	r3, #0
 363 015a 72D0     		beq	.L27
 144:limits.c      ****         n_active_axis++;
 364              		.loc 1 144 0
 365 015c 97F84630 		ldrb	r3, [r7, #70]	@ zero_extendqisi2
 366 0160 0133     		adds	r3, r3, #1
ARM GAS  C:\Users\barto\AppData\Local\Temp\ccamTRzO.s 			page 10


 367 0162 87F84630 		strb	r3, [r7, #70]
 145:limits.c      ****         #ifdef COREXY
 146:limits.c      ****           if (idx == X_AXIS) {
 368              		.loc 1 146 0
 369 0166 97F84F30 		ldrb	r3, [r7, #79]	@ zero_extendqisi2
 370 016a 002B     		cmp	r3, #0
 371 016c 0BD1     		bne	.L28
 372              	.LBB2:
 147:limits.c      ****             int32_t axis_position = system_convert_corexy_to_y_axis_steps(sys_position);
 373              		.loc 1 147 0
 374 016e 6E48     		ldr	r0, .L64+12
 375 0170 FFF7FEFF 		bl	system_convert_corexy_to_y_axis_steps
 376 0174 B863     		str	r0, [r7, #56]
 148:limits.c      ****             sys_position[A_MOTOR] = axis_position;
 377              		.loc 1 148 0
 378 0176 6C4A     		ldr	r2, .L64+12
 379 0178 BB6B     		ldr	r3, [r7, #56]
 380 017a 1360     		str	r3, [r2]
 149:limits.c      ****             sys_position[B_MOTOR] = -axis_position;
 381              		.loc 1 149 0
 382 017c BB6B     		ldr	r3, [r7, #56]
 383 017e 5B42     		negs	r3, r3
 384 0180 694A     		ldr	r2, .L64+12
 385 0182 5360     		str	r3, [r2, #4]
 386              	.LBE2:
 387 0184 12E0     		b	.L29
 388              	.L28:
 150:limits.c      ****           } else if (idx == Y_AXIS) {
 389              		.loc 1 150 0
 390 0186 97F84F30 		ldrb	r3, [r7, #79]	@ zero_extendqisi2
 391 018a 012B     		cmp	r3, #1
 392 018c 0BD1     		bne	.L30
 393              	.LBB3:
 151:limits.c      ****             int32_t axis_position = system_convert_corexy_to_x_axis_steps(sys_position);
 394              		.loc 1 151 0
 395 018e 6648     		ldr	r0, .L64+12
 396 0190 FFF7FEFF 		bl	system_convert_corexy_to_x_axis_steps
 397 0194 7863     		str	r0, [r7, #52]
 152:limits.c      ****             sys_position[A_MOTOR] = sys_position[B_MOTOR] = axis_position;
 398              		.loc 1 152 0
 399 0196 644A     		ldr	r2, .L64+12
 400 0198 7B6B     		ldr	r3, [r7, #52]
 401 019a 5360     		str	r3, [r2, #4]
 402 019c 624B     		ldr	r3, .L64+12
 403 019e 5B68     		ldr	r3, [r3, #4]
 404 01a0 614A     		ldr	r2, .L64+12
 405 01a2 1360     		str	r3, [r2]
 406              	.LBE3:
 407 01a4 02E0     		b	.L29
 408              	.L30:
 153:limits.c      ****           } else {
 154:limits.c      ****             sys_position[Z_AXIS] = 0;
 409              		.loc 1 154 0
 410 01a6 604B     		ldr	r3, .L64+12
 411 01a8 0022     		movs	r2, #0
 412 01aa 9A60     		str	r2, [r3, #8]
 413              	.L29:
ARM GAS  C:\Users\barto\AppData\Local\Temp\ccamTRzO.s 			page 11


 155:limits.c      ****           }
 156:limits.c      ****         #else
 157:limits.c      ****           sys_position[idx] = 0;
 158:limits.c      ****         #endif
 159:limits.c      ****         // Set target direction based on cycle mask and homing cycle approach state.
 160:limits.c      ****         // NOTE: This happens to compile smaller than any other implementation tried.
 161:limits.c      ****         if (bit_istrue(settings.homing_dir_mask,bit(idx))) {
 414              		.loc 1 161 0
 415 01ac 5C4B     		ldr	r3, .L64+4
 416 01ae 93F84930 		ldrb	r3, [r3, #73]	@ zero_extendqisi2
 417 01b2 1A46     		mov	r2, r3
 418 01b4 97F84F30 		ldrb	r3, [r7, #79]	@ zero_extendqisi2
 419 01b8 42FA03F3 		asr	r3, r2, r3
 420 01bc 03F00103 		and	r3, r3, #1
 421 01c0 002B     		cmp	r3, #0
 422 01c2 19D0     		beq	.L31
 162:limits.c      ****           if (approach) { target[idx] = -max_travel; }
 423              		.loc 1 162 0
 424 01c4 97F84E30 		ldrb	r3, [r7, #78]	@ zero_extendqisi2
 425 01c8 002B     		cmp	r3, #0
 426 01ca 0BD0     		beq	.L32
 427              		.loc 1 162 0 is_stmt 0 discriminator 1
 428 01cc 97F84F30 		ldrb	r3, [r7, #79]	@ zero_extendqisi2
 429 01d0 3A6D     		ldr	r2, [r7, #80]
 430 01d2 82F00042 		eor	r2, r2, #-2147483648
 431 01d6 9B00     		lsls	r3, r3, #2
 432 01d8 07F15801 		add	r1, r7, #88
 433 01dc 0B44     		add	r3, r3, r1
 434 01de 43F84C2C 		str	r2, [r3, #-76]	@ float
 435 01e2 22E0     		b	.L34
 436              	.L32:
 163:limits.c      ****           else { target[idx] = max_travel; }
 437              		.loc 1 163 0 is_stmt 1
 438 01e4 97F84F30 		ldrb	r3, [r7, #79]	@ zero_extendqisi2
 439 01e8 9B00     		lsls	r3, r3, #2
 440 01ea 07F15802 		add	r2, r7, #88
 441 01ee 1344     		add	r3, r3, r2
 442 01f0 3A6D     		ldr	r2, [r7, #80]	@ float
 443 01f2 43F84C2C 		str	r2, [r3, #-76]	@ float
 444 01f6 18E0     		b	.L34
 445              	.L31:
 164:limits.c      ****         } else {
 165:limits.c      ****           if (approach) { target[idx] = max_travel; }
 446              		.loc 1 165 0
 447 01f8 97F84E30 		ldrb	r3, [r7, #78]	@ zero_extendqisi2
 448 01fc 002B     		cmp	r3, #0
 449 01fe 09D0     		beq	.L35
 450              		.loc 1 165 0 is_stmt 0 discriminator 1
 451 0200 97F84F30 		ldrb	r3, [r7, #79]	@ zero_extendqisi2
 452 0204 9B00     		lsls	r3, r3, #2
 453 0206 07F15802 		add	r2, r7, #88
 454 020a 1344     		add	r3, r3, r2
 455 020c 3A6D     		ldr	r2, [r7, #80]	@ float
 456 020e 43F84C2C 		str	r2, [r3, #-76]	@ float
 457 0212 0AE0     		b	.L34
 458              	.L35:
 166:limits.c      ****           else { target[idx] = -max_travel; }
ARM GAS  C:\Users\barto\AppData\Local\Temp\ccamTRzO.s 			page 12


 459              		.loc 1 166 0 is_stmt 1
 460 0214 97F84F30 		ldrb	r3, [r7, #79]	@ zero_extendqisi2
 461 0218 3A6D     		ldr	r2, [r7, #80]
 462 021a 82F00042 		eor	r2, r2, #-2147483648
 463 021e 9B00     		lsls	r3, r3, #2
 464 0220 07F15801 		add	r1, r7, #88
 465 0224 0B44     		add	r3, r3, r1
 466 0226 43F84C2C 		str	r2, [r3, #-76]	@ float
 467              	.L34:
 167:limits.c      ****         }
 168:limits.c      ****         // Apply axislock to the step port pins active in this cycle.
 169:limits.c      ****         axislock |= step_pin[idx];
 468              		.loc 1 169 0
 469 022a 97F84F30 		ldrb	r3, [r7, #79]	@ zero_extendqisi2
 470 022e 07F15802 		add	r2, r7, #88
 471 0232 1344     		add	r3, r3, r2
 472 0234 13F8402C 		ldrb	r2, [r3, #-64]	@ zero_extendqisi2
 473 0238 97F84730 		ldrb	r3, [r7, #71]
 474 023c 1343     		orrs	r3, r3, r2
 475 023e 87F84730 		strb	r3, [r7, #71]
 476              	.L27:
 141:limits.c      ****       // Set target location for active axes and setup computation for homing rate.
 477              		.loc 1 141 0 discriminator 2
 478 0242 97F84F30 		ldrb	r3, [r7, #79]	@ zero_extendqisi2
 479 0246 0133     		adds	r3, r3, #1
 480 0248 87F84F30 		strb	r3, [r7, #79]
 481              	.L26:
 141:limits.c      ****       // Set target location for active axes and setup computation for homing rate.
 482              		.loc 1 141 0 is_stmt 0 discriminator 1
 483 024c 97F84F30 		ldrb	r3, [r7, #79]	@ zero_extendqisi2
 484 0250 022B     		cmp	r3, #2
 485 0252 7FF67AAF 		bls	.L36
 170:limits.c      ****       }
 171:limits.c      **** 
 172:limits.c      ****     }
 173:limits.c      ****     homing_rate *= sqrt(n_active_axis); // [sqrt(N_AXIS)] Adjust so individual axes all move at hom
 486              		.loc 1 173 0 is_stmt 1
 487 0256 97F84630 		ldrb	r3, [r7, #70]	@ zero_extendqisi2
 488 025a 1846     		mov	r0, r3
 489 025c FFF7FEFF 		bl	__aeabi_ui2d
 490 0260 0346     		mov	r3, r0
 491 0262 0C46     		mov	r4, r1
 492 0264 1846     		mov	r0, r3
 493 0266 2146     		mov	r1, r4
 494 0268 FFF7FEFF 		bl	sqrt
 495 026c 0446     		mov	r4, r0
 496 026e 0D46     		mov	r5, r1
 497 0270 B86C     		ldr	r0, [r7, #72]	@ float
 498 0272 FFF7FEFF 		bl	__aeabi_f2d
 499 0276 2246     		mov	r2, r4
 500 0278 2B46     		mov	r3, r5
 501 027a FFF7FEFF 		bl	__aeabi_dmul
 502 027e 0346     		mov	r3, r0
 503 0280 0C46     		mov	r4, r1
 504 0282 1846     		mov	r0, r3
 505 0284 2146     		mov	r1, r4
 506 0286 FFF7FEFF 		bl	__aeabi_d2f
ARM GAS  C:\Users\barto\AppData\Local\Temp\ccamTRzO.s 			page 13


 507 028a 0346     		mov	r3, r0
 508 028c BB64     		str	r3, [r7, #72]	@ float
 174:limits.c      ****     sys.homing_axis_lock = axislock;
 509              		.loc 1 174 0
 510 028e 234A     		ldr	r2, .L64
 511 0290 97F84730 		ldrb	r3, [r7, #71]
 512 0294 9371     		strb	r3, [r2, #6]
 175:limits.c      **** 
 176:limits.c      ****     // Perform homing cycle. Planner buffer should be empty, as required to initiate the homing cyc
 177:limits.c      ****     pl_data->feed_rate = homing_rate; // Set current homing rate.
 513              		.loc 1 177 0
 514 0296 FB6B     		ldr	r3, [r7, #60]
 515 0298 BA6C     		ldr	r2, [r7, #72]	@ float
 516 029a 1A60     		str	r2, [r3]	@ float
 178:limits.c      ****     plan_buffer_line(target, pl_data); // Bypass mc_line(). Directly plan homing motion.
 517              		.loc 1 178 0
 518 029c 07F10C03 		add	r3, r7, #12
 519 02a0 F96B     		ldr	r1, [r7, #60]
 520 02a2 1846     		mov	r0, r3
 521 02a4 FFF7FEFF 		bl	plan_buffer_line
 179:limits.c      **** 
 180:limits.c      ****     sys.step_control = STEP_CONTROL_EXECUTE_SYS_MOTION; // Set to execute homing motion and clear e
 522              		.loc 1 180 0
 523 02a8 1C4B     		ldr	r3, .L64
 524 02aa 0422     		movs	r2, #4
 525 02ac 1A71     		strb	r2, [r3, #4]
 181:limits.c      ****     st_prep_buffer(); // Prep and fill segment buffer from newly planned block.
 526              		.loc 1 181 0
 527 02ae FFF7FEFF 		bl	st_prep_buffer
 182:limits.c      ****     st_wake_up(); // Initiate motion
 528              		.loc 1 182 0
 529 02b2 FFF7FEFF 		bl	st_wake_up
 530              	.L49:
 183:limits.c      ****     do {
 184:limits.c      ****       if (approach) {
 531              		.loc 1 184 0
 532 02b6 97F84E30 		ldrb	r3, [r7, #78]	@ zero_extendqisi2
 533 02ba 002B     		cmp	r3, #0
 534 02bc 50D0     		beq	.L37
 185:limits.c      ****         // Check limit state. Lock out cycle axes when they change.
 186:limits.c      ****         limit_state = limits_get_state();
 535              		.loc 1 186 0
 536 02be FFF7FEFF 		bl	limits_get_state
 537 02c2 0346     		mov	r3, r0
 538 02c4 87F83330 		strb	r3, [r7, #51]
 187:limits.c      ****         for (idx=0; idx<N_AXIS; idx++) {
 539              		.loc 1 187 0
 540 02c8 0023     		movs	r3, #0
 541 02ca 87F84F30 		strb	r3, [r7, #79]
 542 02ce 3FE0     		b	.L38
 543              	.L41:
 188:limits.c      ****           if (axislock & step_pin[idx]) {
 544              		.loc 1 188 0
 545 02d0 97F84F30 		ldrb	r3, [r7, #79]	@ zero_extendqisi2
 546 02d4 07F15802 		add	r2, r7, #88
 547 02d8 1344     		add	r3, r3, r2
 548 02da 13F8402C 		ldrb	r2, [r3, #-64]	@ zero_extendqisi2
ARM GAS  C:\Users\barto\AppData\Local\Temp\ccamTRzO.s 			page 14


 549 02de 97F84730 		ldrb	r3, [r7, #71]
 550 02e2 1340     		ands	r3, r3, r2
 551 02e4 DBB2     		uxtb	r3, r3
 552 02e6 002B     		cmp	r3, #0
 553 02e8 2DD0     		beq	.L39
 189:limits.c      ****             if (limit_state & (1 << idx)) {
 554              		.loc 1 189 0
 555 02ea 97F83320 		ldrb	r2, [r7, #51]	@ zero_extendqisi2
 556 02ee 97F84F30 		ldrb	r3, [r7, #79]	@ zero_extendqisi2
 557 02f2 42FA03F3 		asr	r3, r2, r3
 558 02f6 03F00103 		and	r3, r3, #1
 559 02fa 002B     		cmp	r3, #0
 560 02fc 23D0     		beq	.L39
 190:limits.c      ****               #ifdef COREXY
 191:limits.c      ****                 if (idx==Z_AXIS) { axislock &= ~(step_pin[Z_AXIS]); }
 561              		.loc 1 191 0
 562 02fe 97F84F30 		ldrb	r3, [r7, #79]	@ zero_extendqisi2
 563 0302 022B     		cmp	r3, #2
 564 0304 12D1     		bne	.L40
 565              		.loc 1 191 0 is_stmt 0 discriminator 1
 566 0306 BB7E     		ldrb	r3, [r7, #26]	@ zero_extendqisi2
 567 0308 5BB2     		sxtb	r3, r3
 568 030a DB43     		mvns	r3, r3
 569 030c 5AB2     		sxtb	r2, r3
 570 030e 97F94730 		ldrsb	r3, [r7, #71]
 571 0312 1340     		ands	r3, r3, r2
 572 0314 5BB2     		sxtb	r3, r3
 573 0316 87F84730 		strb	r3, [r7, #71]
 574 031a 14E0     		b	.L39
 575              	.L65:
 576              		.align	2
 577              	.L64:
 578 031c 00000000 		.word	sys
 579 0320 00000000 		.word	settings
 580 0324 0000F8BF 		.word	-1074266112
 581 0328 00000000 		.word	sys_position
 582              	.L40:
 192:limits.c      ****                 else { axislock &= ~(step_pin[A_MOTOR]|step_pin[B_MOTOR]); }
 583              		.loc 1 192 0 is_stmt 1
 584 032c 3A7E     		ldrb	r2, [r7, #24]	@ zero_extendqisi2
 585 032e 7B7E     		ldrb	r3, [r7, #25]	@ zero_extendqisi2
 586 0330 1343     		orrs	r3, r3, r2
 587 0332 DBB2     		uxtb	r3, r3
 588 0334 5BB2     		sxtb	r3, r3
 589 0336 DB43     		mvns	r3, r3
 590 0338 5AB2     		sxtb	r2, r3
 591 033a 97F94730 		ldrsb	r3, [r7, #71]
 592 033e 1340     		ands	r3, r3, r2
 593 0340 5BB2     		sxtb	r3, r3
 594 0342 87F84730 		strb	r3, [r7, #71]
 595              	.L39:
 187:limits.c      ****           if (axislock & step_pin[idx]) {
 596              		.loc 1 187 0 discriminator 2
 597 0346 97F84F30 		ldrb	r3, [r7, #79]	@ zero_extendqisi2
 598 034a 0133     		adds	r3, r3, #1
 599 034c 87F84F30 		strb	r3, [r7, #79]
 600              	.L38:
ARM GAS  C:\Users\barto\AppData\Local\Temp\ccamTRzO.s 			page 15


 187:limits.c      ****           if (axislock & step_pin[idx]) {
 601              		.loc 1 187 0 is_stmt 0 discriminator 1
 602 0350 97F84F30 		ldrb	r3, [r7, #79]	@ zero_extendqisi2
 603 0354 022B     		cmp	r3, #2
 604 0356 BBD9     		bls	.L41
 193:limits.c      ****               #else
 194:limits.c      ****                 axislock &= ~(step_pin[idx]);
 195:limits.c      ****               #endif
 196:limits.c      ****             }
 197:limits.c      ****           }
 198:limits.c      ****         }
 199:limits.c      ****         sys.homing_axis_lock = axislock;
 605              		.loc 1 199 0 is_stmt 1
 606 0358 904A     		ldr	r2, .L66
 607 035a 97F84730 		ldrb	r3, [r7, #71]
 608 035e 9371     		strb	r3, [r2, #6]
 609              	.L37:
 200:limits.c      ****       }
 201:limits.c      **** 
 202:limits.c      ****       st_prep_buffer(); // Check and prep segment buffer. NOTE: Should take no longer than 200us.
 610              		.loc 1 202 0
 611 0360 FFF7FEFF 		bl	st_prep_buffer
 203:limits.c      **** 
 204:limits.c      ****       // Exit routines: No time to run protocol_execute_realtime() in this loop.
 205:limits.c      ****       if (sys_rt_exec_state & (EXEC_SAFETY_DOOR | EXEC_RESET | EXEC_CYCLE_STOP)) {
 612              		.loc 1 205 0
 613 0364 8E4B     		ldr	r3, .L66+4
 614 0366 1B78     		ldrb	r3, [r3]
 615 0368 DBB2     		uxtb	r3, r3
 616 036a 03F03403 		and	r3, r3, #52
 617 036e 002B     		cmp	r3, #0
 618 0370 43D0     		beq	.L42
 619              	.LBB4:
 206:limits.c      ****         uint8_t rt_exec = sys_rt_exec_state;
 620              		.loc 1 206 0
 621 0372 8B4B     		ldr	r3, .L66+4
 622 0374 1B78     		ldrb	r3, [r3]
 623 0376 87F83230 		strb	r3, [r7, #50]
 207:limits.c      ****         // Homing failure condition: Reset issued during cycle.
 208:limits.c      ****         if (rt_exec & EXEC_RESET) { system_set_exec_alarm(EXEC_ALARM_HOMING_FAIL_RESET); }
 624              		.loc 1 208 0
 625 037a 97F83230 		ldrb	r3, [r7, #50]	@ zero_extendqisi2
 626 037e 03F01003 		and	r3, r3, #16
 627 0382 002B     		cmp	r3, #0
 628 0384 02D0     		beq	.L43
 629              		.loc 1 208 0 is_stmt 0 discriminator 1
 630 0386 0620     		movs	r0, #6
 631 0388 FFF7FEFF 		bl	system_set_exec_alarm
 632              	.L43:
 209:limits.c      ****         // Homing failure condition: Safety door was opened.
 210:limits.c      ****         if (rt_exec & EXEC_SAFETY_DOOR) { system_set_exec_alarm(EXEC_ALARM_HOMING_FAIL_DOOR); }
 633              		.loc 1 210 0 is_stmt 1
 634 038c 97F83230 		ldrb	r3, [r7, #50]	@ zero_extendqisi2
 635 0390 03F02003 		and	r3, r3, #32
 636 0394 002B     		cmp	r3, #0
 637 0396 02D0     		beq	.L44
 638              		.loc 1 210 0 is_stmt 0 discriminator 1
ARM GAS  C:\Users\barto\AppData\Local\Temp\ccamTRzO.s 			page 16


 639 0398 0720     		movs	r0, #7
 640 039a FFF7FEFF 		bl	system_set_exec_alarm
 641              	.L44:
 211:limits.c      ****         // Homing failure condition: Limit switch still engaged after pull-off motion
 212:limits.c      ****         if (!approach && (limits_get_state() & cycle_mask)) { system_set_exec_alarm(EXEC_ALARM_HOMI
 642              		.loc 1 212 0 is_stmt 1
 643 039e 97F84E30 		ldrb	r3, [r7, #78]
 644 03a2 83F00103 		eor	r3, r3, #1
 645 03a6 DBB2     		uxtb	r3, r3
 646 03a8 002B     		cmp	r3, #0
 647 03aa 0BD0     		beq	.L45
 648              		.loc 1 212 0 is_stmt 0 discriminator 1
 649 03ac FFF7FEFF 		bl	limits_get_state
 650 03b0 0346     		mov	r3, r0
 651 03b2 1A46     		mov	r2, r3
 652 03b4 FB79     		ldrb	r3, [r7, #7]
 653 03b6 1340     		ands	r3, r3, r2
 654 03b8 DBB2     		uxtb	r3, r3
 655 03ba 002B     		cmp	r3, #0
 656 03bc 02D0     		beq	.L45
 657              		.loc 1 212 0 discriminator 2
 658 03be 0820     		movs	r0, #8
 659 03c0 FFF7FEFF 		bl	system_set_exec_alarm
 660              	.L45:
 213:limits.c      ****         // Homing failure condition: Limit switch not found during approach.
 214:limits.c      ****         if (approach && (rt_exec & EXEC_CYCLE_STOP)) { system_set_exec_alarm(EXEC_ALARM_HOMING_FAIL
 661              		.loc 1 214 0 is_stmt 1
 662 03c4 97F84E30 		ldrb	r3, [r7, #78]	@ zero_extendqisi2
 663 03c8 002B     		cmp	r3, #0
 664 03ca 08D0     		beq	.L46
 665              		.loc 1 214 0 is_stmt 0 discriminator 1
 666 03cc 97F83230 		ldrb	r3, [r7, #50]	@ zero_extendqisi2
 667 03d0 03F00403 		and	r3, r3, #4
 668 03d4 002B     		cmp	r3, #0
 669 03d6 02D0     		beq	.L46
 670              		.loc 1 214 0 discriminator 2
 671 03d8 0920     		movs	r0, #9
 672 03da FFF7FEFF 		bl	system_set_exec_alarm
 673              	.L46:
 215:limits.c      ****         if (sys_rt_exec_alarm) {
 674              		.loc 1 215 0 is_stmt 1
 675 03de 714B     		ldr	r3, .L66+8
 676 03e0 1B78     		ldrb	r3, [r3]
 677 03e2 DBB2     		uxtb	r3, r3
 678 03e4 002B     		cmp	r3, #0
 679 03e6 04D0     		beq	.L47
 216:limits.c      ****           mc_reset(); // Stop motors, if they are running.
 680              		.loc 1 216 0
 681 03e8 FFF7FEFF 		bl	mc_reset
 217:limits.c      ****           protocol_execute_realtime();
 682              		.loc 1 217 0
 683 03ec FFF7FEFF 		bl	protocol_execute_realtime
 218:limits.c      ****           return;
 684              		.loc 1 218 0
 685 03f0 D1E0     		b	.L15
 686              	.L47:
 219:limits.c      ****         } else {
ARM GAS  C:\Users\barto\AppData\Local\Temp\ccamTRzO.s 			page 17


 220:limits.c      ****           // Pull-off motion complete. Disable CYCLE_STOP from executing.
 221:limits.c      ****           system_clear_exec_state_flag(EXEC_CYCLE_STOP);
 687              		.loc 1 221 0
 688 03f2 0420     		movs	r0, #4
 689 03f4 FFF7FEFF 		bl	system_clear_exec_state_flag
 222:limits.c      ****           break;
 690              		.loc 1 222 0
 691 03f8 07E0     		b	.L48
 692              	.L42:
 693              	.LBE4:
 223:limits.c      ****         }
 224:limits.c      ****       }
 225:limits.c      **** 
 226:limits.c      ****     } while (STEP_MASK & axislock);
 694              		.loc 1 226 0
 695 03fa 97F84730 		ldrb	r3, [r7, #71]
 696 03fe 03F03F03 		and	r3, r3, #63
 697 0402 DBB2     		uxtb	r3, r3
 698 0404 002B     		cmp	r3, #0
 699 0406 7FF456AF 		bne	.L49
 700              	.L48:
 227:limits.c      **** 
 228:limits.c      ****     st_reset(); // Immediately force kill steppers and reset step segment buffer.
 701              		.loc 1 228 0
 702 040a FFF7FEFF 		bl	st_reset
 229:limits.c      ****     delay_ms(settings.homing_debounce_delay); // Delay to allow transient dynamics to dissipate.
 703              		.loc 1 229 0
 704 040e 664B     		ldr	r3, .L66+12
 705 0410 B3F85430 		ldrh	r3, [r3, #84]
 706 0414 1846     		mov	r0, r3
 707 0416 FFF7FEFF 		bl	CyDelay
 230:limits.c      **** 
 231:limits.c      ****     // Reverse direction and reset homing rate for locate cycle(s).
 232:limits.c      ****     approach = !approach;
 708              		.loc 1 232 0
 709 041a 97F84E30 		ldrb	r3, [r7, #78]	@ zero_extendqisi2
 710 041e 002B     		cmp	r3, #0
 711 0420 14BF     		ite	ne
 712 0422 0123     		movne	r3, #1
 713 0424 0023     		moveq	r3, #0
 714 0426 DBB2     		uxtb	r3, r3
 715 0428 83F00103 		eor	r3, r3, #1
 716 042c DBB2     		uxtb	r3, r3
 717 042e 87F84E30 		strb	r3, [r7, #78]
 718 0432 97F84E30 		ldrb	r3, [r7, #78]
 719 0436 03F00103 		and	r3, r3, #1
 720 043a 87F84E30 		strb	r3, [r7, #78]
 233:limits.c      **** 
 234:limits.c      ****     // After first cycle, homing enters locating phase. Shorten search to pull-off distance.
 235:limits.c      ****     if (approach) {
 721              		.loc 1 235 0
 722 043e 97F84E30 		ldrb	r3, [r7, #78]	@ zero_extendqisi2
 723 0442 002B     		cmp	r3, #0
 724 0444 0BD0     		beq	.L50
 236:limits.c      ****       max_travel = settings.homing_pulloff*HOMING_AXIS_LOCATE_SCALAR;
 725              		.loc 1 236 0
 726 0446 584B     		ldr	r3, .L66+12
ARM GAS  C:\Users\barto\AppData\Local\Temp\ccamTRzO.s 			page 18


 727 0448 9B6D     		ldr	r3, [r3, #88]	@ float
 728 044a 5849     		ldr	r1, .L66+16
 729 044c 1846     		mov	r0, r3
 730 044e FFF7FEFF 		bl	__aeabi_fmul
 731 0452 0346     		mov	r3, r0
 732 0454 3B65     		str	r3, [r7, #80]	@ float
 237:limits.c      ****       homing_rate = settings.homing_feed_rate;
 733              		.loc 1 237 0
 734 0456 544B     		ldr	r3, .L66+12
 735 0458 DB6C     		ldr	r3, [r3, #76]	@ float
 736 045a BB64     		str	r3, [r7, #72]	@ float
 737 045c 05E0     		b	.L51
 738              	.L50:
 238:limits.c      ****     } else {
 239:limits.c      ****       max_travel = settings.homing_pulloff;
 739              		.loc 1 239 0
 740 045e 524B     		ldr	r3, .L66+12
 741 0460 9B6D     		ldr	r3, [r3, #88]	@ float
 742 0462 3B65     		str	r3, [r7, #80]	@ float
 240:limits.c      ****       homing_rate = settings.homing_seek_rate;
 743              		.loc 1 240 0
 744 0464 504B     		ldr	r3, .L66+12
 745 0466 1B6D     		ldr	r3, [r3, #80]	@ float
 746 0468 BB64     		str	r3, [r7, #72]	@ float
 747              	.L51:
 241:limits.c      ****     }
 242:limits.c      **** 
 243:limits.c      ****   } while (n_cycle-- > 0);
 748              		.loc 1 243 0
 749 046a 97F85730 		ldrb	r3, [r7, #87]	@ zero_extendqisi2
 750 046e 5A1E     		subs	r2, r3, #1
 751 0470 87F85720 		strb	r2, [r7, #87]
 752 0474 002B     		cmp	r3, #0
 753 0476 7FF458AE 		bne	.L52
 244:limits.c      **** 
 245:limits.c      ****   // The active cycle axes should now be homed and machine limits have been located. By
 246:limits.c      ****   // default, Grbl defines machine space as all negative, as do most CNCs. Since limit switches
 247:limits.c      ****   // can be on either side of an axes, check and set axes machine zero appropriately. Also,
 248:limits.c      ****   // set up pull-off maneuver from axes limit switches that have been homed. This provides
 249:limits.c      ****   // some initial clearance off the switches and should also help prevent them from falsely
 250:limits.c      ****   // triggering when hard limits are enabled or when more than one axes shares a limit pin.
 251:limits.c      ****   int32_t set_axis_position;
 252:limits.c      ****   // Set machine positions for homed limit switches. Don't update non-homed axes.
 253:limits.c      ****   for (idx=0; idx<N_AXIS; idx++) {
 754              		.loc 1 253 0
 755 047a 0023     		movs	r3, #0
 756 047c 87F84F30 		strb	r3, [r7, #79]
 757 0480 7FE0     		b	.L53
 758              	.L59:
 254:limits.c      ****     // NOTE: settings.max_travel[] is stored as a negative value.
 255:limits.c      ****     if (cycle_mask & bit(idx)) {
 759              		.loc 1 255 0
 760 0482 FA79     		ldrb	r2, [r7, #7]	@ zero_extendqisi2
 761 0484 97F84F30 		ldrb	r3, [r7, #79]	@ zero_extendqisi2
 762 0488 42FA03F3 		asr	r3, r2, r3
 763 048c 03F00103 		and	r3, r3, #1
 764 0490 002B     		cmp	r3, #0
ARM GAS  C:\Users\barto\AppData\Local\Temp\ccamTRzO.s 			page 19


 765 0492 71D0     		beq	.L54
 256:limits.c      ****       #ifdef HOMING_FORCE_SET_ORIGIN
 257:limits.c      ****         set_axis_position = 0;
 258:limits.c      ****       #else
 259:limits.c      ****         if ( bit_istrue(settings.homing_dir_mask,bit(idx)) ) {
 766              		.loc 1 259 0
 767 0494 444B     		ldr	r3, .L66+12
 768 0496 93F84930 		ldrb	r3, [r3, #73]	@ zero_extendqisi2
 769 049a 1A46     		mov	r2, r3
 770 049c 97F84F30 		ldrb	r3, [r7, #79]	@ zero_extendqisi2
 771 04a0 42FA03F3 		asr	r3, r2, r3
 772 04a4 03F00103 		and	r3, r3, #1
 773 04a8 002B     		cmp	r3, #0
 774 04aa 22D0     		beq	.L55
 260:limits.c      ****           set_axis_position = lround((settings.max_travel[idx]+settings.homing_pulloff)*settings.st
 775              		.loc 1 260 0
 776 04ac 97F84F30 		ldrb	r3, [r7, #79]	@ zero_extendqisi2
 777 04b0 3D4A     		ldr	r2, .L66+12
 778 04b2 0833     		adds	r3, r3, #8
 779 04b4 9B00     		lsls	r3, r3, #2
 780 04b6 1344     		add	r3, r3, r2
 781 04b8 5A68     		ldr	r2, [r3, #4]	@ float
 782 04ba 3B4B     		ldr	r3, .L66+12
 783 04bc 9B6D     		ldr	r3, [r3, #88]	@ float
 784 04be 1946     		mov	r1, r3
 785 04c0 1046     		mov	r0, r2
 786 04c2 FFF7FEFF 		bl	__aeabi_fadd
 787 04c6 0346     		mov	r3, r0
 788 04c8 1846     		mov	r0, r3
 789 04ca 97F84F30 		ldrb	r3, [r7, #79]	@ zero_extendqisi2
 790 04ce 364A     		ldr	r2, .L66+12
 791 04d0 52F82330 		ldr	r3, [r2, r3, lsl #2]	@ float
 792 04d4 1946     		mov	r1, r3
 793 04d6 FFF7FEFF 		bl	__aeabi_fmul
 794 04da 0346     		mov	r3, r0
 795 04dc 1846     		mov	r0, r3
 796 04de FFF7FEFF 		bl	__aeabi_f2d
 797 04e2 0346     		mov	r3, r0
 798 04e4 0C46     		mov	r4, r1
 799 04e6 1846     		mov	r0, r3
 800 04e8 2146     		mov	r1, r4
 801 04ea FFF7FEFF 		bl	lround
 802 04ee 3864     		str	r0, [r7, #64]
 803 04f0 16E0     		b	.L56
 804              	.L55:
 261:limits.c      ****         } else {
 262:limits.c      ****           set_axis_position = lround(-settings.homing_pulloff*settings.steps_per_mm[idx]);
 805              		.loc 1 262 0
 806 04f2 2D4B     		ldr	r3, .L66+12
 807 04f4 9B6D     		ldr	r3, [r3, #88]	@ float
 808 04f6 83F00040 		eor	r0, r3, #-2147483648
 809 04fa 97F84F30 		ldrb	r3, [r7, #79]	@ zero_extendqisi2
 810 04fe 2A4A     		ldr	r2, .L66+12
 811 0500 52F82330 		ldr	r3, [r2, r3, lsl #2]	@ float
 812 0504 1946     		mov	r1, r3
 813 0506 FFF7FEFF 		bl	__aeabi_fmul
 814 050a 0346     		mov	r3, r0
ARM GAS  C:\Users\barto\AppData\Local\Temp\ccamTRzO.s 			page 20


 815 050c 1846     		mov	r0, r3
 816 050e FFF7FEFF 		bl	__aeabi_f2d
 817 0512 0346     		mov	r3, r0
 818 0514 0C46     		mov	r4, r1
 819 0516 1846     		mov	r0, r3
 820 0518 2146     		mov	r1, r4
 821 051a FFF7FEFF 		bl	lround
 822 051e 3864     		str	r0, [r7, #64]
 823              	.L56:
 263:limits.c      ****         }
 264:limits.c      ****       #endif
 265:limits.c      **** 
 266:limits.c      ****       #ifdef COREXY
 267:limits.c      ****         if (idx==X_AXIS) {
 824              		.loc 1 267 0
 825 0520 97F84F30 		ldrb	r3, [r7, #79]	@ zero_extendqisi2
 826 0524 002B     		cmp	r3, #0
 827 0526 0ED1     		bne	.L57
 828              	.LBB5:
 268:limits.c      ****           int32_t off_axis_position = system_convert_corexy_to_y_axis_steps(sys_position);
 829              		.loc 1 268 0
 830 0528 2148     		ldr	r0, .L66+20
 831 052a FFF7FEFF 		bl	system_convert_corexy_to_y_axis_steps
 832 052e F862     		str	r0, [r7, #44]
 269:limits.c      ****           sys_position[A_MOTOR] = set_axis_position + off_axis_position;
 833              		.loc 1 269 0
 834 0530 3A6C     		ldr	r2, [r7, #64]
 835 0532 FB6A     		ldr	r3, [r7, #44]
 836 0534 1344     		add	r3, r3, r2
 837 0536 1E4A     		ldr	r2, .L66+20
 838 0538 1360     		str	r3, [r2]
 270:limits.c      ****           sys_position[B_MOTOR] = set_axis_position - off_axis_position;
 839              		.loc 1 270 0
 840 053a 3A6C     		ldr	r2, [r7, #64]
 841 053c FB6A     		ldr	r3, [r7, #44]
 842 053e D31A     		subs	r3, r2, r3
 843 0540 1B4A     		ldr	r2, .L66+20
 844 0542 5360     		str	r3, [r2, #4]
 845              	.LBE5:
 846 0544 18E0     		b	.L54
 847              	.L57:
 271:limits.c      ****         } else if (idx==Y_AXIS) {
 848              		.loc 1 271 0
 849 0546 97F84F30 		ldrb	r3, [r7, #79]	@ zero_extendqisi2
 850 054a 012B     		cmp	r3, #1
 851 054c 0ED1     		bne	.L58
 852              	.LBB6:
 272:limits.c      ****           int32_t off_axis_position = system_convert_corexy_to_x_axis_steps(sys_position);
 853              		.loc 1 272 0
 854 054e 1848     		ldr	r0, .L66+20
 855 0550 FFF7FEFF 		bl	system_convert_corexy_to_x_axis_steps
 856 0554 B862     		str	r0, [r7, #40]
 273:limits.c      ****           sys_position[A_MOTOR] = off_axis_position + set_axis_position;
 857              		.loc 1 273 0
 858 0556 BA6A     		ldr	r2, [r7, #40]
 859 0558 3B6C     		ldr	r3, [r7, #64]
 860 055a 1344     		add	r3, r3, r2
ARM GAS  C:\Users\barto\AppData\Local\Temp\ccamTRzO.s 			page 21


 861 055c 144A     		ldr	r2, .L66+20
 862 055e 1360     		str	r3, [r2]
 274:limits.c      ****           sys_position[B_MOTOR] = off_axis_position - set_axis_position;
 863              		.loc 1 274 0
 864 0560 BA6A     		ldr	r2, [r7, #40]
 865 0562 3B6C     		ldr	r3, [r7, #64]
 866 0564 D31A     		subs	r3, r2, r3
 867 0566 124A     		ldr	r2, .L66+20
 868 0568 5360     		str	r3, [r2, #4]
 869              	.LBE6:
 870 056a 05E0     		b	.L54
 871              	.L58:
 275:limits.c      ****         } else {
 276:limits.c      ****           sys_position[idx] = set_axis_position;
 872              		.loc 1 276 0
 873 056c 97F84F30 		ldrb	r3, [r7, #79]	@ zero_extendqisi2
 874 0570 0F49     		ldr	r1, .L66+20
 875 0572 3A6C     		ldr	r2, [r7, #64]
 876 0574 41F82320 		str	r2, [r1, r3, lsl #2]
 877              	.L54:
 253:limits.c      ****     // NOTE: settings.max_travel[] is stored as a negative value.
 878              		.loc 1 253 0 discriminator 2
 879 0578 97F84F30 		ldrb	r3, [r7, #79]	@ zero_extendqisi2
 880 057c 0133     		adds	r3, r3, #1
 881 057e 87F84F30 		strb	r3, [r7, #79]
 882              	.L53:
 253:limits.c      ****     // NOTE: settings.max_travel[] is stored as a negative value.
 883              		.loc 1 253 0 is_stmt 0 discriminator 1
 884 0582 97F84F30 		ldrb	r3, [r7, #79]	@ zero_extendqisi2
 885 0586 022B     		cmp	r3, #2
 886 0588 7FF67BAF 		bls	.L59
 277:limits.c      ****         }
 278:limits.c      ****       #else
 279:limits.c      ****         sys_position[idx] = set_axis_position;
 280:limits.c      ****       #endif
 281:limits.c      **** 
 282:limits.c      ****     }
 283:limits.c      ****   }
 284:limits.c      ****   sys.step_control = STEP_CONTROL_NORMAL_OP; // Return step control to normal operation.
 887              		.loc 1 284 0 is_stmt 1
 888 058c 034B     		ldr	r3, .L66
 889 058e 0022     		movs	r2, #0
 890 0590 1A71     		strb	r2, [r3, #4]
 891 0592 00E0     		b	.L15
 892              	.L63:
  98:limits.c      **** 
 893              		.loc 1 98 0
 894 0594 00BF     		nop
 895              	.L15:
 285:limits.c      **** }
 896              		.loc 1 285 0
 897 0596 5837     		adds	r7, r7, #88
 898              		.cfi_def_cfa_offset 16
 899 0598 BD46     		mov	sp, r7
 900              		.cfi_def_cfa_register 13
 901              		@ sp needed
 902 059a B0BD     		pop	{r4, r5, r7, pc}
ARM GAS  C:\Users\barto\AppData\Local\Temp\ccamTRzO.s 			page 22


 903              	.L67:
 904              		.align	2
 905              	.L66:
 906 059c 00000000 		.word	sys
 907 05a0 00000000 		.word	sys_rt_exec_state
 908 05a4 00000000 		.word	sys_rt_exec_alarm
 909 05a8 00000000 		.word	settings
 910 05ac 0000A040 		.word	1084227584
 911 05b0 00000000 		.word	sys_position
 912              		.cfi_endproc
 913              	.LFE68:
 914              		.size	limits_go_home, .-limits_go_home
 915              		.section	.text.limits_soft_check,"ax",%progbits
 916              		.align	2
 917              		.global	limits_soft_check
 918              		.thumb
 919              		.thumb_func
 920              		.type	limits_soft_check, %function
 921              	limits_soft_check:
 922              	.LFB69:
 286:limits.c      **** 
 287:limits.c      **** 
 288:limits.c      **** // Performs a soft limit check. Called from mc_line() only. Assumes the machine has been homed,
 289:limits.c      **** // the workspace volume is in all negative space, and the system is in normal operation.
 290:limits.c      **** // NOTE: Used by jogging to limit travel within soft-limit volume.
 291:limits.c      **** void limits_soft_check(float *target)
 292:limits.c      **** {
 923              		.loc 1 292 0
 924              		.cfi_startproc
 925              		@ args = 0, pretend = 0, frame = 8
 926              		@ frame_needed = 1, uses_anonymous_args = 0
 927 0000 80B5     		push	{r7, lr}
 928              		.cfi_def_cfa_offset 8
 929              		.cfi_offset 7, -8
 930              		.cfi_offset 14, -4
 931 0002 82B0     		sub	sp, sp, #8
 932              		.cfi_def_cfa_offset 16
 933 0004 00AF     		add	r7, sp, #0
 934              		.cfi_def_cfa_register 7
 935 0006 7860     		str	r0, [r7, #4]
 293:limits.c      ****   if (system_check_travel_limits(target)) {
 936              		.loc 1 293 0
 937 0008 7868     		ldr	r0, [r7, #4]
 938 000a FFF7FEFF 		bl	system_check_travel_limits
 939 000e 0346     		mov	r3, r0
 940 0010 002B     		cmp	r3, #0
 941 0012 1DD0     		beq	.L68
 294:limits.c      ****     sys.soft_limit = true;
 942              		.loc 1 294 0
 943 0014 104B     		ldr	r3, .L74
 944 0016 0122     		movs	r2, #1
 945 0018 DA70     		strb	r2, [r3, #3]
 295:limits.c      ****     // Force feed hold if cycle is active. All buffered blocks are guaranteed to be within
 296:limits.c      ****     // workspace volume so just come to a controlled stop so position is not lost. When complete
 297:limits.c      ****     // enter alarm mode.
 298:limits.c      ****     if (sys.state == STATE_CYCLE) {
 946              		.loc 1 298 0
ARM GAS  C:\Users\barto\AppData\Local\Temp\ccamTRzO.s 			page 23


 947 001a 0F4B     		ldr	r3, .L74
 948 001c 1B78     		ldrb	r3, [r3]	@ zero_extendqisi2
 949 001e 082B     		cmp	r3, #8
 950 0020 0CD1     		bne	.L70
 299:limits.c      ****       system_set_exec_state_flag(EXEC_FEED_HOLD);
 951              		.loc 1 299 0
 952 0022 0820     		movs	r0, #8
 953 0024 FFF7FEFF 		bl	system_set_exec_state_flag
 954              	.L72:
 300:limits.c      ****       do {
 301:limits.c      ****         protocol_execute_realtime();
 955              		.loc 1 301 0
 956 0028 FFF7FEFF 		bl	protocol_execute_realtime
 302:limits.c      ****         if (sys.abort) { return; }
 957              		.loc 1 302 0
 958 002c 0A4B     		ldr	r3, .L74
 959 002e 5B78     		ldrb	r3, [r3, #1]	@ zero_extendqisi2
 960 0030 002B     		cmp	r3, #0
 961 0032 0CD1     		bne	.L73
 303:limits.c      ****       } while ( sys.state != STATE_IDLE );
 962              		.loc 1 303 0
 963 0034 084B     		ldr	r3, .L74
 964 0036 1B78     		ldrb	r3, [r3]	@ zero_extendqisi2
 965 0038 002B     		cmp	r3, #0
 966 003a F5D1     		bne	.L72
 967              	.L70:
 304:limits.c      ****     }
 305:limits.c      ****     mc_reset(); // Issue system reset and ensure spindle and coolant are shutdown.
 968              		.loc 1 305 0
 969 003c FFF7FEFF 		bl	mc_reset
 306:limits.c      ****     system_set_exec_alarm(EXEC_ALARM_SOFT_LIMIT); // Indicate soft limit critical event
 970              		.loc 1 306 0
 971 0040 0220     		movs	r0, #2
 972 0042 FFF7FEFF 		bl	system_set_exec_alarm
 307:limits.c      ****     protocol_execute_realtime(); // Execute to enter critical event loop and system abort
 973              		.loc 1 307 0
 974 0046 FFF7FEFF 		bl	protocol_execute_realtime
 308:limits.c      ****     return;
 975              		.loc 1 308 0
 976 004a 00BF     		nop
 977 004c 00E0     		b	.L68
 978              	.L73:
 302:limits.c      ****       } while ( sys.state != STATE_IDLE );
 979              		.loc 1 302 0
 980 004e 00BF     		nop
 981              	.L68:
 309:limits.c      ****   }
 310:limits.c      **** }
 982              		.loc 1 310 0
 983 0050 0837     		adds	r7, r7, #8
 984              		.cfi_def_cfa_offset 8
 985 0052 BD46     		mov	sp, r7
 986              		.cfi_def_cfa_register 13
 987              		@ sp needed
 988 0054 80BD     		pop	{r7, pc}
 989              	.L75:
 990 0056 00BF     		.align	2
ARM GAS  C:\Users\barto\AppData\Local\Temp\ccamTRzO.s 			page 24


 991              	.L74:
 992 0058 00000000 		.word	sys
 993              		.cfi_endproc
 994              	.LFE69:
 995              		.size	limits_soft_check, .-limits_soft_check
 996              		.text
 997              	.Letext0:
 998              		.file 2 "c:\\program files (x86)\\cypress\\psoc creator\\4.2\\psoc creator\\import\\gnu\\arm\\5.4.
 999              		.file 3 "c:\\program files (x86)\\cypress\\psoc creator\\4.2\\psoc creator\\import\\gnu\\arm\\5.4.
 1000              		.file 4 "settings.h"
 1001              		.file 5 "system.h"
 1002              		.file 6 "planner.h"
 1003              		.file 7 "Generated_Source\\PSoC5/core_cm3.h"