ARM GAS  C:\Users\barto\AppData\Local\Temp\ccV7xRs5.s 			page 1


   1              		.syntax unified
   2              		.cpu cortex-m3
   3              		.fpu softvfp
   4              		.eabi_attribute 20, 1
   5              		.eabi_attribute 21, 1
   6              		.eabi_attribute 23, 3
   7              		.eabi_attribute 24, 1
   8              		.eabi_attribute 25, 1
   9              		.eabi_attribute 26, 1
  10              		.eabi_attribute 30, 6
  11              		.eabi_attribute 34, 1
  12              		.eabi_attribute 18, 4
  13              		.thumb
  14              		.syntax unified
  15              		.file	"main.c"
  16              		.text
  17              	.Ltext0:
  18              		.cfi_sections	.debug_frame
  19              		.comm	sys_position,12,4
  20              		.comm	sys_probe_position,12,4
  21              		.comm	sys_probe_state,1,1
  22              		.comm	sys_rt_exec_state,1,1
  23              		.comm	sys_rt_exec_alarm,1,1
  24              		.comm	sys_rt_exec_motion_override,1,1
  25              		.comm	sys_rt_exec_accessory_override,1,1
  26              		.syntax unified
  27              		.global _printf_float
  28              		.thumb
  29              		.syntax unified
  30              		.comm	sys,20,4
  31              		.section	.text.main,"ax",%progbits
  32              		.align	2
  33              		.global	main
  34              		.thumb
  35              		.thumb_func
  36              		.type	main, %function
  37              	main:
  38              	.LFB64:
  39              		.file 1 "main.c"
   1:main.c        **** /*
   2:main.c        ****   main.c - An embedded CNC Controller with rs274/ngc (g-code) support
   3:main.c        ****   Part of Grbl
   4:main.c        ****   Copyright (c) 2011-2016 Sungeun K. Jeon for Gnea Research LLC
   5:main.c        ****   Copyright (c) 2009-2011 Simen Svale Skogsrud
   6:main.c        ****       Updated For PSOC BJD 2017
   7:main.c        **** 
   8:main.c        ****   Grbl is free software: you can redistribute it and/or modify
   9:main.c        ****   it under the terms of the GNU General Public License as published by
  10:main.c        ****   the Free Software Foundation, either version 3 of the License, or
  11:main.c        ****   (at your option) any later version.
  12:main.c        ****   Grbl is distributed in the hope that it will be useful,
  13:main.c        ****   but WITHOUT ANY WARRANTY; without even the implied warranty of
  14:main.c        ****   MERCHANTABILITY or FITNESS FOR A PARTICULAR PURPOSE.  See the
  15:main.c        ****   GNU General Public License for more details.
  16:main.c        ****   You should have received a copy of the GNU General Public License
  17:main.c        ****   along with Grbl.  If not, see <http://www.gnu.org/licenses/>.
  18:main.c        **** */
ARM GAS  C:\Users\barto\AppData\Local\Temp\ccV7xRs5.s 			page 2


  19:main.c        **** 
  20:main.c        **** #include "grbl.h"
  21:main.c        **** 
  22:main.c        **** #if defined (__GNUC__)
  23:main.c        ****     /* Add an explicit reference to the floating point printf library */
  24:main.c        ****     /* to allow usage of the floating point conversion specifiers. */
  25:main.c        ****     /* This is not linked in by default with the newlib-nano library. */
  26:main.c        ****     asm (".global _printf_float");
  27:main.c        **** #endif
  28:main.c        **** 
  29:main.c        **** 
  30:main.c        **** 
  31:main.c        **** /*******************************************************************************
  32:main.c        **** * Function Name: main
  33:main.c        **** ********************************************************************************
  34:main.c        **** *
  35:main.c        **** * Summary:
  36:main.c        **** *  The main function performs the following actions:
  37:main.c        **** *   1. Waits until VBUS becomes valid and starts the USBFS component which is
  38:main.c        **** *      enumerated as virtual Com port.
  39:main.c        **** *   2. Waits until the device is enumerated by the host.
  40:main.c        **** *   3. Waits for data coming from the hyper terminal and sends it back.
  41:main.c        **** *   4. PSoC3/PSoC5LP: the LCD shows the line settings.
  42:main.c        **** *
  43:main.c        **** * Parameters:
  44:main.c        **** *  None.
  45:main.c        **** *
  46:main.c        **** * Return:
  47:main.c        **** *  None.
  48:main.c        **** *
  49:main.c        **** *******************************************************************************/
  50:main.c        **** 
  51:main.c        **** #include "grbl.h"
  52:main.c        **** 
  53:main.c        **** // Declare system global variable structure
  54:main.c        **** system_t sys; 
  55:main.c        **** 
  56:main.c        **** int main()
  57:main.c        **** {    
  40              		.loc 1 57 0
  41              		.cfi_startproc
  42              		@ args = 0, pretend = 0, frame = 8
  43              		@ frame_needed = 1, uses_anonymous_args = 0
  44 0000 80B5     		push	{r7, lr}
  45              		.cfi_def_cfa_offset 8
  46              		.cfi_offset 7, -8
  47              		.cfi_offset 14, -4
  48 0002 82B0     		sub	sp, sp, #8
  49              		.cfi_def_cfa_offset 16
  50 0004 00AF     		add	r7, sp, #0
  51              		.cfi_def_cfa_register 7
  58:main.c        ****     
  59:main.c        ****     CyGlobalIntEnable;       
  52              		.loc 1 59 0
  53              		.syntax unified
  54              	@ 59 "main.c" 1
  55 0006 62B6     		CPSIE   i
ARM GAS  C:\Users\barto\AppData\Local\Temp\ccV7xRs5.s 			page 3


  56              	@ 0 "" 2
  60:main.c        ****     serial_init();
  57              		.loc 1 60 0
  58              		.thumb
  59              		.syntax unified
  60 0008 FFF7FEFF 		bl	serial_init
  61:main.c        ****     settings_init(); // Load Grbl settings from EEPROM
  61              		.loc 1 61 0
  62 000c FFF7FEFF 		bl	settings_init
  62:main.c        ****     stepper_init();
  63              		.loc 1 62 0
  64 0010 FFF7FEFF 		bl	stepper_init
  63:main.c        ****     system_init();
  65              		.loc 1 63 0
  66 0014 FFF7FEFF 		bl	system_init
  64:main.c        ****     
  65:main.c        ****     memset(sys_position,0,sizeof(sys_position)); // Clear machine position
  67              		.loc 1 65 0
  68 0018 0C22     		movs	r2, #12
  69 001a 0021     		movs	r1, #0
  70 001c 2848     		ldr	r0, .L3
  71 001e FFF7FEFF 		bl	memset
  66:main.c        ****     //memset(&sys, 0, sizeof(sys));  // Clear all system variables
  67:main.c        ****     //sys.abort = true;   // Set abort to complete initialization
  68:main.c        ****     
  69:main.c        ****     // Initialize system state.
  70:main.c        ****     #ifdef FORCE_INITIALIZATION_ALARM
  71:main.c        ****       // Force Grbl into an ALARM state upon a power-cycle or hard reset.
  72:main.c        ****       sys.state = STATE_ALARM;
  73:main.c        ****     #else
  74:main.c        ****       sys.state = STATE_IDLE;
  72              		.loc 1 74 0
  73 0022 284B     		ldr	r3, .L3+4
  74 0024 0022     		movs	r2, #0
  75 0026 1A70     		strb	r2, [r3]
  75:main.c        ****     #endif
  76:main.c        ****     
  77:main.c        ****     // Check for power-up and set system alarm if homing is enabled to force homing cycle
  78:main.c        ****     // by setting Grbl's alarm state. Alarm locks out all g-code commands, including the
  79:main.c        ****     // startup scripts, but allows access to settings and internal commands. Only a homing
  80:main.c        ****     // cycle '$H' or kill alarm locks '$X' will disable the alarm.
  81:main.c        ****     // NOTE: The startup script will run after successful completion of the homing cycle, but
  82:main.c        ****     // not after disabling the alarm locks. Prevents motion startup blocks from crashing into
  83:main.c        ****     // things uncontrollably. Very bad.
  84:main.c        ****     #ifdef HOMING_INIT_LOCK
  85:main.c        ****       if (bit_istrue(settings.flags,BITFLAG_HOMING_ENABLE)) { sys.state = STATE_ALARM; }
  76              		.loc 1 85 0
  77 0028 274B     		ldr	r3, .L3+8
  78 002a 93F84830 		ldrb	r3, [r3, #72]	@ zero_extendqisi2
  79 002e 03F01003 		and	r3, r3, #16
  80 0032 002B     		cmp	r3, #0
  81 0034 02D0     		beq	.L2
  82              		.loc 1 85 0 is_stmt 0 discriminator 1
  83 0036 234B     		ldr	r3, .L3+4
  84 0038 0122     		movs	r2, #1
  85 003a 1A70     		strb	r2, [r3]
  86              	.L2:
ARM GAS  C:\Users\barto\AppData\Local\Temp\ccV7xRs5.s 			page 4


  87              	.LBB2:
  86:main.c        ****     #endif
  87:main.c        ****     
  88:main.c        ****     for(;;)
  89:main.c        ****     {
  90:main.c        ****         // Reset system variables.
  91:main.c        ****         uint8_t prior_state = sys.state;
  88              		.loc 1 91 0 is_stmt 1 discriminator 1
  89 003c 214B     		ldr	r3, .L3+4
  90 003e 1B78     		ldrb	r3, [r3]
  91 0040 FB71     		strb	r3, [r7, #7]
  92:main.c        ****         memset(&sys, 0, sizeof(system_t)); // Clear system struct variable.
  92              		.loc 1 92 0 discriminator 1
  93 0042 1422     		movs	r2, #20
  94 0044 0021     		movs	r1, #0
  95 0046 1F48     		ldr	r0, .L3+4
  96 0048 FFF7FEFF 		bl	memset
  93:main.c        ****         sys.state = prior_state;
  97              		.loc 1 93 0 discriminator 1
  98 004c 1D4A     		ldr	r2, .L3+4
  99 004e FB79     		ldrb	r3, [r7, #7]
 100 0050 1370     		strb	r3, [r2]
  94:main.c        ****         sys.f_override = DEFAULT_FEED_OVERRIDE;  // Set to 100%
 101              		.loc 1 94 0 discriminator 1
 102 0052 1C4B     		ldr	r3, .L3+4
 103 0054 6422     		movs	r2, #100
 104 0056 DA71     		strb	r2, [r3, #7]
  95:main.c        ****         sys.r_override = DEFAULT_RAPID_OVERRIDE; // Set to 100%
 105              		.loc 1 95 0 discriminator 1
 106 0058 1A4B     		ldr	r3, .L3+4
 107 005a 6422     		movs	r2, #100
 108 005c 1A72     		strb	r2, [r3, #8]
  96:main.c        ****         sys.spindle_speed_ovr = DEFAULT_SPINDLE_SPEED_OVERRIDE; // Set to 100%
 109              		.loc 1 96 0 discriminator 1
 110 005e 194B     		ldr	r3, .L3+4
 111 0060 6422     		movs	r2, #100
 112 0062 5A72     		strb	r2, [r3, #9]
  97:main.c        ****     		memset(sys_probe_position,0,sizeof(sys_probe_position)); // Clear probe position.
 113              		.loc 1 97 0 discriminator 1
 114 0064 0C22     		movs	r2, #12
 115 0066 0021     		movs	r1, #0
 116 0068 1848     		ldr	r0, .L3+12
 117 006a FFF7FEFF 		bl	memset
  98:main.c        ****         sys_probe_state = 0;
 118              		.loc 1 98 0 discriminator 1
 119 006e 184B     		ldr	r3, .L3+16
 120 0070 0022     		movs	r2, #0
 121 0072 1A70     		strb	r2, [r3]
  99:main.c        ****         sys_rt_exec_state = 0;
 122              		.loc 1 99 0 discriminator 1
 123 0074 174B     		ldr	r3, .L3+20
 124 0076 0022     		movs	r2, #0
 125 0078 1A70     		strb	r2, [r3]
 100:main.c        ****         sys_rt_exec_alarm = 0;
 126              		.loc 1 100 0 discriminator 1
 127 007a 174B     		ldr	r3, .L3+24
 128 007c 0022     		movs	r2, #0
ARM GAS  C:\Users\barto\AppData\Local\Temp\ccV7xRs5.s 			page 5


 129 007e 1A70     		strb	r2, [r3]
 101:main.c        ****         sys_rt_exec_motion_override = 0;
 130              		.loc 1 101 0 discriminator 1
 131 0080 164B     		ldr	r3, .L3+28
 132 0082 0022     		movs	r2, #0
 133 0084 1A70     		strb	r2, [r3]
 102:main.c        ****         sys_rt_exec_accessory_override = 0;
 134              		.loc 1 102 0 discriminator 1
 135 0086 164B     		ldr	r3, .L3+32
 136 0088 0022     		movs	r2, #0
 137 008a 1A70     		strb	r2, [r3]
 103:main.c        ****       
 104:main.c        ****       
 105:main.c        ****         // Reset Grbl primary systems.
 106:main.c        ****         serial_reset_read_buffer(); // Clear serial read buffer
 138              		.loc 1 106 0 discriminator 1
 139 008c FFF7FEFF 		bl	serial_reset_read_buffer
 107:main.c        ****         gc_init(); // Set g-code parser to default state
 140              		.loc 1 107 0 discriminator 1
 141 0090 FFF7FEFF 		bl	gc_init
 108:main.c        ****         spindle_init();
 142              		.loc 1 108 0 discriminator 1
 143 0094 FFF7FEFF 		bl	spindle_init
 109:main.c        ****         coolant_init();
 144              		.loc 1 109 0 discriminator 1
 145 0098 FFF7FEFF 		bl	coolant_init
 110:main.c        ****         limits_init();
 146              		.loc 1 110 0 discriminator 1
 147 009c FFF7FEFF 		bl	limits_init
 111:main.c        ****         probe_init();
 148              		.loc 1 111 0 discriminator 1
 149 00a0 FFF7FEFF 		bl	probe_init
 112:main.c        ****         plan_reset(); // Clear block buffer and planner variables
 150              		.loc 1 112 0 discriminator 1
 151 00a4 FFF7FEFF 		bl	plan_reset
 113:main.c        ****         st_reset(); // Clear stepper subsystem variables.
 152              		.loc 1 113 0 discriminator 1
 153 00a8 FFF7FEFF 		bl	st_reset
 114:main.c        ****     
 115:main.c        ****         // Sync cleared gcode and planner positions to current system position.
 116:main.c        ****         plan_sync_position();    
 154              		.loc 1 116 0 discriminator 1
 155 00ac FFF7FEFF 		bl	plan_sync_position
 117:main.c        ****         gc_sync_position();
 156              		.loc 1 117 0 discriminator 1
 157 00b0 FFF7FEFF 		bl	gc_sync_position
 118:main.c        **** 
 119:main.c        ****         // Print welcome message. Indicates an initialization has occured at power-up or with a res
 120:main.c        ****         report_init_message();
 158              		.loc 1 120 0 discriminator 1
 159 00b4 FFF7FEFF 		bl	report_init_message
 121:main.c        ****         
 122:main.c        ****         // Start Grbl main loop. Processes program inputs and executes them.
 123:main.c        ****         protocol_main_loop();
 160              		.loc 1 123 0 discriminator 1
 161 00b8 FFF7FEFF 		bl	protocol_main_loop
 162              	.LBE2:
ARM GAS  C:\Users\barto\AppData\Local\Temp\ccV7xRs5.s 			page 6


 124:main.c        ****         //usb_uart_check();
 125:main.c        ****     }
 163              		.loc 1 125 0 discriminator 1
 164 00bc BEE7     		b	.L2
 165              	.L4:
 166 00be 00BF     		.align	2
 167              	.L3:
 168 00c0 00000000 		.word	sys_position
 169 00c4 00000000 		.word	sys
 170 00c8 00000000 		.word	settings
 171 00cc 00000000 		.word	sys_probe_position
 172 00d0 00000000 		.word	sys_probe_state
 173 00d4 00000000 		.word	sys_rt_exec_state
 174 00d8 00000000 		.word	sys_rt_exec_alarm
 175 00dc 00000000 		.word	sys_rt_exec_motion_override
 176 00e0 00000000 		.word	sys_rt_exec_accessory_override
 177              		.cfi_endproc
 178              	.LFE64:
 179              		.size	main, .-main
 180              		.text
 181              	.Letext0:
 182              		.file 2 "c:\\program files (x86)\\cypress\\psoc creator\\4.2\\psoc creator\\import\\gnu\\arm\\5.4.
 183              		.file 3 "c:\\program files (x86)\\cypress\\psoc creator\\4.2\\psoc creator\\import\\gnu\\arm\\5.4.
 184              		.file 4 "settings.h"
 185              		.file 5 "system.h"
 186              		.file 6 "Generated_Source\\PSoC5/core_cm3.h"