ARM GAS  C:\Users\barto\AppData\Local\Temp\ccaeNhec.s 			page 1


   1              		.syntax unified
   2              		.cpu cortex-m3
   3              		.fpu softvfp
   4              		.eabi_attribute 20, 1
   5              		.eabi_attribute 21, 1
   6              		.eabi_attribute 23, 3
   7              		.eabi_attribute 24, 1
   8              		.eabi_attribute 25, 1
   9              		.eabi_attribute 26, 1
  10              		.eabi_attribute 30, 6
  11              		.eabi_attribute 34, 1
  12              		.eabi_attribute 18, 4
  13              		.thumb
  14              		.syntax unified
  15              		.file	"motion_control.c"
  16              		.text
  17              	.Ltext0:
  18              		.cfi_sections	.debug_frame
  19              		.comm	sys_position,12,4
  20              		.comm	sys_probe_position,12,4
  21              		.comm	sys_probe_state,1,1
  22              		.comm	sys_rt_exec_state,1,1
  23              		.comm	sys_rt_exec_alarm,1,1
  24              		.comm	sys_rt_exec_motion_override,1,1
  25              		.comm	sys_rt_exec_accessory_override,1,1
  26              		.section	.text.mc_line,"ax",%progbits
  27              		.align	2
  28              		.global	mc_line
  29              		.thumb
  30              		.thumb_func
  31              		.type	mc_line, %function
  32              	mc_line:
  33              	.LFB64:
  34              		.file 1 "motion_control.c"
   1:motion_control.c **** /*
   2:motion_control.c ****   motion_control.c - high level interface for issuing motion commands
   3:motion_control.c ****   Part of Grbl
   4:motion_control.c **** 
   5:motion_control.c ****   Copyright (c) 2011-2016 Sungeun K. Jeon for Gnea Research LLC
   6:motion_control.c ****   Copyright (c) 2009-2011 Simen Svale Skogsrud
   7:motion_control.c ****       Updated For PSOC BJD 2017
   8:motion_control.c **** 
   9:motion_control.c ****   Grbl is free software: you can redistribute it and/or modify
  10:motion_control.c ****   it under the terms of the GNU General Public License as published by
  11:motion_control.c ****   the Free Software Foundation, either version 3 of the License, or
  12:motion_control.c ****   (at your option) any later version.
  13:motion_control.c **** 
  14:motion_control.c ****   Grbl is distributed in the hope that it will be useful,
  15:motion_control.c ****   but WITHOUT ANY WARRANTY; without even the implied warranty of
  16:motion_control.c ****   MERCHANTABILITY or FITNESS FOR A PARTICULAR PURPOSE.  See the
  17:motion_control.c ****   GNU General Public License for more details.
  18:motion_control.c **** 
  19:motion_control.c ****   You should have received a copy of the GNU General Public License
  20:motion_control.c ****   along with Grbl.  If not, see <http://www.gnu.org/licenses/>.
  21:motion_control.c **** */
  22:motion_control.c **** 
  23:motion_control.c **** #include "grbl.h"
ARM GAS  C:\Users\barto\AppData\Local\Temp\ccaeNhec.s 			page 2


  24:motion_control.c **** 
  25:motion_control.c **** 
  26:motion_control.c **** // Execute linear motion in absolute millimeter coordinates. Feed rate given in millimeters/second
  27:motion_control.c **** // unless invert_feed_rate is true. Then the feed_rate means that the motion should be completed in
  28:motion_control.c **** // (1 minute)/feed_rate time.
  29:motion_control.c **** // NOTE: This is the primary gateway to the grbl planner. All line motions, including arc line
  30:motion_control.c **** // segments, must pass through this routine before being passed to the planner. The seperation of
  31:motion_control.c **** // mc_line and plan_buffer_line is done primarily to place non-planner-type functions from being
  32:motion_control.c **** // in the planner and to let backlash compensation or canned cycle integration simple and direct.
  33:motion_control.c **** void mc_line(float *target, plan_line_data_t *pl_data)
  34:motion_control.c **** {
  35              		.loc 1 34 0
  36              		.cfi_startproc
  37              		@ args = 0, pretend = 0, frame = 8
  38              		@ frame_needed = 1, uses_anonymous_args = 0
  39 0000 80B5     		push	{r7, lr}
  40              		.cfi_def_cfa_offset 8
  41              		.cfi_offset 7, -8
  42              		.cfi_offset 14, -4
  43 0002 82B0     		sub	sp, sp, #8
  44              		.cfi_def_cfa_offset 16
  45 0004 00AF     		add	r7, sp, #0
  46              		.cfi_def_cfa_register 7
  47 0006 7860     		str	r0, [r7, #4]
  48 0008 3960     		str	r1, [r7]
  35:motion_control.c ****   // If enabled, check for soft limit violations. Placed here all line motions are picked up
  36:motion_control.c ****   // from everywhere in Grbl.
  37:motion_control.c ****   if (bit_istrue(settings.flags,BITFLAG_SOFT_LIMIT_ENABLE)) {
  49              		.loc 1 37 0
  50 000a 164B     		ldr	r3, .L12
  51 000c 93F84830 		ldrb	r3, [r3, #72]	@ zero_extendqisi2
  52 0010 03F02003 		and	r3, r3, #32
  53 0014 002B     		cmp	r3, #0
  54 0016 06D0     		beq	.L2
  38:motion_control.c ****     // NOTE: Block jog state. Jogging is a special case and soft limits are handled independently.
  39:motion_control.c ****     if (sys.state != STATE_JOG) { limits_soft_check(target); }
  55              		.loc 1 39 0
  56 0018 134B     		ldr	r3, .L12+4
  57 001a 1B78     		ldrb	r3, [r3]	@ zero_extendqisi2
  58 001c 202B     		cmp	r3, #32
  59 001e 02D0     		beq	.L2
  60              		.loc 1 39 0 is_stmt 0 discriminator 1
  61 0020 7868     		ldr	r0, [r7, #4]
  62 0022 FFF7FEFF 		bl	limits_soft_check
  63              	.L2:
  40:motion_control.c ****   }
  41:motion_control.c **** 
  42:motion_control.c ****   // If in check gcode mode, prevent motion by blocking planner. Soft limits still work.
  43:motion_control.c ****   if (sys.state == STATE_CHECK_MODE) { return; }
  64              		.loc 1 43 0 is_stmt 1
  65 0026 104B     		ldr	r3, .L12+4
  66 0028 1B78     		ldrb	r3, [r3]	@ zero_extendqisi2
  67 002a 022B     		cmp	r3, #2
  68 002c 13D0     		beq	.L9
  69              	.L3:
  44:motion_control.c **** 
  45:motion_control.c ****   // NOTE: Backlash compensation may be installed here. It will need direction info to track when
ARM GAS  C:\Users\barto\AppData\Local\Temp\ccaeNhec.s 			page 3


  46:motion_control.c ****   // to insert a backlash line motion(s) before the intended line motion and will require its own
  47:motion_control.c ****   // plan_check_full_buffer() and check for system abort loop. Also for position reporting
  48:motion_control.c ****   // backlash steps will need to be also tracked, which will need to be kept at a system level.
  49:motion_control.c ****   // There are likely some other things that will need to be tracked as well. However, we feel
  50:motion_control.c ****   // that backlash compensation should NOT be handled by Grbl itself, because there are a myriad
  51:motion_control.c ****   // of ways to implement it and can be effective or ineffective for different CNC machines. This
  52:motion_control.c ****   // would be better handled by the interface as a post-processor task, where the original g-code
  53:motion_control.c ****   // is translated and inserts backlash motions that best suits the machine.
  54:motion_control.c ****   // NOTE: Perhaps as a middle-ground, all that needs to be sent is a flag or special command that
  55:motion_control.c ****   // indicates to Grbl what is a backlash compensation motion, so that Grbl executes the move but
  56:motion_control.c ****   // doesn't update the machine position values. Since the position values used by the g-code
  57:motion_control.c ****   // parser and planner are separate from the system machine positions, this is doable.
  58:motion_control.c **** 
  59:motion_control.c ****   // If the buffer is full: good! That means we are well ahead of the robot.
  60:motion_control.c ****   // Remain in this loop until there is room in the buffer.
  61:motion_control.c ****   do {
  62:motion_control.c ****     protocol_execute_realtime(); // Check for any run-time commands
  70              		.loc 1 62 0
  71 002e FFF7FEFF 		bl	protocol_execute_realtime
  63:motion_control.c ****     if (sys.abort) { return; } // Bail, if system abort.
  72              		.loc 1 63 0
  73 0032 0D4B     		ldr	r3, .L12+4
  74 0034 5B78     		ldrb	r3, [r3, #1]	@ zero_extendqisi2
  75 0036 002B     		cmp	r3, #0
  76 0038 0FD1     		bne	.L10
  64:motion_control.c ****     if ( plan_check_full_buffer() ) { protocol_auto_cycle_start(); } // Auto-cycle start when buffe
  77              		.loc 1 64 0
  78 003a FFF7FEFF 		bl	plan_check_full_buffer
  79 003e 0346     		mov	r3, r0
  80 0040 002B     		cmp	r3, #0
  81 0042 02D0     		beq	.L11
  82              		.loc 1 64 0 is_stmt 0 discriminator 1
  83 0044 FFF7FEFF 		bl	protocol_auto_cycle_start
  65:motion_control.c ****     else { break; }
  66:motion_control.c ****   } while (1);
  84              		.loc 1 66 0 is_stmt 1 discriminator 1
  85 0048 F1E7     		b	.L3
  86              	.L11:
  65:motion_control.c ****     else { break; }
  87              		.loc 1 65 0
  88 004a 00BF     		nop
  67:motion_control.c **** 
  68:motion_control.c ****   // Plan and queue motion into planner buffer
  69:motion_control.c ****   // uint8_t plan_status; // Not used in normal operation.
  70:motion_control.c ****   plan_buffer_line(target, pl_data);
  89              		.loc 1 70 0
  90 004c 3968     		ldr	r1, [r7]
  91 004e 7868     		ldr	r0, [r7, #4]
  92 0050 FFF7FEFF 		bl	plan_buffer_line
  93 0054 02E0     		b	.L1
  94              	.L9:
  43:motion_control.c **** 
  95              		.loc 1 43 0
  96 0056 00BF     		nop
  97 0058 00E0     		b	.L1
  98              	.L10:
  63:motion_control.c ****     if ( plan_check_full_buffer() ) { protocol_auto_cycle_start(); } // Auto-cycle start when buffe
ARM GAS  C:\Users\barto\AppData\Local\Temp\ccaeNhec.s 			page 4


  99              		.loc 1 63 0
 100 005a 00BF     		nop
 101              	.L1:
  71:motion_control.c **** }
 102              		.loc 1 71 0
 103 005c 0837     		adds	r7, r7, #8
 104              		.cfi_def_cfa_offset 8
 105 005e BD46     		mov	sp, r7
 106              		.cfi_def_cfa_register 13
 107              		@ sp needed
 108 0060 80BD     		pop	{r7, pc}
 109              	.L13:
 110 0062 00BF     		.align	2
 111              	.L12:
 112 0064 00000000 		.word	settings
 113 0068 00000000 		.word	sys
 114              		.cfi_endproc
 115              	.LFE64:
 116              		.size	mc_line, .-mc_line
 117              		.global	__aeabi_fadd
 118              		.global	__aeabi_fsub
 119              		.global	__aeabi_fmul
 120              		.global	__aeabi_f2d
 121              		.global	__aeabi_d2f
 122              		.global	__aeabi_dcmpge
 123              		.global	__aeabi_dsub
 124              		.global	__aeabi_dcmple
 125              		.global	__aeabi_dadd
 126              		.global	__aeabi_dmul
 127              		.global	__aeabi_ddiv
 128              		.global	__aeabi_d2uiz
 129              		.global	__aeabi_i2f
 130              		.global	__aeabi_fdiv
 131              		.section	.text.mc_arc,"ax",%progbits
 132              		.align	2
 133              		.global	mc_arc
 134              		.thumb
 135              		.thumb_func
 136              		.type	mc_arc, %function
 137              	mc_arc:
 138              	.LFB65:
  72:motion_control.c **** 
  73:motion_control.c **** 
  74:motion_control.c **** // Execute an arc in offset mode format. position == current xyz, target == target xyz,
  75:motion_control.c **** // offset == offset from current xyz, axis_X defines circle plane in tool space, axis_linear is
  76:motion_control.c **** // the direction of helical travel, radius == circle radius, isclockwise boolean. Used
  77:motion_control.c **** // for vector transformation direction.
  78:motion_control.c **** // The arc is approximated by generating a huge number of tiny, linear segments. The chordal tolera
  79:motion_control.c **** // of each segment is configured in settings.arc_tolerance, which is defined to be the maximum norm
  80:motion_control.c **** // distance from segment to the circle when the end points both lie on the circle.
  81:motion_control.c **** void mc_arc(float *target, plan_line_data_t *pl_data, float *position, float *offset, float radius,
  82:motion_control.c ****   uint8_t axis_0, uint8_t axis_1, uint8_t axis_linear, uint8_t is_clockwise_arc)
  83:motion_control.c **** {
 139              		.loc 1 83 0
 140              		.cfi_startproc
 141              		@ args = 20, pretend = 0, frame = 80
 142              		@ frame_needed = 1, uses_anonymous_args = 0
ARM GAS  C:\Users\barto\AppData\Local\Temp\ccaeNhec.s 			page 5


 143 0000 2DE9F043 		push	{r4, r5, r6, r7, r8, r9, lr}
 144              		.cfi_def_cfa_offset 28
 145              		.cfi_offset 4, -28
 146              		.cfi_offset 5, -24
 147              		.cfi_offset 6, -20
 148              		.cfi_offset 7, -16
 149              		.cfi_offset 8, -12
 150              		.cfi_offset 9, -8
 151              		.cfi_offset 14, -4
 152 0004 95B0     		sub	sp, sp, #84
 153              		.cfi_def_cfa_offset 112
 154 0006 00AF     		add	r7, sp, #0
 155              		.cfi_def_cfa_register 7
 156 0008 F860     		str	r0, [r7, #12]
 157 000a B960     		str	r1, [r7, #8]
 158 000c 7A60     		str	r2, [r7, #4]
 159 000e 3B60     		str	r3, [r7]
  84:motion_control.c ****   float center_axis0 = position[axis_0] + offset[axis_0];
 160              		.loc 1 84 0
 161 0010 97F87430 		ldrb	r3, [r7, #116]	@ zero_extendqisi2
 162 0014 9B00     		lsls	r3, r3, #2
 163 0016 7A68     		ldr	r2, [r7, #4]
 164 0018 1344     		add	r3, r3, r2
 165 001a 1868     		ldr	r0, [r3]	@ float
 166 001c 97F87430 		ldrb	r3, [r7, #116]	@ zero_extendqisi2
 167 0020 9B00     		lsls	r3, r3, #2
 168 0022 3A68     		ldr	r2, [r7]
 169 0024 1344     		add	r3, r3, r2
 170 0026 1B68     		ldr	r3, [r3]	@ float
 171 0028 1946     		mov	r1, r3
 172 002a FFF7FEFF 		bl	__aeabi_fadd
 173 002e 0346     		mov	r3, r0
 174 0030 FB63     		str	r3, [r7, #60]	@ float
  85:motion_control.c ****   float center_axis1 = position[axis_1] + offset[axis_1];
 175              		.loc 1 85 0
 176 0032 97F87830 		ldrb	r3, [r7, #120]	@ zero_extendqisi2
 177 0036 9B00     		lsls	r3, r3, #2
 178 0038 7A68     		ldr	r2, [r7, #4]
 179 003a 1344     		add	r3, r3, r2
 180 003c 1868     		ldr	r0, [r3]	@ float
 181 003e 97F87830 		ldrb	r3, [r7, #120]	@ zero_extendqisi2
 182 0042 9B00     		lsls	r3, r3, #2
 183 0044 3A68     		ldr	r2, [r7]
 184 0046 1344     		add	r3, r3, r2
 185 0048 1B68     		ldr	r3, [r3]	@ float
 186 004a 1946     		mov	r1, r3
 187 004c FFF7FEFF 		bl	__aeabi_fadd
 188 0050 0346     		mov	r3, r0
 189 0052 BB63     		str	r3, [r7, #56]	@ float
  86:motion_control.c ****   float r_axis0 = -offset[axis_0];  // Radius vector from center to current location
 190              		.loc 1 86 0
 191 0054 97F87430 		ldrb	r3, [r7, #116]	@ zero_extendqisi2
 192 0058 9B00     		lsls	r3, r3, #2
 193 005a 3A68     		ldr	r2, [r7]
 194 005c 1344     		add	r3, r3, r2
 195 005e 1B68     		ldr	r3, [r3]	@ float
 196 0060 83F00043 		eor	r3, r3, #-2147483648
ARM GAS  C:\Users\barto\AppData\Local\Temp\ccaeNhec.s 			page 6


 197 0064 FB64     		str	r3, [r7, #76]	@ float
  87:motion_control.c ****   float r_axis1 = -offset[axis_1];
 198              		.loc 1 87 0
 199 0066 97F87830 		ldrb	r3, [r7, #120]	@ zero_extendqisi2
 200 006a 9B00     		lsls	r3, r3, #2
 201 006c 3A68     		ldr	r2, [r7]
 202 006e 1344     		add	r3, r3, r2
 203 0070 1B68     		ldr	r3, [r3]	@ float
 204 0072 83F00043 		eor	r3, r3, #-2147483648
 205 0076 BB64     		str	r3, [r7, #72]	@ float
  88:motion_control.c ****   float rt_axis0 = target[axis_0] - center_axis0;
 206              		.loc 1 88 0
 207 0078 97F87430 		ldrb	r3, [r7, #116]	@ zero_extendqisi2
 208 007c 9B00     		lsls	r3, r3, #2
 209 007e FA68     		ldr	r2, [r7, #12]
 210 0080 1344     		add	r3, r3, r2
 211 0082 1B68     		ldr	r3, [r3]	@ float
 212 0084 F96B     		ldr	r1, [r7, #60]	@ float
 213 0086 1846     		mov	r0, r3
 214 0088 FFF7FEFF 		bl	__aeabi_fsub
 215 008c 0346     		mov	r3, r0
 216 008e 7B63     		str	r3, [r7, #52]	@ float
  89:motion_control.c ****   float rt_axis1 = target[axis_1] - center_axis1;
 217              		.loc 1 89 0
 218 0090 97F87830 		ldrb	r3, [r7, #120]	@ zero_extendqisi2
 219 0094 9B00     		lsls	r3, r3, #2
 220 0096 FA68     		ldr	r2, [r7, #12]
 221 0098 1344     		add	r3, r3, r2
 222 009a 1B68     		ldr	r3, [r3]	@ float
 223 009c B96B     		ldr	r1, [r7, #56]	@ float
 224 009e 1846     		mov	r0, r3
 225 00a0 FFF7FEFF 		bl	__aeabi_fsub
 226 00a4 0346     		mov	r3, r0
 227 00a6 3B63     		str	r3, [r7, #48]	@ float
  90:motion_control.c **** 
  91:motion_control.c ****   // CCW angle between position and target from circle center. Only one atan2() trig computation re
  92:motion_control.c ****   float angular_travel = atan2(r_axis0*rt_axis1-r_axis1*rt_axis0, r_axis0*rt_axis0+r_axis1*rt_axis1
 228              		.loc 1 92 0
 229 00a8 396B     		ldr	r1, [r7, #48]	@ float
 230 00aa F86C     		ldr	r0, [r7, #76]	@ float
 231 00ac FFF7FEFF 		bl	__aeabi_fmul
 232 00b0 0346     		mov	r3, r0
 233 00b2 1E46     		mov	r6, r3
 234 00b4 796B     		ldr	r1, [r7, #52]	@ float
 235 00b6 B86C     		ldr	r0, [r7, #72]	@ float
 236 00b8 FFF7FEFF 		bl	__aeabi_fmul
 237 00bc 0346     		mov	r3, r0
 238 00be 1946     		mov	r1, r3
 239 00c0 3046     		mov	r0, r6
 240 00c2 FFF7FEFF 		bl	__aeabi_fsub
 241 00c6 0346     		mov	r3, r0
 242 00c8 1846     		mov	r0, r3
 243 00ca FFF7FEFF 		bl	__aeabi_f2d
 244 00ce 8046     		mov	r8, r0
 245 00d0 8946     		mov	r9, r1
 246 00d2 796B     		ldr	r1, [r7, #52]	@ float
 247 00d4 F86C     		ldr	r0, [r7, #76]	@ float
ARM GAS  C:\Users\barto\AppData\Local\Temp\ccaeNhec.s 			page 7


 248 00d6 FFF7FEFF 		bl	__aeabi_fmul
 249 00da 0346     		mov	r3, r0
 250 00dc 1E46     		mov	r6, r3
 251 00de 396B     		ldr	r1, [r7, #48]	@ float
 252 00e0 B86C     		ldr	r0, [r7, #72]	@ float
 253 00e2 FFF7FEFF 		bl	__aeabi_fmul
 254 00e6 0346     		mov	r3, r0
 255 00e8 1946     		mov	r1, r3
 256 00ea 3046     		mov	r0, r6
 257 00ec FFF7FEFF 		bl	__aeabi_fadd
 258 00f0 0346     		mov	r3, r0
 259 00f2 1846     		mov	r0, r3
 260 00f4 FFF7FEFF 		bl	__aeabi_f2d
 261 00f8 0246     		mov	r2, r0
 262 00fa 0B46     		mov	r3, r1
 263 00fc 4046     		mov	r0, r8
 264 00fe 4946     		mov	r1, r9
 265 0100 FFF7FEFF 		bl	atan2
 266 0104 0246     		mov	r2, r0
 267 0106 0B46     		mov	r3, r1
 268 0108 1046     		mov	r0, r2
 269 010a 1946     		mov	r1, r3
 270 010c FFF7FEFF 		bl	__aeabi_d2f
 271 0110 0346     		mov	r3, r0
 272 0112 7B64     		str	r3, [r7, #68]	@ float
  93:motion_control.c ****   if (is_clockwise_arc) { // Correct atan2 output per direction
 273              		.loc 1 93 0
 274 0114 97F88030 		ldrb	r3, [r7, #128]	@ zero_extendqisi2
 275 0118 002B     		cmp	r3, #0
 276 011a 1BD0     		beq	.L15
  94:motion_control.c ****     if (angular_travel >= -ARC_ANGULAR_TRAVEL_EPSILON) { angular_travel -= 2*M_PI; }
 277              		.loc 1 94 0
 278 011c 786C     		ldr	r0, [r7, #68]	@ float
 279 011e FFF7FEFF 		bl	__aeabi_f2d
 280 0122 99A3     		adr	r3, .L31
 281 0124 D3E90023 		ldrd	r2, [r3]
 282 0128 FFF7FEFF 		bl	__aeabi_dcmpge
 283 012c 0346     		mov	r3, r0
 284 012e 002B     		cmp	r3, #0
 285 0130 2BD0     		beq	.L18
 286              		.loc 1 94 0 is_stmt 0 discriminator 1
 287 0132 786C     		ldr	r0, [r7, #68]	@ float
 288 0134 FFF7FEFF 		bl	__aeabi_f2d
 289 0138 95A3     		adr	r3, .L31+8
 290 013a D3E90023 		ldrd	r2, [r3]
 291 013e FFF7FEFF 		bl	__aeabi_dsub
 292 0142 0246     		mov	r2, r0
 293 0144 0B46     		mov	r3, r1
 294 0146 1046     		mov	r0, r2
 295 0148 1946     		mov	r1, r3
 296 014a FFF7FEFF 		bl	__aeabi_d2f
 297 014e 0346     		mov	r3, r0
 298 0150 7B64     		str	r3, [r7, #68]	@ float
 299 0152 1AE0     		b	.L18
 300              	.L15:
  95:motion_control.c ****   } else {
  96:motion_control.c ****     if (angular_travel <= ARC_ANGULAR_TRAVEL_EPSILON) { angular_travel += 2*M_PI; }
ARM GAS  C:\Users\barto\AppData\Local\Temp\ccaeNhec.s 			page 8


 301              		.loc 1 96 0 is_stmt 1
 302 0154 786C     		ldr	r0, [r7, #68]	@ float
 303 0156 FFF7FEFF 		bl	__aeabi_f2d
 304 015a 8FA3     		adr	r3, .L31+16
 305 015c D3E90023 		ldrd	r2, [r3]
 306 0160 FFF7FEFF 		bl	__aeabi_dcmple
 307 0164 0346     		mov	r3, r0
 308 0166 002B     		cmp	r3, #0
 309 0168 0FD0     		beq	.L18
 310              		.loc 1 96 0 is_stmt 0 discriminator 1
 311 016a 786C     		ldr	r0, [r7, #68]	@ float
 312 016c FFF7FEFF 		bl	__aeabi_f2d
 313 0170 87A3     		adr	r3, .L31+8
 314 0172 D3E90023 		ldrd	r2, [r3]
 315 0176 FFF7FEFF 		bl	__aeabi_dadd
 316 017a 0246     		mov	r2, r0
 317 017c 0B46     		mov	r3, r1
 318 017e 1046     		mov	r0, r2
 319 0180 1946     		mov	r1, r3
 320 0182 FFF7FEFF 		bl	__aeabi_d2f
 321 0186 0346     		mov	r3, r0
 322 0188 7B64     		str	r3, [r7, #68]	@ float
 323              	.L18:
  97:motion_control.c ****   }
  98:motion_control.c **** 
  99:motion_control.c ****   // NOTE: Segment end points are on the arc, which can lead to the arc diameter being smaller by u
 100:motion_control.c ****   // (2x) settings.arc_tolerance. For 99% of users, this is just fine. If a different arc segment f
 101:motion_control.c ****   // is desired, i.e. least-squares, midpoint on arc, just change the mm_per_arc_segment calculatio
 102:motion_control.c ****   // For the intended uses of Grbl, this value shouldn't exceed 2000 for the strictest of cases.
 103:motion_control.c ****   uint16_t segments = floor(fabs(0.5*angular_travel*radius)/
 324              		.loc 1 103 0 is_stmt 1
 325 018a 786C     		ldr	r0, [r7, #68]	@ float
 326 018c FFF7FEFF 		bl	__aeabi_f2d
 327 0190 4FF00002 		mov	r2, #0
 328 0194 844B     		ldr	r3, .L31+32
 329 0196 FFF7FEFF 		bl	__aeabi_dmul
 330 019a 0246     		mov	r2, r0
 331 019c 0B46     		mov	r3, r1
 332 019e 9046     		mov	r8, r2
 333 01a0 9946     		mov	r9, r3
 334 01a2 386F     		ldr	r0, [r7, #112]	@ float
 335 01a4 FFF7FEFF 		bl	__aeabi_f2d
 336 01a8 0246     		mov	r2, r0
 337 01aa 0B46     		mov	r3, r1
 338 01ac 4046     		mov	r0, r8
 339 01ae 4946     		mov	r1, r9
 340 01b0 FFF7FEFF 		bl	__aeabi_dmul
 341 01b4 0246     		mov	r2, r0
 342 01b6 0B46     		mov	r3, r1
 343 01b8 1446     		mov	r4, r2
 344 01ba 23F00045 		bic	r5, r3, #-2147483648
 104:motion_control.c ****                           sqrt(settings.arc_tolerance*(2*radius - settings.arc_tolerance)) );
 345              		.loc 1 104 0
 346 01be 7B4B     		ldr	r3, .L31+36
 347 01c0 DE6B     		ldr	r6, [r3, #60]	@ float
 348 01c2 3B6F     		ldr	r3, [r7, #112]	@ float
 349 01c4 1946     		mov	r1, r3
ARM GAS  C:\Users\barto\AppData\Local\Temp\ccaeNhec.s 			page 9


 350 01c6 1846     		mov	r0, r3
 351 01c8 FFF7FEFF 		bl	__aeabi_fadd
 352 01cc 0346     		mov	r3, r0
 353 01ce 1A46     		mov	r2, r3
 354 01d0 764B     		ldr	r3, .L31+36
 355 01d2 DB6B     		ldr	r3, [r3, #60]	@ float
 356 01d4 1946     		mov	r1, r3
 357 01d6 1046     		mov	r0, r2
 358 01d8 FFF7FEFF 		bl	__aeabi_fsub
 359 01dc 0346     		mov	r3, r0
 360 01de 1946     		mov	r1, r3
 361 01e0 3046     		mov	r0, r6
 362 01e2 FFF7FEFF 		bl	__aeabi_fmul
 363 01e6 0346     		mov	r3, r0
 364 01e8 1846     		mov	r0, r3
 365 01ea FFF7FEFF 		bl	__aeabi_f2d
 366 01ee 0246     		mov	r2, r0
 367 01f0 0B46     		mov	r3, r1
 368 01f2 1046     		mov	r0, r2
 369 01f4 1946     		mov	r1, r3
 370 01f6 FFF7FEFF 		bl	sqrt
 371 01fa 0246     		mov	r2, r0
 372 01fc 0B46     		mov	r3, r1
 103:motion_control.c ****                           sqrt(settings.arc_tolerance*(2*radius - settings.arc_tolerance)) );
 373              		.loc 1 103 0
 374 01fe 2046     		mov	r0, r4
 375 0200 2946     		mov	r1, r5
 376 0202 FFF7FEFF 		bl	__aeabi_ddiv
 377 0206 0346     		mov	r3, r0
 378 0208 0C46     		mov	r4, r1
 379 020a 1846     		mov	r0, r3
 380 020c 2146     		mov	r1, r4
 381 020e FFF7FEFF 		bl	floor
 382 0212 0346     		mov	r3, r0
 383 0214 0C46     		mov	r4, r1
 384 0216 1846     		mov	r0, r3
 385 0218 2146     		mov	r1, r4
 386 021a FFF7FEFF 		bl	__aeabi_d2uiz
 387 021e 0346     		mov	r3, r0
 388 0220 FB85     		strh	r3, [r7, #46]	@ movhi
 105:motion_control.c **** 
 106:motion_control.c ****   if (segments) {
 389              		.loc 1 106 0
 390 0222 FB8D     		ldrh	r3, [r7, #46]
 391 0224 002B     		cmp	r3, #0
 392 0226 00F07881 		beq	.L20
 393              	.LBB2:
 107:motion_control.c ****     // Multiply inverse feed_rate to compensate for the fact that this movement is approximated
 108:motion_control.c ****     // by a number of discrete segments. The inverse feed_rate should be correct for the sum of
 109:motion_control.c ****     // all segments.
 110:motion_control.c ****     if (pl_data->condition & PL_COND_FLAG_INVERSE_TIME) { 
 394              		.loc 1 110 0
 395 022a BB68     		ldr	r3, [r7, #8]
 396 022c 1B7A     		ldrb	r3, [r3, #8]	@ zero_extendqisi2
 397 022e 03F00803 		and	r3, r3, #8
 398 0232 002B     		cmp	r3, #0
 399 0234 15D0     		beq	.L21
ARM GAS  C:\Users\barto\AppData\Local\Temp\ccaeNhec.s 			page 10


 111:motion_control.c ****       pl_data->feed_rate *= segments; 
 400              		.loc 1 111 0
 401 0236 BB68     		ldr	r3, [r7, #8]
 402 0238 1C68     		ldr	r4, [r3]	@ float
 403 023a FB8D     		ldrh	r3, [r7, #46]
 404 023c 1846     		mov	r0, r3
 405 023e FFF7FEFF 		bl	__aeabi_i2f
 406 0242 0346     		mov	r3, r0
 407 0244 1946     		mov	r1, r3
 408 0246 2046     		mov	r0, r4
 409 0248 FFF7FEFF 		bl	__aeabi_fmul
 410 024c 0346     		mov	r3, r0
 411 024e 1A46     		mov	r2, r3
 412 0250 BB68     		ldr	r3, [r7, #8]
 413 0252 1A60     		str	r2, [r3]	@ float
 112:motion_control.c ****       bit_false(pl_data->condition,PL_COND_FLAG_INVERSE_TIME); // Force as feed absolute mode over 
 414              		.loc 1 112 0
 415 0254 BB68     		ldr	r3, [r7, #8]
 416 0256 1B7A     		ldrb	r3, [r3, #8]	@ zero_extendqisi2
 417 0258 23F00803 		bic	r3, r3, #8
 418 025c DAB2     		uxtb	r2, r3
 419 025e BB68     		ldr	r3, [r7, #8]
 420 0260 1A72     		strb	r2, [r3, #8]
 421              	.L21:
 113:motion_control.c ****     }
 114:motion_control.c ****     
 115:motion_control.c ****     float theta_per_segment = angular_travel/segments;
 422              		.loc 1 115 0
 423 0262 FB8D     		ldrh	r3, [r7, #46]
 424 0264 1846     		mov	r0, r3
 425 0266 FFF7FEFF 		bl	__aeabi_i2f
 426 026a 0346     		mov	r3, r0
 427 026c 1946     		mov	r1, r3
 428 026e 786C     		ldr	r0, [r7, #68]	@ float
 429 0270 FFF7FEFF 		bl	__aeabi_fdiv
 430 0274 0346     		mov	r3, r0
 431 0276 BB62     		str	r3, [r7, #40]	@ float
 116:motion_control.c ****     float linear_per_segment = (target[axis_linear] - position[axis_linear])/segments;
 432              		.loc 1 116 0
 433 0278 97F87C30 		ldrb	r3, [r7, #124]	@ zero_extendqisi2
 434 027c 9B00     		lsls	r3, r3, #2
 435 027e FA68     		ldr	r2, [r7, #12]
 436 0280 1344     		add	r3, r3, r2
 437 0282 1868     		ldr	r0, [r3]	@ float
 438 0284 97F87C30 		ldrb	r3, [r7, #124]	@ zero_extendqisi2
 439 0288 9B00     		lsls	r3, r3, #2
 440 028a 7A68     		ldr	r2, [r7, #4]
 441 028c 1344     		add	r3, r3, r2
 442 028e 1B68     		ldr	r3, [r3]	@ float
 443 0290 1946     		mov	r1, r3
 444 0292 FFF7FEFF 		bl	__aeabi_fsub
 445 0296 0346     		mov	r3, r0
 446 0298 1C46     		mov	r4, r3
 447 029a FB8D     		ldrh	r3, [r7, #46]
 448 029c 1846     		mov	r0, r3
 449 029e FFF7FEFF 		bl	__aeabi_i2f
 450 02a2 0346     		mov	r3, r0
ARM GAS  C:\Users\barto\AppData\Local\Temp\ccaeNhec.s 			page 11


 451 02a4 1946     		mov	r1, r3
 452 02a6 2046     		mov	r0, r4
 453 02a8 FFF7FEFF 		bl	__aeabi_fdiv
 454 02ac 0346     		mov	r3, r0
 455 02ae 7B62     		str	r3, [r7, #36]	@ float
 117:motion_control.c **** 
 118:motion_control.c ****     /* Vector rotation by transformation matrix: r is the original vector, r_T is the rotated vecto
 119:motion_control.c ****        and phi is the angle of rotation. Solution approach by Jens Geisler.
 120:motion_control.c ****            r_T = [cos(phi) -sin(phi);
 121:motion_control.c ****                   sin(phi)  cos(phi] * r ;
 122:motion_control.c **** 
 123:motion_control.c ****        For arc generation, the center of the circle is the axis of rotation and the radius vector i
 124:motion_control.c ****        defined from the circle center to the initial position. Each line segment is formed by succe
 125:motion_control.c ****        vector rotations. Single precision values can accumulate error greater than tool precision i
 126:motion_control.c ****        cases. So, exact arc path correction is implemented. This approach avoids the problem of too
 127:motion_control.c ****        expensive trig operations [sin(),cos(),tan()] which can take 100-200 usec each to compute.
 128:motion_control.c **** 
 129:motion_control.c ****        Small angle approximation may be used to reduce computation overhead further. A third-order 
 130:motion_control.c ****        (second order sin() has too much error) holds for most, if not, all CNC applications. Note t
 131:motion_control.c ****        approximation will begin to accumulate a numerical drift error when theta_per_segment is gre
 132:motion_control.c ****        ~0.25 rad(14 deg) AND the approximation is successively used without correction several doze
 133:motion_control.c ****        scenario is extremely unlikely, since segment lengths and theta_per_segment are automaticall
 134:motion_control.c ****        and scaled by the arc tolerance setting. Only a very large arc tolerance setting, unrealisti
 135:motion_control.c ****        applications, would cause this numerical drift error. However, it is best to set N_ARC_CORRE
 136:motion_control.c ****        low of ~4 to a high of ~20 or so to avoid trig operations while keeping arc generation accur
 137:motion_control.c **** 
 138:motion_control.c ****        This approximation also allows mc_arc to immediately insert a line segment into the planner
 139:motion_control.c ****        without the initial overhead of computing cos() or sin(). By the time the arc needs to be ap
 140:motion_control.c ****        a correction, the planner should have caught up to the lag caused by the initial mc_arc over
 141:motion_control.c ****        This is important when there are successive arc motions.
 142:motion_control.c ****     */
 143:motion_control.c ****     // Computes: cos_T = 1 - theta_per_segment^2/2, sin_T = theta_per_segment - theta_per_segment^3
 144:motion_control.c ****     float cos_T = 2.0 - theta_per_segment*theta_per_segment;
 456              		.loc 1 144 0
 457 02b0 B96A     		ldr	r1, [r7, #40]	@ float
 458 02b2 B86A     		ldr	r0, [r7, #40]	@ float
 459 02b4 FFF7FEFF 		bl	__aeabi_fmul
 460 02b8 0346     		mov	r3, r0
 461 02ba 1946     		mov	r1, r3
 462 02bc 4FF08040 		mov	r0, #1073741824
 463 02c0 FFF7FEFF 		bl	__aeabi_fsub
 464 02c4 0346     		mov	r3, r0
 465 02c6 3B62     		str	r3, [r7, #32]	@ float
 145:motion_control.c ****     float sin_T = theta_per_segment*0.16666667*(cos_T + 4.0);
 466              		.loc 1 145 0
 467 02c8 B86A     		ldr	r0, [r7, #40]	@ float
 468 02ca FFF7FEFF 		bl	__aeabi_f2d
 469 02ce 34A3     		adr	r3, .L31+24
 470 02d0 D3E90023 		ldrd	r2, [r3]
 471 02d4 FFF7FEFF 		bl	__aeabi_dmul
 472 02d8 0346     		mov	r3, r0
 473 02da 0C46     		mov	r4, r1
 474 02dc 2546     		mov	r5, r4
 475 02de 1C46     		mov	r4, r3
 476 02e0 386A     		ldr	r0, [r7, #32]	@ float
 477 02e2 FFF7FEFF 		bl	__aeabi_f2d
 478 02e6 4FF00002 		mov	r2, #0
ARM GAS  C:\Users\barto\AppData\Local\Temp\ccaeNhec.s 			page 12


 479 02ea 314B     		ldr	r3, .L31+40
 480 02ec FFF7FEFF 		bl	__aeabi_dadd
 481 02f0 0246     		mov	r2, r0
 482 02f2 0B46     		mov	r3, r1
 483 02f4 2046     		mov	r0, r4
 484 02f6 2946     		mov	r1, r5
 485 02f8 FFF7FEFF 		bl	__aeabi_dmul
 486 02fc 0346     		mov	r3, r0
 487 02fe 0C46     		mov	r4, r1
 488 0300 1846     		mov	r0, r3
 489 0302 2146     		mov	r1, r4
 490 0304 FFF7FEFF 		bl	__aeabi_d2f
 491 0308 0346     		mov	r3, r0
 492 030a FB61     		str	r3, [r7, #28]	@ float
 146:motion_control.c ****     cos_T *= 0.5;
 493              		.loc 1 146 0
 494 030c 4FF07C51 		mov	r1, #1056964608
 495 0310 386A     		ldr	r0, [r7, #32]	@ float
 496 0312 FFF7FEFF 		bl	__aeabi_fmul
 497 0316 0346     		mov	r3, r0
 498 0318 3B62     		str	r3, [r7, #32]	@ float
 147:motion_control.c **** 
 148:motion_control.c ****     float sin_Ti;
 149:motion_control.c ****     float cos_Ti;
 150:motion_control.c ****     float r_axisi;
 151:motion_control.c ****     uint16_t i;
 152:motion_control.c ****     uint8_t count = 0;
 499              		.loc 1 152 0
 500 031a 0023     		movs	r3, #0
 501 031c 87F84130 		strb	r3, [r7, #65]
 153:motion_control.c **** 
 154:motion_control.c ****     for (i = 1; i<segments; i++) { // Increment (segments-1).
 502              		.loc 1 154 0
 503 0320 0123     		movs	r3, #1
 504 0322 A7F84230 		strh	r3, [r7, #66]	@ movhi
 505 0326 F2E0     		b	.L22
 506              	.L27:
 155:motion_control.c **** 
 156:motion_control.c ****       if (count < N_ARC_CORRECTION) {
 507              		.loc 1 156 0
 508 0328 97F84130 		ldrb	r3, [r7, #65]	@ zero_extendqisi2
 509 032c 0B2B     		cmp	r3, #11
 510 032e 41D8     		bhi	.L23
 157:motion_control.c ****         // Apply vector rotation matrix. ~40 usec
 158:motion_control.c ****         r_axisi = r_axis0*sin_T + r_axis1*cos_T;
 511              		.loc 1 158 0
 512 0330 F969     		ldr	r1, [r7, #28]	@ float
 513 0332 F86C     		ldr	r0, [r7, #76]	@ float
 514 0334 FFF7FEFF 		bl	__aeabi_fmul
 515 0338 0346     		mov	r3, r0
 516 033a 1C46     		mov	r4, r3
 517 033c 396A     		ldr	r1, [r7, #32]	@ float
 518 033e B86C     		ldr	r0, [r7, #72]	@ float
 519 0340 FFF7FEFF 		bl	__aeabi_fmul
 520 0344 0346     		mov	r3, r0
 521 0346 1946     		mov	r1, r3
 522 0348 2046     		mov	r0, r4
ARM GAS  C:\Users\barto\AppData\Local\Temp\ccaeNhec.s 			page 13


 523 034a FFF7FEFF 		bl	__aeabi_fadd
 524 034e 0346     		mov	r3, r0
 525 0350 BB61     		str	r3, [r7, #24]	@ float
 159:motion_control.c ****         r_axis0 = r_axis0*cos_T - r_axis1*sin_T;
 526              		.loc 1 159 0
 527 0352 396A     		ldr	r1, [r7, #32]	@ float
 528 0354 F86C     		ldr	r0, [r7, #76]	@ float
 529 0356 FFF7FEFF 		bl	__aeabi_fmul
 530 035a 0346     		mov	r3, r0
 531 035c 1C46     		mov	r4, r3
 532 035e F969     		ldr	r1, [r7, #28]	@ float
 533 0360 B86C     		ldr	r0, [r7, #72]	@ float
 534 0362 FFF7FEFF 		bl	__aeabi_fmul
 535 0366 0346     		mov	r3, r0
 536 0368 1946     		mov	r1, r3
 537 036a 2046     		mov	r0, r4
 538 036c FFF7FEFF 		bl	__aeabi_fsub
 539 0370 0346     		mov	r3, r0
 540 0372 FB64     		str	r3, [r7, #76]	@ float
 160:motion_control.c ****         r_axis1 = r_axisi;
 541              		.loc 1 160 0
 542 0374 BB69     		ldr	r3, [r7, #24]	@ float
 543 0376 BB64     		str	r3, [r7, #72]	@ float
 161:motion_control.c ****         count++;
 544              		.loc 1 161 0
 545 0378 97F84130 		ldrb	r3, [r7, #65]	@ zero_extendqisi2
 546 037c 0133     		adds	r3, r3, #1
 547 037e 87F84130 		strb	r3, [r7, #65]
 548 0382 90E0     		b	.L24
 549              	.L32:
 550 0384 AFF30080 		.align	3
 551              	.L31:
 552 0388 8DEDB5A0 		.word	-1598689907
 553 038c F7C6A0BE 		.word	-1096759561
 554 0390 182D4454 		.word	1413754136
 555 0394 FB211940 		.word	1075388923
 556 0398 8DEDB5A0 		.word	-1598689907
 557 039c F7C6A03E 		.word	1050724087
 558 03a0 4BDA7D5C 		.word	1551751755
 559 03a4 5555C53F 		.word	1069897045
 560 03a8 0000E03F 		.word	1071644672
 561 03ac 00000000 		.word	settings
 562 03b0 00001040 		.word	1074790400
 563              	.L23:
 162:motion_control.c ****       } else {
 163:motion_control.c ****         // Arc correction to radius vector. Computed only every N_ARC_CORRECTION increments. ~375 u
 164:motion_control.c ****         // Compute exact location by applying transformation matrix from initial radius vector(=-of
 165:motion_control.c ****         cos_Ti = cos(i*theta_per_segment);
 564              		.loc 1 165 0
 565 03b4 B7F84230 		ldrh	r3, [r7, #66]
 566 03b8 1846     		mov	r0, r3
 567 03ba FFF7FEFF 		bl	__aeabi_i2f
 568 03be 0346     		mov	r3, r0
 569 03c0 B96A     		ldr	r1, [r7, #40]	@ float
 570 03c2 1846     		mov	r0, r3
 571 03c4 FFF7FEFF 		bl	__aeabi_fmul
 572 03c8 0346     		mov	r3, r0
ARM GAS  C:\Users\barto\AppData\Local\Temp\ccaeNhec.s 			page 14


 573 03ca 1846     		mov	r0, r3
 574 03cc FFF7FEFF 		bl	__aeabi_f2d
 575 03d0 0346     		mov	r3, r0
 576 03d2 0C46     		mov	r4, r1
 577 03d4 1846     		mov	r0, r3
 578 03d6 2146     		mov	r1, r4
 579 03d8 FFF7FEFF 		bl	cos
 580 03dc 0346     		mov	r3, r0
 581 03de 0C46     		mov	r4, r1
 582 03e0 1846     		mov	r0, r3
 583 03e2 2146     		mov	r1, r4
 584 03e4 FFF7FEFF 		bl	__aeabi_d2f
 585 03e8 0346     		mov	r3, r0
 586 03ea 7B61     		str	r3, [r7, #20]	@ float
 166:motion_control.c ****         sin_Ti = sin(i*theta_per_segment);
 587              		.loc 1 166 0
 588 03ec B7F84230 		ldrh	r3, [r7, #66]
 589 03f0 1846     		mov	r0, r3
 590 03f2 FFF7FEFF 		bl	__aeabi_i2f
 591 03f6 0346     		mov	r3, r0
 592 03f8 B96A     		ldr	r1, [r7, #40]	@ float
 593 03fa 1846     		mov	r0, r3
 594 03fc FFF7FEFF 		bl	__aeabi_fmul
 595 0400 0346     		mov	r3, r0
 596 0402 1846     		mov	r0, r3
 597 0404 FFF7FEFF 		bl	__aeabi_f2d
 598 0408 0346     		mov	r3, r0
 599 040a 0C46     		mov	r4, r1
 600 040c 1846     		mov	r0, r3
 601 040e 2146     		mov	r1, r4
 602 0410 FFF7FEFF 		bl	sin
 603 0414 0346     		mov	r3, r0
 604 0416 0C46     		mov	r4, r1
 605 0418 1846     		mov	r0, r3
 606 041a 2146     		mov	r1, r4
 607 041c FFF7FEFF 		bl	__aeabi_d2f
 608 0420 0346     		mov	r3, r0
 609 0422 3B61     		str	r3, [r7, #16]	@ float
 167:motion_control.c ****         r_axis0 = -offset[axis_0]*cos_Ti + offset[axis_1]*sin_Ti;
 610              		.loc 1 167 0
 611 0424 97F87430 		ldrb	r3, [r7, #116]	@ zero_extendqisi2
 612 0428 9B00     		lsls	r3, r3, #2
 613 042a 3A68     		ldr	r2, [r7]
 614 042c 1344     		add	r3, r3, r2
 615 042e 1B68     		ldr	r3, [r3]	@ float
 616 0430 83F00043 		eor	r3, r3, #-2147483648
 617 0434 7969     		ldr	r1, [r7, #20]	@ float
 618 0436 1846     		mov	r0, r3
 619 0438 FFF7FEFF 		bl	__aeabi_fmul
 620 043c 0346     		mov	r3, r0
 621 043e 1C46     		mov	r4, r3
 622 0440 97F87830 		ldrb	r3, [r7, #120]	@ zero_extendqisi2
 623 0444 9B00     		lsls	r3, r3, #2
 624 0446 3A68     		ldr	r2, [r7]
 625 0448 1344     		add	r3, r3, r2
 626 044a 1B68     		ldr	r3, [r3]	@ float
 627 044c 3969     		ldr	r1, [r7, #16]	@ float
ARM GAS  C:\Users\barto\AppData\Local\Temp\ccaeNhec.s 			page 15


 628 044e 1846     		mov	r0, r3
 629 0450 FFF7FEFF 		bl	__aeabi_fmul
 630 0454 0346     		mov	r3, r0
 631 0456 1946     		mov	r1, r3
 632 0458 2046     		mov	r0, r4
 633 045a FFF7FEFF 		bl	__aeabi_fadd
 634 045e 0346     		mov	r3, r0
 635 0460 FB64     		str	r3, [r7, #76]	@ float
 168:motion_control.c ****         r_axis1 = -offset[axis_0]*sin_Ti - offset[axis_1]*cos_Ti;
 636              		.loc 1 168 0
 637 0462 97F87430 		ldrb	r3, [r7, #116]	@ zero_extendqisi2
 638 0466 9B00     		lsls	r3, r3, #2
 639 0468 3A68     		ldr	r2, [r7]
 640 046a 1344     		add	r3, r3, r2
 641 046c 1B68     		ldr	r3, [r3]	@ float
 642 046e 83F00043 		eor	r3, r3, #-2147483648
 643 0472 3969     		ldr	r1, [r7, #16]	@ float
 644 0474 1846     		mov	r0, r3
 645 0476 FFF7FEFF 		bl	__aeabi_fmul
 646 047a 0346     		mov	r3, r0
 647 047c 1C46     		mov	r4, r3
 648 047e 97F87830 		ldrb	r3, [r7, #120]	@ zero_extendqisi2
 649 0482 9B00     		lsls	r3, r3, #2
 650 0484 3A68     		ldr	r2, [r7]
 651 0486 1344     		add	r3, r3, r2
 652 0488 1B68     		ldr	r3, [r3]	@ float
 653 048a 7969     		ldr	r1, [r7, #20]	@ float
 654 048c 1846     		mov	r0, r3
 655 048e FFF7FEFF 		bl	__aeabi_fmul
 656 0492 0346     		mov	r3, r0
 657 0494 1946     		mov	r1, r3
 658 0496 2046     		mov	r0, r4
 659 0498 FFF7FEFF 		bl	__aeabi_fsub
 660 049c 0346     		mov	r3, r0
 661 049e BB64     		str	r3, [r7, #72]	@ float
 169:motion_control.c ****         count = 0;
 662              		.loc 1 169 0
 663 04a0 0023     		movs	r3, #0
 664 04a2 87F84130 		strb	r3, [r7, #65]
 665              	.L24:
 170:motion_control.c ****       }
 171:motion_control.c **** 
 172:motion_control.c ****       // Update arc_target location
 173:motion_control.c ****       position[axis_0] = center_axis0 + r_axis0;
 666              		.loc 1 173 0
 667 04a6 97F87430 		ldrb	r3, [r7, #116]	@ zero_extendqisi2
 668 04aa 9B00     		lsls	r3, r3, #2
 669 04ac 7A68     		ldr	r2, [r7, #4]
 670 04ae D418     		adds	r4, r2, r3
 671 04b0 F96C     		ldr	r1, [r7, #76]	@ float
 672 04b2 F86B     		ldr	r0, [r7, #60]	@ float
 673 04b4 FFF7FEFF 		bl	__aeabi_fadd
 674 04b8 0346     		mov	r3, r0
 675 04ba 2360     		str	r3, [r4]	@ float
 174:motion_control.c ****       position[axis_1] = center_axis1 + r_axis1;
 676              		.loc 1 174 0
 677 04bc 97F87830 		ldrb	r3, [r7, #120]	@ zero_extendqisi2
ARM GAS  C:\Users\barto\AppData\Local\Temp\ccaeNhec.s 			page 16


 678 04c0 9B00     		lsls	r3, r3, #2
 679 04c2 7A68     		ldr	r2, [r7, #4]
 680 04c4 D418     		adds	r4, r2, r3
 681 04c6 B96C     		ldr	r1, [r7, #72]	@ float
 682 04c8 B86B     		ldr	r0, [r7, #56]	@ float
 683 04ca FFF7FEFF 		bl	__aeabi_fadd
 684 04ce 0346     		mov	r3, r0
 685 04d0 2360     		str	r3, [r4]	@ float
 175:motion_control.c ****       position[axis_linear] += linear_per_segment;
 686              		.loc 1 175 0
 687 04d2 97F87C30 		ldrb	r3, [r7, #124]	@ zero_extendqisi2
 688 04d6 9B00     		lsls	r3, r3, #2
 689 04d8 7A68     		ldr	r2, [r7, #4]
 690 04da D418     		adds	r4, r2, r3
 691 04dc 97F87C30 		ldrb	r3, [r7, #124]	@ zero_extendqisi2
 692 04e0 9B00     		lsls	r3, r3, #2
 693 04e2 7A68     		ldr	r2, [r7, #4]
 694 04e4 1344     		add	r3, r3, r2
 695 04e6 1B68     		ldr	r3, [r3]	@ float
 696 04e8 796A     		ldr	r1, [r7, #36]	@ float
 697 04ea 1846     		mov	r0, r3
 698 04ec FFF7FEFF 		bl	__aeabi_fadd
 699 04f0 0346     		mov	r3, r0
 700 04f2 2360     		str	r3, [r4]	@ float
 176:motion_control.c **** 
 177:motion_control.c ****       mc_line(position, pl_data);
 701              		.loc 1 177 0
 702 04f4 B968     		ldr	r1, [r7, #8]
 703 04f6 7868     		ldr	r0, [r7, #4]
 704 04f8 FFF7FEFF 		bl	mc_line
 178:motion_control.c **** 
 179:motion_control.c ****       // Bail mid-circle on system abort. Runtime command check already performed by mc_line.
 180:motion_control.c ****       if (sys.abort) { return; }
 705              		.loc 1 180 0
 706 04fc 0C4B     		ldr	r3, .L33
 707 04fe 5B78     		ldrb	r3, [r3, #1]	@ zero_extendqisi2
 708 0500 002B     		cmp	r3, #0
 709 0502 0FD1     		bne	.L30
 154:motion_control.c **** 
 710              		.loc 1 154 0 discriminator 2
 711 0504 B7F84230 		ldrh	r3, [r7, #66]
 712 0508 0133     		adds	r3, r3, #1
 713 050a A7F84230 		strh	r3, [r7, #66]	@ movhi
 714              	.L22:
 154:motion_control.c **** 
 715              		.loc 1 154 0 is_stmt 0 discriminator 1
 716 050e B7F84220 		ldrh	r2, [r7, #66]
 717 0512 FB8D     		ldrh	r3, [r7, #46]
 718 0514 9A42     		cmp	r2, r3
 719 0516 FFF407AF 		bcc	.L27
 720              	.L20:
 721              	.LBE2:
 181:motion_control.c ****     }
 182:motion_control.c ****   }
 183:motion_control.c ****   // Ensure last segment arrives at target location.
 184:motion_control.c ****   mc_line(target, pl_data);
 722              		.loc 1 184 0 is_stmt 1
ARM GAS  C:\Users\barto\AppData\Local\Temp\ccaeNhec.s 			page 17


 723 051a B968     		ldr	r1, [r7, #8]
 724 051c F868     		ldr	r0, [r7, #12]
 725 051e FFF7FEFF 		bl	mc_line
 726 0522 00E0     		b	.L14
 727              	.L30:
 728              	.LBB3:
 180:motion_control.c ****     }
 729              		.loc 1 180 0
 730 0524 00BF     		nop
 731              	.L14:
 732              	.LBE3:
 185:motion_control.c **** }
 733              		.loc 1 185 0
 734 0526 5437     		adds	r7, r7, #84
 735              		.cfi_def_cfa_offset 28
 736 0528 BD46     		mov	sp, r7
 737              		.cfi_def_cfa_register 13
 738              		@ sp needed
 739 052a BDE8F083 		pop	{r4, r5, r6, r7, r8, r9, pc}
 740              	.L34:
 741 052e 00BF     		.align	2
 742              	.L33:
 743 0530 00000000 		.word	sys
 744              		.cfi_endproc
 745              	.LFE65:
 746              		.size	mc_arc, .-mc_arc
 747              		.section	.text.mc_dwell,"ax",%progbits
 748              		.align	2
 749              		.global	mc_dwell
 750              		.thumb
 751              		.thumb_func
 752              		.type	mc_dwell, %function
 753              	mc_dwell:
 754              	.LFB66:
 186:motion_control.c **** 
 187:motion_control.c **** 
 188:motion_control.c **** // Execute dwell in seconds.
 189:motion_control.c **** void mc_dwell(float seconds)
 190:motion_control.c **** {
 755              		.loc 1 190 0
 756              		.cfi_startproc
 757              		@ args = 0, pretend = 0, frame = 8
 758              		@ frame_needed = 1, uses_anonymous_args = 0
 759 0000 80B5     		push	{r7, lr}
 760              		.cfi_def_cfa_offset 8
 761              		.cfi_offset 7, -8
 762              		.cfi_offset 14, -4
 763 0002 82B0     		sub	sp, sp, #8
 764              		.cfi_def_cfa_offset 16
 765 0004 00AF     		add	r7, sp, #0
 766              		.cfi_def_cfa_register 7
 767 0006 7860     		str	r0, [r7, #4]	@ float
 191:motion_control.c ****   if (sys.state == STATE_CHECK_MODE) { return; }
 768              		.loc 1 191 0
 769 0008 074B     		ldr	r3, .L39
 770 000a 1B78     		ldrb	r3, [r3]	@ zero_extendqisi2
 771 000c 022B     		cmp	r3, #2
ARM GAS  C:\Users\barto\AppData\Local\Temp\ccaeNhec.s 			page 18


 772 000e 06D0     		beq	.L38
 192:motion_control.c ****   protocol_buffer_synchronize();
 773              		.loc 1 192 0
 774 0010 FFF7FEFF 		bl	protocol_buffer_synchronize
 193:motion_control.c ****   delay_sec(seconds, DELAY_MODE_DWELL);
 775              		.loc 1 193 0
 776 0014 0021     		movs	r1, #0
 777 0016 7868     		ldr	r0, [r7, #4]	@ float
 778 0018 FFF7FEFF 		bl	delay_sec
 779 001c 00E0     		b	.L35
 780              	.L38:
 191:motion_control.c ****   if (sys.state == STATE_CHECK_MODE) { return; }
 781              		.loc 1 191 0
 782 001e 00BF     		nop
 783              	.L35:
 194:motion_control.c **** }
 784              		.loc 1 194 0
 785 0020 0837     		adds	r7, r7, #8
 786              		.cfi_def_cfa_offset 8
 787 0022 BD46     		mov	sp, r7
 788              		.cfi_def_cfa_register 13
 789              		@ sp needed
 790 0024 80BD     		pop	{r7, pc}
 791              	.L40:
 792 0026 00BF     		.align	2
 793              	.L39:
 794 0028 00000000 		.word	sys
 795              		.cfi_endproc
 796              	.LFE66:
 797              		.size	mc_dwell, .-mc_dwell
 798              		.section	.text.mc_homing_cycle,"ax",%progbits
 799              		.align	2
 800              		.global	mc_homing_cycle
 801              		.thumb
 802              		.thumb_func
 803              		.type	mc_homing_cycle, %function
 804              	mc_homing_cycle:
 805              	.LFB67:
 195:motion_control.c **** 
 196:motion_control.c **** 
 197:motion_control.c **** // Perform homing cycle to locate and set machine zero. Only '$H' executes this command.
 198:motion_control.c **** // NOTE: There should be no motions in the buffer and Grbl must be in an idle state before
 199:motion_control.c **** // executing the homing cycle. This prevents incorrect buffered plans after homing.
 200:motion_control.c **** void mc_homing_cycle(uint8_t cycle_mask)
 201:motion_control.c **** {
 806              		.loc 1 201 0
 807              		.cfi_startproc
 808              		@ args = 0, pretend = 0, frame = 8
 809              		@ frame_needed = 1, uses_anonymous_args = 0
 810 0000 80B5     		push	{r7, lr}
 811              		.cfi_def_cfa_offset 8
 812              		.cfi_offset 7, -8
 813              		.cfi_offset 14, -4
 814 0002 82B0     		sub	sp, sp, #8
 815              		.cfi_def_cfa_offset 16
 816 0004 00AF     		add	r7, sp, #0
 817              		.cfi_def_cfa_register 7
ARM GAS  C:\Users\barto\AppData\Local\Temp\ccaeNhec.s 			page 19


 818 0006 0346     		mov	r3, r0
 819 0008 FB71     		strb	r3, [r7, #7]
 202:motion_control.c ****   // Check and abort homing cycle, if hard limits are already enabled. Helps prevent problems
 203:motion_control.c ****   // with machines with limits wired on both ends of travel to one limit pin.
 204:motion_control.c ****   // TODO: Move the pin-specific LIMIT_PIN call to limits.c as a function.
 205:motion_control.c ****   #ifdef LIMITS_TWO_SWITCHES_ON_AXES
 206:motion_control.c ****     if (limits_get_state()) {
 207:motion_control.c ****       mc_reset(); // Issue system reset and ensure spindle and coolant are shutdown.
 208:motion_control.c ****       system_set_exec_alarm(EXEC_ALARM_HARD_LIMIT);
 209:motion_control.c ****       return;
 210:motion_control.c ****     }
 211:motion_control.c ****   #endif
 212:motion_control.c **** 
 213:motion_control.c ****   limits_disable(); // Disable hard limits pin change register for cycle duration
 820              		.loc 1 213 0
 821 000a FFF7FEFF 		bl	limits_disable
 214:motion_control.c **** 
 215:motion_control.c ****   // -------------------------------------------------------------------------------------
 216:motion_control.c ****   // Perform homing routine. NOTE: Special motion case. Only system reset works.
 217:motion_control.c ****   
 218:motion_control.c ****   #ifdef HOMING_SINGLE_AXIS_COMMANDS
 219:motion_control.c ****     if (cycle_mask) { limits_go_home(cycle_mask); } // Perform homing cycle based on mask.
 822              		.loc 1 219 0
 823 000e FB79     		ldrb	r3, [r7, #7]	@ zero_extendqisi2
 824 0010 002B     		cmp	r3, #0
 825 0012 04D0     		beq	.L42
 826              		.loc 1 219 0 is_stmt 0 discriminator 1
 827 0014 FB79     		ldrb	r3, [r7, #7]	@ zero_extendqisi2
 828 0016 1846     		mov	r0, r3
 829 0018 FFF7FEFF 		bl	limits_go_home
 830 001c 05E0     		b	.L43
 831              	.L42:
 220:motion_control.c ****     else
 221:motion_control.c ****   #endif
 222:motion_control.c ****   {
 223:motion_control.c ****     // Search to engage all axes limit switches at faster homing seek rate.
 224:motion_control.c ****     limits_go_home(HOMING_CYCLE_0);  // Homing cycle 0
 832              		.loc 1 224 0 is_stmt 1
 833 001e 0120     		movs	r0, #1
 834 0020 FFF7FEFF 		bl	limits_go_home
 225:motion_control.c ****     #ifdef HOMING_CYCLE_1
 226:motion_control.c ****       limits_go_home(HOMING_CYCLE_1);  // Homing cycle 1
 835              		.loc 1 226 0
 836 0024 0220     		movs	r0, #2
 837 0026 FFF7FEFF 		bl	limits_go_home
 838              	.L43:
 227:motion_control.c ****     #endif
 228:motion_control.c ****     #ifdef HOMING_CYCLE_2
 229:motion_control.c ****       limits_go_home(HOMING_CYCLE_2);  // Homing cycle 2
 230:motion_control.c ****     #endif
 231:motion_control.c ****     
 232:motion_control.c ****     #ifdef HOMING_CYCLE_3
 233:motion_control.c ****        limits_go_home(HOMING_CYCLE_3);  // Homing cycle 3
 234:motion_control.c ****     #endif
 235:motion_control.c ****     #ifdef HOMING_CYCLE_4
 236:motion_control.c ****        limits_go_home(HOMING_CYCLE_4);  // Homing cycle 4
 237:motion_control.c ****     #endif
ARM GAS  C:\Users\barto\AppData\Local\Temp\ccaeNhec.s 			page 20


 238:motion_control.c ****     #ifdef HOMING_CYCLE_5
 239:motion_control.c ****        limits_go_home(HOMING_CYCLE_5);  // Homing cycle 5
 240:motion_control.c ****     #endif
 241:motion_control.c ****    
 242:motion_control.c ****     
 243:motion_control.c ****   }
 244:motion_control.c **** 
 245:motion_control.c ****   protocol_execute_realtime(); // Check for reset and set system abort.
 839              		.loc 1 245 0
 840 002a FFF7FEFF 		bl	protocol_execute_realtime
 246:motion_control.c ****   if (sys.abort) { return; } // Did not complete. Alarm state set by mc_alarm.
 841              		.loc 1 246 0
 842 002e 074B     		ldr	r3, .L47
 843 0030 5B78     		ldrb	r3, [r3, #1]	@ zero_extendqisi2
 844 0032 002B     		cmp	r3, #0
 845 0034 06D1     		bne	.L46
 247:motion_control.c **** 
 248:motion_control.c ****   // Homing cycle complete! Setup system for normal operation.
 249:motion_control.c ****   // -------------------------------------------------------------------------------------
 250:motion_control.c **** 
 251:motion_control.c ****   // Sync gcode parser and planner positions to homed position.
 252:motion_control.c ****   gc_sync_position();
 846              		.loc 1 252 0
 847 0036 FFF7FEFF 		bl	gc_sync_position
 253:motion_control.c ****   plan_sync_position();
 848              		.loc 1 253 0
 849 003a FFF7FEFF 		bl	plan_sync_position
 254:motion_control.c **** 
 255:motion_control.c ****   // If hard limits feature enabled, re-enable hard limits pin change register after homing cycle.
 256:motion_control.c ****   limits_init();
 850              		.loc 1 256 0
 851 003e FFF7FEFF 		bl	limits_init
 852 0042 00E0     		b	.L41
 853              	.L46:
 246:motion_control.c **** 
 854              		.loc 1 246 0
 855 0044 00BF     		nop
 856              	.L41:
 257:motion_control.c **** }
 857              		.loc 1 257 0
 858 0046 0837     		adds	r7, r7, #8
 859              		.cfi_def_cfa_offset 8
 860 0048 BD46     		mov	sp, r7
 861              		.cfi_def_cfa_register 13
 862              		@ sp needed
 863 004a 80BD     		pop	{r7, pc}
 864              	.L48:
 865              		.align	2
 866              	.L47:
 867 004c 00000000 		.word	sys
 868              		.cfi_endproc
 869              	.LFE67:
 870              		.size	mc_homing_cycle, .-mc_homing_cycle
 871              		.section	.text.mc_probe_cycle,"ax",%progbits
 872              		.align	2
 873              		.global	mc_probe_cycle
 874              		.thumb
ARM GAS  C:\Users\barto\AppData\Local\Temp\ccaeNhec.s 			page 21


 875              		.thumb_func
 876              		.type	mc_probe_cycle, %function
 877              	mc_probe_cycle:
 878              	.LFB68:
 258:motion_control.c **** 
 259:motion_control.c **** 
 260:motion_control.c **** // Perform tool length probe cycle. Requires probe switch.
 261:motion_control.c **** // NOTE: Upon probe failure, the program will be stopped and placed into ALARM state.
 262:motion_control.c **** uint8_t mc_probe_cycle(float *target, plan_line_data_t *pl_data, uint8_t parser_flags)
 263:motion_control.c **** {
 879              		.loc 1 263 0
 880              		.cfi_startproc
 881              		@ args = 0, pretend = 0, frame = 24
 882              		@ frame_needed = 1, uses_anonymous_args = 0
 883 0000 80B5     		push	{r7, lr}
 884              		.cfi_def_cfa_offset 8
 885              		.cfi_offset 7, -8
 886              		.cfi_offset 14, -4
 887 0002 86B0     		sub	sp, sp, #24
 888              		.cfi_def_cfa_offset 32
 889 0004 00AF     		add	r7, sp, #0
 890              		.cfi_def_cfa_register 7
 891 0006 F860     		str	r0, [r7, #12]
 892 0008 B960     		str	r1, [r7, #8]
 893 000a 1346     		mov	r3, r2
 894 000c FB71     		strb	r3, [r7, #7]
 264:motion_control.c ****   // TODO: Need to update this cycle so it obeys a non-auto cycle start.
 265:motion_control.c ****   if (sys.state == STATE_CHECK_MODE) { return(GC_PROBE_CHECK_MODE); }
 895              		.loc 1 265 0
 896 000e 3E4B     		ldr	r3, .L61
 897 0010 1B78     		ldrb	r3, [r3]	@ zero_extendqisi2
 898 0012 022B     		cmp	r3, #2
 899 0014 01D1     		bne	.L50
 900              		.loc 1 265 0 is_stmt 0 discriminator 1
 901 0016 0023     		movs	r3, #0
 902 0018 71E0     		b	.L51
 903              	.L50:
 266:motion_control.c **** 
 267:motion_control.c ****   // Finish all queued commands and empty planner buffer before starting probe cycle.
 268:motion_control.c ****   protocol_buffer_synchronize();
 904              		.loc 1 268 0 is_stmt 1
 905 001a FFF7FEFF 		bl	protocol_buffer_synchronize
 269:motion_control.c ****   if (sys.abort) { return(GC_PROBE_ABORT); } // Return if system reset has been issued.
 906              		.loc 1 269 0
 907 001e 3A4B     		ldr	r3, .L61
 908 0020 5B78     		ldrb	r3, [r3, #1]	@ zero_extendqisi2
 909 0022 002B     		cmp	r3, #0
 910 0024 01D0     		beq	.L52
 911              		.loc 1 269 0 is_stmt 0 discriminator 1
 912 0026 0223     		movs	r3, #2
 913 0028 69E0     		b	.L51
 914              	.L52:
 270:motion_control.c **** 
 271:motion_control.c ****   // Initialize probing control variables
 272:motion_control.c ****   uint8_t is_probe_away = bit_istrue(parser_flags,GC_PARSER_PROBE_IS_AWAY);
 915              		.loc 1 272 0 is_stmt 1
 916 002a FB79     		ldrb	r3, [r7, #7]	@ zero_extendqisi2
ARM GAS  C:\Users\barto\AppData\Local\Temp\ccaeNhec.s 			page 22


 917 002c 03F00803 		and	r3, r3, #8
 918 0030 002B     		cmp	r3, #0
 919 0032 14BF     		ite	ne
 920 0034 0123     		movne	r3, #1
 921 0036 0023     		moveq	r3, #0
 922 0038 DBB2     		uxtb	r3, r3
 923 003a FB75     		strb	r3, [r7, #23]
 273:motion_control.c ****   uint8_t is_no_error = bit_istrue(parser_flags,GC_PARSER_PROBE_IS_NO_ERROR);
 924              		.loc 1 273 0
 925 003c FB79     		ldrb	r3, [r7, #7]	@ zero_extendqisi2
 926 003e 03F01003 		and	r3, r3, #16
 927 0042 002B     		cmp	r3, #0
 928 0044 14BF     		ite	ne
 929 0046 0123     		movne	r3, #1
 930 0048 0023     		moveq	r3, #0
 931 004a DBB2     		uxtb	r3, r3
 932 004c BB75     		strb	r3, [r7, #22]
 274:motion_control.c ****   sys.probe_succeeded = false; // Re-initialize probe history before beginning cycle.
 933              		.loc 1 274 0
 934 004e 2E4B     		ldr	r3, .L61
 935 0050 0022     		movs	r2, #0
 936 0052 5A71     		strb	r2, [r3, #5]
 275:motion_control.c ****   probe_configure_invert_mask(is_probe_away);
 937              		.loc 1 275 0
 938 0054 FB7D     		ldrb	r3, [r7, #23]	@ zero_extendqisi2
 939 0056 1846     		mov	r0, r3
 940 0058 FFF7FEFF 		bl	probe_configure_invert_mask
 276:motion_control.c **** 
 277:motion_control.c ****   // After syncing, check if probe is already triggered. If so, halt and issue alarm.
 278:motion_control.c ****   // NOTE: This probe initialization error applies to all probing cycles.
 279:motion_control.c ****   if ( probe_get_state() ) { // Check probe pin state.
 941              		.loc 1 279 0
 942 005c FFF7FEFF 		bl	probe_get_state
 943 0060 0346     		mov	r3, r0
 944 0062 002B     		cmp	r3, #0
 945 0064 09D0     		beq	.L53
 280:motion_control.c ****     system_set_exec_alarm(EXEC_ALARM_PROBE_FAIL_INITIAL);
 946              		.loc 1 280 0
 947 0066 0420     		movs	r0, #4
 948 0068 FFF7FEFF 		bl	system_set_exec_alarm
 281:motion_control.c ****     protocol_execute_realtime();
 949              		.loc 1 281 0
 950 006c FFF7FEFF 		bl	protocol_execute_realtime
 282:motion_control.c ****     probe_configure_invert_mask(false); // Re-initialize invert mask before returning.
 951              		.loc 1 282 0
 952 0070 0020     		movs	r0, #0
 953 0072 FFF7FEFF 		bl	probe_configure_invert_mask
 283:motion_control.c ****     return(GC_PROBE_FAIL_INIT); // Nothing else to do but bail.
 954              		.loc 1 283 0
 955 0076 0223     		movs	r3, #2
 956 0078 41E0     		b	.L51
 957              	.L53:
 284:motion_control.c ****   }
 285:motion_control.c **** 
 286:motion_control.c ****   // Setup and queue probing motion. Auto cycle-start should not start the cycle.
 287:motion_control.c ****   mc_line(target, pl_data);
 958              		.loc 1 287 0
ARM GAS  C:\Users\barto\AppData\Local\Temp\ccaeNhec.s 			page 23


 959 007a B968     		ldr	r1, [r7, #8]
 960 007c F868     		ldr	r0, [r7, #12]
 961 007e FFF7FEFF 		bl	mc_line
 288:motion_control.c **** 
 289:motion_control.c ****   // Activate the probing state monitor in the stepper module.
 290:motion_control.c ****   sys_probe_state = PROBE_ACTIVE;
 962              		.loc 1 290 0
 963 0082 224B     		ldr	r3, .L61+4
 964 0084 0122     		movs	r2, #1
 965 0086 1A70     		strb	r2, [r3]
 291:motion_control.c **** 
 292:motion_control.c ****   // Perform probing cycle. Wait here until probe is triggered or motion completes.
 293:motion_control.c ****   system_set_exec_state_flag(EXEC_CYCLE_START);
 966              		.loc 1 293 0
 967 0088 0220     		movs	r0, #2
 968 008a FFF7FEFF 		bl	system_set_exec_state_flag
 969              	.L55:
 294:motion_control.c ****   do {
 295:motion_control.c ****     protocol_execute_realtime();
 970              		.loc 1 295 0
 971 008e FFF7FEFF 		bl	protocol_execute_realtime
 296:motion_control.c ****     if (sys.abort) { return(GC_PROBE_ABORT); } // Check for system abort
 972              		.loc 1 296 0
 973 0092 1D4B     		ldr	r3, .L61
 974 0094 5B78     		ldrb	r3, [r3, #1]	@ zero_extendqisi2
 975 0096 002B     		cmp	r3, #0
 976 0098 01D0     		beq	.L54
 977              		.loc 1 296 0 is_stmt 0 discriminator 1
 978 009a 0223     		movs	r3, #2
 979 009c 2FE0     		b	.L51
 980              	.L54:
 297:motion_control.c ****   } while (sys.state != STATE_IDLE);
 981              		.loc 1 297 0 is_stmt 1
 982 009e 1A4B     		ldr	r3, .L61
 983 00a0 1B78     		ldrb	r3, [r3]	@ zero_extendqisi2
 984 00a2 002B     		cmp	r3, #0
 985 00a4 F3D1     		bne	.L55
 298:motion_control.c **** 
 299:motion_control.c ****   // Probing cycle complete!
 300:motion_control.c **** 
 301:motion_control.c ****   // Set state variables and error out, if the probe failed and cycle with error is enabled.
 302:motion_control.c ****   if (sys_probe_state == PROBE_ACTIVE) {
 986              		.loc 1 302 0
 987 00a6 194B     		ldr	r3, .L61+4
 988 00a8 1B78     		ldrb	r3, [r3]
 989 00aa DBB2     		uxtb	r3, r3
 990 00ac 012B     		cmp	r3, #1
 991 00ae 0CD1     		bne	.L56
 303:motion_control.c ****     if (is_no_error) { memcpy(sys_probe_position, sys_position, sizeof(sys_position)); }
 992              		.loc 1 303 0
 993 00b0 BB7D     		ldrb	r3, [r7, #22]	@ zero_extendqisi2
 994 00b2 002B     		cmp	r3, #0
 995 00b4 05D0     		beq	.L57
 996              		.loc 1 303 0 is_stmt 0 discriminator 1
 997 00b6 164B     		ldr	r3, .L61+8
 998 00b8 164A     		ldr	r2, .L61+12
 999 00ba 07CA     		ldmia	r2, {r0, r1, r2}
ARM GAS  C:\Users\barto\AppData\Local\Temp\ccaeNhec.s 			page 24


 1000 00bc 83E80700 		stmia	r3, {r0, r1, r2}
 1001 00c0 06E0     		b	.L59
 1002              	.L57:
 304:motion_control.c ****     else { system_set_exec_alarm(EXEC_ALARM_PROBE_FAIL_CONTACT); }
 1003              		.loc 1 304 0 is_stmt 1
 1004 00c2 0520     		movs	r0, #5
 1005 00c4 FFF7FEFF 		bl	system_set_exec_alarm
 1006 00c8 02E0     		b	.L59
 1007              	.L56:
 305:motion_control.c ****   } else {
 306:motion_control.c ****     sys.probe_succeeded = true; // Indicate to system the probing cycle completed successfully.
 1008              		.loc 1 306 0
 1009 00ca 0F4B     		ldr	r3, .L61
 1010 00cc 0122     		movs	r2, #1
 1011 00ce 5A71     		strb	r2, [r3, #5]
 1012              	.L59:
 307:motion_control.c ****   }
 308:motion_control.c ****   sys_probe_state = PROBE_OFF; // Ensure probe state monitor is disabled.
 1013              		.loc 1 308 0
 1014 00d0 0E4B     		ldr	r3, .L61+4
 1015 00d2 0022     		movs	r2, #0
 1016 00d4 1A70     		strb	r2, [r3]
 309:motion_control.c ****   probe_configure_invert_mask(false); // Re-initialize invert mask.
 1017              		.loc 1 309 0
 1018 00d6 0020     		movs	r0, #0
 1019 00d8 FFF7FEFF 		bl	probe_configure_invert_mask
 310:motion_control.c ****   protocol_execute_realtime();   // Check and execute run-time commands
 1020              		.loc 1 310 0
 1021 00dc FFF7FEFF 		bl	protocol_execute_realtime
 311:motion_control.c **** 
 312:motion_control.c ****   // Reset the stepper and planner buffers to remove the remainder of the probe motion.
 313:motion_control.c ****   st_reset(); // Reset step segment buffer.
 1022              		.loc 1 313 0
 1023 00e0 FFF7FEFF 		bl	st_reset
 314:motion_control.c ****   plan_reset(); // Reset planner buffer. Zero planner positions. Ensure probing motion is cleared.
 1024              		.loc 1 314 0
 1025 00e4 FFF7FEFF 		bl	plan_reset
 315:motion_control.c ****   plan_sync_position(); // Sync planner position to current machine position.
 1026              		.loc 1 315 0
 1027 00e8 FFF7FEFF 		bl	plan_sync_position
 316:motion_control.c **** 
 317:motion_control.c ****   #ifdef MESSAGE_PROBE_COORDINATES
 318:motion_control.c ****     // All done! Output the probe position as message.
 319:motion_control.c ****     report_probe_parameters();
 1028              		.loc 1 319 0
 1029 00ec FFF7FEFF 		bl	report_probe_parameters
 320:motion_control.c ****   #endif
 321:motion_control.c **** 
 322:motion_control.c ****   if (sys.probe_succeeded) { return(GC_PROBE_FOUND); } // Successful probe cycle.
 1030              		.loc 1 322 0
 1031 00f0 054B     		ldr	r3, .L61
 1032 00f2 5B79     		ldrb	r3, [r3, #5]	@ zero_extendqisi2
 1033 00f4 002B     		cmp	r3, #0
 1034 00f6 01D0     		beq	.L60
 1035              		.loc 1 322 0 is_stmt 0 discriminator 1
 1036 00f8 0123     		movs	r3, #1
 1037 00fa 00E0     		b	.L51
ARM GAS  C:\Users\barto\AppData\Local\Temp\ccaeNhec.s 			page 25


 1038              	.L60:
 323:motion_control.c ****   else { return(GC_PROBE_FAIL_END); } // Failed to trigger probe within travel. With or without err
 1039              		.loc 1 323 0 is_stmt 1
 1040 00fc 0023     		movs	r3, #0
 1041              	.L51:
 324:motion_control.c **** }
 1042              		.loc 1 324 0
 1043 00fe 1846     		mov	r0, r3
 1044 0100 1837     		adds	r7, r7, #24
 1045              		.cfi_def_cfa_offset 8
 1046 0102 BD46     		mov	sp, r7
 1047              		.cfi_def_cfa_register 13
 1048              		@ sp needed
 1049 0104 80BD     		pop	{r7, pc}
 1050              	.L62:
 1051 0106 00BF     		.align	2
 1052              	.L61:
 1053 0108 00000000 		.word	sys
 1054 010c 00000000 		.word	sys_probe_state
 1055 0110 00000000 		.word	sys_probe_position
 1056 0114 00000000 		.word	sys_position
 1057              		.cfi_endproc
 1058              	.LFE68:
 1059              		.size	mc_probe_cycle, .-mc_probe_cycle
 1060              		.section	.text.mc_parking_motion,"ax",%progbits
 1061              		.align	2
 1062              		.global	mc_parking_motion
 1063              		.thumb
 1064              		.thumb_func
 1065              		.type	mc_parking_motion, %function
 1066              	mc_parking_motion:
 1067              	.LFB69:
 325:motion_control.c **** 
 326:motion_control.c **** 
 327:motion_control.c **** // Plans and executes the single special motion case for parking. Independent of main planner buffe
 328:motion_control.c **** // NOTE: Uses the always free planner ring buffer head to store motion parameters for execution.
 329:motion_control.c **** void mc_parking_motion(float *parking_target, plan_line_data_t *pl_data)
 330:motion_control.c **** {
 1068              		.loc 1 330 0
 1069              		.cfi_startproc
 1070              		@ args = 0, pretend = 0, frame = 16
 1071              		@ frame_needed = 1, uses_anonymous_args = 0
 1072 0000 80B5     		push	{r7, lr}
 1073              		.cfi_def_cfa_offset 8
 1074              		.cfi_offset 7, -8
 1075              		.cfi_offset 14, -4
 1076 0002 84B0     		sub	sp, sp, #16
 1077              		.cfi_def_cfa_offset 24
 1078 0004 00AF     		add	r7, sp, #0
 1079              		.cfi_def_cfa_register 7
 1080 0006 7860     		str	r0, [r7, #4]
 1081 0008 3960     		str	r1, [r7]
 331:motion_control.c ****   if (sys.abort) { return; } // Block during abort.
 1082              		.loc 1 331 0
 1083 000a 204B     		ldr	r3, .L71
 1084 000c 5B78     		ldrb	r3, [r3, #1]	@ zero_extendqisi2
 1085 000e 002B     		cmp	r3, #0
ARM GAS  C:\Users\barto\AppData\Local\Temp\ccaeNhec.s 			page 26


 1086 0010 35D1     		bne	.L69
 332:motion_control.c **** 
 333:motion_control.c ****   uint8_t plan_status = plan_buffer_line(parking_target, pl_data);
 1087              		.loc 1 333 0
 1088 0012 3968     		ldr	r1, [r7]
 1089 0014 7868     		ldr	r0, [r7, #4]
 1090 0016 FFF7FEFF 		bl	plan_buffer_line
 1091 001a 0346     		mov	r3, r0
 1092 001c FB73     		strb	r3, [r7, #15]
 334:motion_control.c **** 
 335:motion_control.c ****   if (plan_status) {
 1093              		.loc 1 335 0
 1094 001e FB7B     		ldrb	r3, [r7, #15]	@ zero_extendqisi2
 1095 0020 002B     		cmp	r3, #0
 1096 0022 22D0     		beq	.L66
 336:motion_control.c **** 		bit_true(sys.step_control, STEP_CONTROL_EXECUTE_SYS_MOTION);
 1097              		.loc 1 336 0
 1098 0024 194B     		ldr	r3, .L71
 1099 0026 1B79     		ldrb	r3, [r3, #4]	@ zero_extendqisi2
 1100 0028 43F00403 		orr	r3, r3, #4
 1101 002c DAB2     		uxtb	r2, r3
 1102 002e 174B     		ldr	r3, .L71
 1103 0030 1A71     		strb	r2, [r3, #4]
 337:motion_control.c **** 		bit_false(sys.step_control, STEP_CONTROL_END_MOTION); // Allow parking motion to execute, if feed
 1104              		.loc 1 337 0
 1105 0032 164B     		ldr	r3, .L71
 1106 0034 1B79     		ldrb	r3, [r3, #4]	@ zero_extendqisi2
 1107 0036 23F00103 		bic	r3, r3, #1
 1108 003a DAB2     		uxtb	r2, r3
 1109 003c 134B     		ldr	r3, .L71
 1110 003e 1A71     		strb	r2, [r3, #4]
 338:motion_control.c ****     st_parking_setup_buffer(); // Setup step segment buffer for special parking motion case
 1111              		.loc 1 338 0
 1112 0040 FFF7FEFF 		bl	st_parking_setup_buffer
 339:motion_control.c **** 		st_prep_buffer();
 1113              		.loc 1 339 0
 1114 0044 FFF7FEFF 		bl	st_prep_buffer
 340:motion_control.c **** 		st_wake_up();
 1115              		.loc 1 340 0
 1116 0048 FFF7FEFF 		bl	st_wake_up
 1117              	.L68:
 341:motion_control.c **** 		do {
 342:motion_control.c **** 			protocol_exec_rt_system();
 1118              		.loc 1 342 0
 1119 004c FFF7FEFF 		bl	protocol_exec_rt_system
 343:motion_control.c **** 			if (sys.abort) { return; }
 1120              		.loc 1 343 0
 1121 0050 0E4B     		ldr	r3, .L71
 1122 0052 5B78     		ldrb	r3, [r3, #1]	@ zero_extendqisi2
 1123 0054 002B     		cmp	r3, #0
 1124 0056 14D1     		bne	.L70
 344:motion_control.c **** 		} while (sys.step_control & STEP_CONTROL_EXECUTE_SYS_MOTION);
 1125              		.loc 1 344 0
 1126 0058 0C4B     		ldr	r3, .L71
 1127 005a 1B79     		ldrb	r3, [r3, #4]	@ zero_extendqisi2
 1128 005c 03F00403 		and	r3, r3, #4
 1129 0060 002B     		cmp	r3, #0
ARM GAS  C:\Users\barto\AppData\Local\Temp\ccaeNhec.s 			page 27


 1130 0062 F3D1     		bne	.L68
 345:motion_control.c **** 		st_parking_restore_buffer(); // Restore step segment buffer to normal run state.
 1131              		.loc 1 345 0
 1132 0064 FFF7FEFF 		bl	st_parking_restore_buffer
 1133 0068 0CE0     		b	.L63
 1134              	.L66:
 346:motion_control.c **** 	} else {
 347:motion_control.c ****     bit_false(sys.step_control, STEP_CONTROL_EXECUTE_SYS_MOTION);
 1135              		.loc 1 347 0
 1136 006a 084B     		ldr	r3, .L71
 1137 006c 1B79     		ldrb	r3, [r3, #4]	@ zero_extendqisi2
 1138 006e 23F00403 		bic	r3, r3, #4
 1139 0072 DAB2     		uxtb	r2, r3
 1140 0074 054B     		ldr	r3, .L71
 1141 0076 1A71     		strb	r2, [r3, #4]
 348:motion_control.c **** 		protocol_exec_rt_system();
 1142              		.loc 1 348 0
 1143 0078 FFF7FEFF 		bl	protocol_exec_rt_system
 1144 007c 02E0     		b	.L63
 1145              	.L69:
 331:motion_control.c **** 
 1146              		.loc 1 331 0
 1147 007e 00BF     		nop
 1148 0080 00E0     		b	.L63
 1149              	.L70:
 343:motion_control.c **** 		} while (sys.step_control & STEP_CONTROL_EXECUTE_SYS_MOTION);
 1150              		.loc 1 343 0
 1151 0082 00BF     		nop
 1152              	.L63:
 349:motion_control.c ****   }
 350:motion_control.c **** 
 351:motion_control.c **** }
 1153              		.loc 1 351 0
 1154 0084 1037     		adds	r7, r7, #16
 1155              		.cfi_def_cfa_offset 8
 1156 0086 BD46     		mov	sp, r7
 1157              		.cfi_def_cfa_register 13
 1158              		@ sp needed
 1159 0088 80BD     		pop	{r7, pc}
 1160              	.L72:
 1161 008a 00BF     		.align	2
 1162              	.L71:
 1163 008c 00000000 		.word	sys
 1164              		.cfi_endproc
 1165              	.LFE69:
 1166              		.size	mc_parking_motion, .-mc_parking_motion
 1167              		.section	.text.mc_reset,"ax",%progbits
 1168              		.align	2
 1169              		.global	mc_reset
 1170              		.thumb
 1171              		.thumb_func
 1172              		.type	mc_reset, %function
 1173              	mc_reset:
 1174              	.LFB70:
 352:motion_control.c **** 
 353:motion_control.c **** 
 354:motion_control.c **** // Method to ready the system to reset by setting the realtime reset command and killing any
ARM GAS  C:\Users\barto\AppData\Local\Temp\ccaeNhec.s 			page 28


 355:motion_control.c **** // active processes in the system. This also checks if a system reset is issued while Grbl
 356:motion_control.c **** // is in a motion state. If so, kills the steppers and sets the system alarm to flag position
 357:motion_control.c **** // lost, since there was an abrupt uncontrolled deceleration. Called at an interrupt level by
 358:motion_control.c **** // realtime abort command and hard limits. So, keep to a minimum.
 359:motion_control.c **** void mc_reset()
 360:motion_control.c **** {
 1175              		.loc 1 360 0
 1176              		.cfi_startproc
 1177              		@ args = 0, pretend = 0, frame = 0
 1178              		@ frame_needed = 1, uses_anonymous_args = 0
 1179 0000 80B5     		push	{r7, lr}
 1180              		.cfi_def_cfa_offset 8
 1181              		.cfi_offset 7, -8
 1182              		.cfi_offset 14, -4
 1183 0002 00AF     		add	r7, sp, #0
 1184              		.cfi_def_cfa_register 7
 361:motion_control.c ****   // Only this function can set the system reset. Helps prevent multiple kill calls.
 362:motion_control.c ****   if (bit_isfalse(sys_rt_exec_state, EXEC_RESET)) {
 1185              		.loc 1 362 0
 1186 0004 164B     		ldr	r3, .L80
 1187 0006 1B78     		ldrb	r3, [r3]
 1188 0008 DBB2     		uxtb	r3, r3
 1189 000a 03F01003 		and	r3, r3, #16
 1190 000e 002B     		cmp	r3, #0
 1191 0010 24D1     		bne	.L79
 363:motion_control.c ****     system_set_exec_state_flag(EXEC_RESET);
 1192              		.loc 1 363 0
 1193 0012 1020     		movs	r0, #16
 1194 0014 FFF7FEFF 		bl	system_set_exec_state_flag
 364:motion_control.c **** 
 365:motion_control.c ****     // Kill spindle and coolant.
 366:motion_control.c ****     spindle_stop();
 1195              		.loc 1 366 0
 1196 0018 FFF7FEFF 		bl	spindle_stop
 367:motion_control.c ****     coolant_stop();
 1197              		.loc 1 367 0
 1198 001c FFF7FEFF 		bl	coolant_stop
 368:motion_control.c **** 
 369:motion_control.c ****     // Kill steppers only if in any motion state, i.e. cycle, actively holding, or homing.
 370:motion_control.c ****     // NOTE: If steppers are kept enabled via the step idle delay setting, this also keeps
 371:motion_control.c ****     // the steppers enabled by avoiding the go_idle call altogether, unless the motion state is
 372:motion_control.c ****     // violated, by which, all bets are off.
 373:motion_control.c ****     if ((sys.state & (STATE_CYCLE | STATE_HOMING | STATE_JOG)) ||
 1199              		.loc 1 373 0
 1200 0020 104B     		ldr	r3, .L80+4
 1201 0022 1B78     		ldrb	r3, [r3]	@ zero_extendqisi2
 1202 0024 03F02C03 		and	r3, r3, #44
 1203 0028 002B     		cmp	r3, #0
 1204 002a 05D1     		bne	.L75
 374:motion_control.c ****     		(sys.step_control & (STEP_CONTROL_EXECUTE_HOLD | STEP_CONTROL_EXECUTE_SYS_MOTION))) {
 1205              		.loc 1 374 0 discriminator 1
 1206 002c 0D4B     		ldr	r3, .L80+4
 1207 002e 1B79     		ldrb	r3, [r3, #4]	@ zero_extendqisi2
 1208 0030 03F00603 		and	r3, r3, #6
 373:motion_control.c ****     		(sys.step_control & (STEP_CONTROL_EXECUTE_HOLD | STEP_CONTROL_EXECUTE_SYS_MOTION))) {
 1209              		.loc 1 373 0 discriminator 1
 1210 0034 002B     		cmp	r3, #0
ARM GAS  C:\Users\barto\AppData\Local\Temp\ccaeNhec.s 			page 29


 1211 0036 11D0     		beq	.L79
 1212              	.L75:
 375:motion_control.c ****       if (sys.state == STATE_HOMING) { 
 1213              		.loc 1 375 0
 1214 0038 0A4B     		ldr	r3, .L80+4
 1215 003a 1B78     		ldrb	r3, [r3]	@ zero_extendqisi2
 1216 003c 042B     		cmp	r3, #4
 1217 003e 08D1     		bne	.L76
 376:motion_control.c ****         if (!sys_rt_exec_alarm) {system_set_exec_alarm(EXEC_ALARM_HOMING_FAIL_RESET); }
 1218              		.loc 1 376 0
 1219 0040 094B     		ldr	r3, .L80+8
 1220 0042 1B78     		ldrb	r3, [r3]
 1221 0044 DBB2     		uxtb	r3, r3
 1222 0046 002B     		cmp	r3, #0
 1223 0048 06D1     		bne	.L78
 1224              		.loc 1 376 0 is_stmt 0 discriminator 1
 1225 004a 0620     		movs	r0, #6
 1226 004c FFF7FEFF 		bl	system_set_exec_alarm
 1227 0050 02E0     		b	.L78
 1228              	.L76:
 377:motion_control.c ****       } else { system_set_exec_alarm(EXEC_ALARM_ABORT_CYCLE); }
 1229              		.loc 1 377 0 is_stmt 1
 1230 0052 0320     		movs	r0, #3
 1231 0054 FFF7FEFF 		bl	system_set_exec_alarm
 1232              	.L78:
 378:motion_control.c ****       st_go_idle(); // Force kill steppers. Position has likely been lost.
 1233              		.loc 1 378 0
 1234 0058 FFF7FEFF 		bl	st_go_idle
 1235              	.L79:
 379:motion_control.c ****     }
 380:motion_control.c ****   }
 381:motion_control.c **** }
 1236              		.loc 1 381 0
 1237 005c 00BF     		nop
 1238 005e 80BD     		pop	{r7, pc}
 1239              	.L81:
 1240              		.align	2
 1241              	.L80:
 1242 0060 00000000 		.word	sys_rt_exec_state
 1243 0064 00000000 		.word	sys
 1244 0068 00000000 		.word	sys_rt_exec_alarm
 1245              		.cfi_endproc
 1246              	.LFE70:
 1247              		.size	mc_reset, .-mc_reset
 1248              		.text
 1249              	.Letext0:
 1250              		.file 2 "c:\\program files (x86)\\cypress\\psoc creator\\4.2\\psoc creator\\import\\gnu\\arm\\5.4.
 1251              		.file 3 "c:\\program files (x86)\\cypress\\psoc creator\\4.2\\psoc creator\\import\\gnu\\arm\\5.4.
 1252              		.file 4 "settings.h"
 1253              		.file 5 "system.h"
 1254              		.file 6 "planner.h"
 1255              		.file 7 "Generated_Source\\PSoC5/core_cm3.h"