ARM GAS  C:\Users\barto\AppData\Local\Temp\ccVtrjqg.s 			page 1


   1              		.syntax unified
   2              		.cpu cortex-m3
   3              		.fpu softvfp
   4              		.eabi_attribute 20, 1
   5              		.eabi_attribute 21, 1
   6              		.eabi_attribute 23, 3
   7              		.eabi_attribute 24, 1
   8              		.eabi_attribute 25, 1
   9              		.eabi_attribute 26, 1
  10              		.eabi_attribute 30, 6
  11              		.eabi_attribute 34, 1
  12              		.eabi_attribute 18, 4
  13              		.thumb
  14              		.syntax unified
  15              		.file	"nut_bolts.c"
  16              		.text
  17              	.Ltext0:
  18              		.cfi_sections	.debug_frame
  19              		.comm	sys_position,12,4
  20              		.comm	sys_probe_position,12,4
  21              		.comm	sys_probe_state,1,1
  22              		.comm	sys_rt_exec_state,1,1
  23              		.comm	sys_rt_exec_alarm,1,1
  24              		.comm	sys_rt_exec_motion_override,1,1
  25              		.comm	sys_rt_exec_accessory_override,1,1
  26              		.global	__aeabi_ui2f
  27              		.global	__aeabi_fcmpeq
  28              		.global	__aeabi_f2d
  29              		.global	__aeabi_dmul
  30              		.global	__aeabi_d2f
  31              		.global	__aeabi_fmul
  32              		.section	.text.read_float,"ax",%progbits
  33              		.align	2
  34              		.global	read_float
  35              		.thumb
  36              		.thumb_func
  37              		.type	read_float, %function
  38              	read_float:
  39              	.LFB64:
  40              		.file 1 "nut_bolts.c"
   1:nut_bolts.c   **** /*
   2:nut_bolts.c   ****   nuts_bolts.c - Shared functions
   3:nut_bolts.c   ****   Part of Grbl
   4:nut_bolts.c   **** 
   5:nut_bolts.c   ****   Copyright (c) 2011-2016 Sungeun K. Jeon for Gnea Research LLC
   6:nut_bolts.c   ****   Copyright (c) 2009-2011 Simen Svale Skogsrud
   7:nut_bolts.c   ****       Updated For PSOC BJD 2017
   8:nut_bolts.c   **** 
   9:nut_bolts.c   ****   Grbl is free software: you can redistribute it and/or modify
  10:nut_bolts.c   ****   it under the terms of the GNU General Public License as published by
  11:nut_bolts.c   ****   the Free Software Foundation, either version 3 of the License, or
  12:nut_bolts.c   ****   (at your option) any later version.
  13:nut_bolts.c   **** 
  14:nut_bolts.c   ****   Grbl is distributed in the hope that it will be useful,
  15:nut_bolts.c   ****   but WITHOUT ANY WARRANTY; without even the implied warranty of
  16:nut_bolts.c   ****   MERCHANTABILITY or FITNESS FOR A PARTICULAR PURPOSE.  See the
  17:nut_bolts.c   ****   GNU General Public License for more details.
ARM GAS  C:\Users\barto\AppData\Local\Temp\ccVtrjqg.s 			page 2


  18:nut_bolts.c   **** 
  19:nut_bolts.c   ****   You should have received a copy of the GNU General Public License
  20:nut_bolts.c   ****   along with Grbl.  If not, see <http://www.gnu.org/licenses/>.
  21:nut_bolts.c   **** */
  22:nut_bolts.c   **** 
  23:nut_bolts.c   **** #include "grbl.h"
  24:nut_bolts.c   **** 
  25:nut_bolts.c   **** 
  26:nut_bolts.c   **** #define MAX_INT_DIGITS 8 // Maximum number of digits in int32 (and float)
  27:nut_bolts.c   **** 
  28:nut_bolts.c   **** 
  29:nut_bolts.c   **** // Extracts a floating point value from a string. The following code is based loosely on
  30:nut_bolts.c   **** // the avr-libc strtod() function by Michael Stumpf and Dmitry Xmelkov and many freely
  31:nut_bolts.c   **** // available conversion method examples, but has been highly optimized for Grbl. For known
  32:nut_bolts.c   **** // CNC applications, the typical decimal value is expected to be in the range of E0 to E-4.
  33:nut_bolts.c   **** // Scientific notation is officially not supported by g-code, and the 'E' character may
  34:nut_bolts.c   **** // be a g-code word on some CNC systems. So, 'E' notation will not be recognized.
  35:nut_bolts.c   **** // NOTE: Thanks to Radu-Eosif Mihailescu for identifying the issues with using strtod().
  36:nut_bolts.c   **** uint8_t read_float(char *line, uint8_t *char_counter, float *float_ptr)
  37:nut_bolts.c   **** {
  41              		.loc 1 37 0
  42              		.cfi_startproc
  43              		@ args = 0, pretend = 0, frame = 40
  44              		@ frame_needed = 1, uses_anonymous_args = 0
  45 0000 90B5     		push	{r4, r7, lr}
  46              		.cfi_def_cfa_offset 12
  47              		.cfi_offset 4, -12
  48              		.cfi_offset 7, -8
  49              		.cfi_offset 14, -4
  50 0002 8BB0     		sub	sp, sp, #44
  51              		.cfi_def_cfa_offset 56
  52 0004 00AF     		add	r7, sp, #0
  53              		.cfi_def_cfa_register 7
  54 0006 F860     		str	r0, [r7, #12]
  55 0008 B960     		str	r1, [r7, #8]
  56 000a 7A60     		str	r2, [r7, #4]
  38:nut_bolts.c   ****   char *ptr = line + *char_counter;
  57              		.loc 1 38 0
  58 000c BB68     		ldr	r3, [r7, #8]
  59 000e 1B78     		ldrb	r3, [r3]	@ zero_extendqisi2
  60 0010 1A46     		mov	r2, r3
  61 0012 FB68     		ldr	r3, [r7, #12]
  62 0014 1344     		add	r3, r3, r2
  63 0016 7B62     		str	r3, [r7, #36]
  39:nut_bolts.c   ****   unsigned char c;
  40:nut_bolts.c   **** 
  41:nut_bolts.c   ****   // Grab first character and increment pointer. No spaces assumed in line.
  42:nut_bolts.c   ****   c = *ptr++;
  64              		.loc 1 42 0
  65 0018 7B6A     		ldr	r3, [r7, #36]
  66 001a 5A1C     		adds	r2, r3, #1
  67 001c 7A62     		str	r2, [r7, #36]
  68 001e 1B78     		ldrb	r3, [r3]
  69 0020 87F82330 		strb	r3, [r7, #35]
  43:nut_bolts.c   **** 
  44:nut_bolts.c   ****   // Capture initial positive/minus character
  45:nut_bolts.c   ****   bool isnegative = false;
ARM GAS  C:\Users\barto\AppData\Local\Temp\ccVtrjqg.s 			page 3


  70              		.loc 1 45 0
  71 0024 0023     		movs	r3, #0
  72 0026 87F82230 		strb	r3, [r7, #34]
  46:nut_bolts.c   ****   if (c == '-') {
  73              		.loc 1 46 0
  74 002a 97F82330 		ldrb	r3, [r7, #35]	@ zero_extendqisi2
  75 002e 2D2B     		cmp	r3, #45
  76 0030 09D1     		bne	.L2
  47:nut_bolts.c   ****     isnegative = true;
  77              		.loc 1 47 0
  78 0032 0123     		movs	r3, #1
  79 0034 87F82230 		strb	r3, [r7, #34]
  48:nut_bolts.c   ****     c = *ptr++;
  80              		.loc 1 48 0
  81 0038 7B6A     		ldr	r3, [r7, #36]
  82 003a 5A1C     		adds	r2, r3, #1
  83 003c 7A62     		str	r2, [r7, #36]
  84 003e 1B78     		ldrb	r3, [r3]
  85 0040 87F82330 		strb	r3, [r7, #35]
  86 0044 09E0     		b	.L3
  87              	.L2:
  49:nut_bolts.c   ****   } else if (c == '+') {
  88              		.loc 1 49 0
  89 0046 97F82330 		ldrb	r3, [r7, #35]	@ zero_extendqisi2
  90 004a 2B2B     		cmp	r3, #43
  91 004c 05D1     		bne	.L3
  50:nut_bolts.c   ****     c = *ptr++;
  92              		.loc 1 50 0
  93 004e 7B6A     		ldr	r3, [r7, #36]
  94 0050 5A1C     		adds	r2, r3, #1
  95 0052 7A62     		str	r2, [r7, #36]
  96 0054 1B78     		ldrb	r3, [r3]
  97 0056 87F82330 		strb	r3, [r7, #35]
  98              	.L3:
  51:nut_bolts.c   ****   }
  52:nut_bolts.c   **** 
  53:nut_bolts.c   ****   // Extract number into fast integer. Track decimal in terms of exponent value.
  54:nut_bolts.c   ****   uint32_t intval = 0;
  99              		.loc 1 54 0
 100 005a 0023     		movs	r3, #0
 101 005c FB61     		str	r3, [r7, #28]
  55:nut_bolts.c   ****   int8_t exp = 0;
 102              		.loc 1 55 0
 103 005e 0023     		movs	r3, #0
 104 0060 FB76     		strb	r3, [r7, #27]
  56:nut_bolts.c   ****   uint8_t ndigit = 0;
 105              		.loc 1 56 0
 106 0062 0023     		movs	r3, #0
 107 0064 BB76     		strb	r3, [r7, #26]
  57:nut_bolts.c   ****   bool isdecimal = false;
 108              		.loc 1 57 0
 109 0066 0023     		movs	r3, #0
 110 0068 7B76     		strb	r3, [r7, #25]
 111              	.L10:
  58:nut_bolts.c   ****   while(1) {
  59:nut_bolts.c   ****     c -= '0';
 112              		.loc 1 59 0
ARM GAS  C:\Users\barto\AppData\Local\Temp\ccVtrjqg.s 			page 4


 113 006a 97F82330 		ldrb	r3, [r7, #35]
 114 006e 303B     		subs	r3, r3, #48
 115 0070 87F82330 		strb	r3, [r7, #35]
  60:nut_bolts.c   ****     if (c <= 9) {
 116              		.loc 1 60 0
 117 0074 97F82330 		ldrb	r3, [r7, #35]	@ zero_extendqisi2
 118 0078 092B     		cmp	r3, #9
 119 007a 25D8     		bhi	.L4
  61:nut_bolts.c   ****       ndigit++;
 120              		.loc 1 61 0
 121 007c BB7E     		ldrb	r3, [r7, #26]	@ zero_extendqisi2
 122 007e 0133     		adds	r3, r3, #1
 123 0080 BB76     		strb	r3, [r7, #26]
  62:nut_bolts.c   ****       if (ndigit <= MAX_INT_DIGITS) {
 124              		.loc 1 62 0
 125 0082 BB7E     		ldrb	r3, [r7, #26]	@ zero_extendqisi2
 126 0084 082B     		cmp	r3, #8
 127 0086 12D8     		bhi	.L5
  63:nut_bolts.c   ****         if (isdecimal) { exp--; }
 128              		.loc 1 63 0
 129 0088 7B7E     		ldrb	r3, [r7, #25]	@ zero_extendqisi2
 130 008a 002B     		cmp	r3, #0
 131 008c 05D0     		beq	.L6
 132              		.loc 1 63 0 is_stmt 0 discriminator 1
 133 008e 97F91B30 		ldrsb	r3, [r7, #27]
 134 0092 DBB2     		uxtb	r3, r3
 135 0094 013B     		subs	r3, r3, #1
 136 0096 DBB2     		uxtb	r3, r3
 137 0098 FB76     		strb	r3, [r7, #27]
 138              	.L6:
  64:nut_bolts.c   ****         intval = (((intval << 2) + intval) << 1) + c; // intval*10 + c
 139              		.loc 1 64 0 is_stmt 1
 140 009a FB69     		ldr	r3, [r7, #28]
 141 009c 9A00     		lsls	r2, r3, #2
 142 009e FB69     		ldr	r3, [r7, #28]
 143 00a0 1344     		add	r3, r3, r2
 144 00a2 5A00     		lsls	r2, r3, #1
 145 00a4 97F82330 		ldrb	r3, [r7, #35]	@ zero_extendqisi2
 146 00a8 1344     		add	r3, r3, r2
 147 00aa FB61     		str	r3, [r7, #28]
 148 00ac 18E0     		b	.L8
 149              	.L5:
  65:nut_bolts.c   ****       } else {
  66:nut_bolts.c   ****         if (!(isdecimal)) { exp++; }  // Drop overflow digits
 150              		.loc 1 66 0
 151 00ae 7B7E     		ldrb	r3, [r7, #25]
 152 00b0 83F00103 		eor	r3, r3, #1
 153 00b4 DBB2     		uxtb	r3, r3
 154 00b6 002B     		cmp	r3, #0
 155 00b8 12D0     		beq	.L8
 156              		.loc 1 66 0 is_stmt 0 discriminator 1
 157 00ba 97F91B30 		ldrsb	r3, [r7, #27]
 158 00be DBB2     		uxtb	r3, r3
 159 00c0 0133     		adds	r3, r3, #1
 160 00c2 DBB2     		uxtb	r3, r3
 161 00c4 FB76     		strb	r3, [r7, #27]
 162 00c6 0BE0     		b	.L8
ARM GAS  C:\Users\barto\AppData\Local\Temp\ccVtrjqg.s 			page 5


 163              	.L4:
  67:nut_bolts.c   ****       }
  68:nut_bolts.c   ****     } else if (c == (('.'-'0') & 0xff)  &&  !(isdecimal)) {
 164              		.loc 1 68 0 is_stmt 1
 165 00c8 97F82330 		ldrb	r3, [r7, #35]	@ zero_extendqisi2
 166 00cc FE2B     		cmp	r3, #254
 167 00ce 0ED1     		bne	.L9
 168              		.loc 1 68 0 is_stmt 0 discriminator 1
 169 00d0 7B7E     		ldrb	r3, [r7, #25]
 170 00d2 83F00103 		eor	r3, r3, #1
 171 00d6 DBB2     		uxtb	r3, r3
 172 00d8 002B     		cmp	r3, #0
 173 00da 08D0     		beq	.L9
  69:nut_bolts.c   ****       isdecimal = true;
 174              		.loc 1 69 0 is_stmt 1
 175 00dc 0123     		movs	r3, #1
 176 00de 7B76     		strb	r3, [r7, #25]
 177              	.L8:
  70:nut_bolts.c   ****     } else {
  71:nut_bolts.c   ****       break;
  72:nut_bolts.c   ****     }
  73:nut_bolts.c   ****     c = *ptr++;
 178              		.loc 1 73 0
 179 00e0 7B6A     		ldr	r3, [r7, #36]
 180 00e2 5A1C     		adds	r2, r3, #1
 181 00e4 7A62     		str	r2, [r7, #36]
 182 00e6 1B78     		ldrb	r3, [r3]
 183 00e8 87F82330 		strb	r3, [r7, #35]
  74:nut_bolts.c   ****   }
 184              		.loc 1 74 0
 185 00ec BDE7     		b	.L10
 186              	.L9:
  75:nut_bolts.c   **** 
  76:nut_bolts.c   ****   // Return if no digits have been read.
  77:nut_bolts.c   ****   if (!ndigit) { return(false); };
 187              		.loc 1 77 0
 188 00ee BB7E     		ldrb	r3, [r7, #26]	@ zero_extendqisi2
 189 00f0 002B     		cmp	r3, #0
 190 00f2 01D1     		bne	.L11
 191              		.loc 1 77 0 is_stmt 0 discriminator 1
 192 00f4 0023     		movs	r3, #0
 193 00f6 63E0     		b	.L12
 194              	.L11:
  78:nut_bolts.c   **** 
  79:nut_bolts.c   ****   // Convert integer into floating point.
  80:nut_bolts.c   ****   float fval;
  81:nut_bolts.c   ****   fval = (float)intval;
 195              		.loc 1 81 0 is_stmt 1
 196 00f8 F869     		ldr	r0, [r7, #28]
 197 00fa FFF7FEFF 		bl	__aeabi_ui2f
 198 00fe 0346     		mov	r3, r0
 199 0100 7B61     		str	r3, [r7, #20]	@ float
  82:nut_bolts.c   **** 
  83:nut_bolts.c   ****   // Apply decimal. Should perform no more than two floating point multiplications for the
  84:nut_bolts.c   ****   // expected range of E0 to E-4.
  85:nut_bolts.c   ****   if (fval != 0) {
 200              		.loc 1 85 0
ARM GAS  C:\Users\barto\AppData\Local\Temp\ccVtrjqg.s 			page 6


 201 0102 4FF00001 		mov	r1, #0
 202 0106 7869     		ldr	r0, [r7, #20]	@ float
 203 0108 FFF7FEFF 		bl	__aeabi_fcmpeq
 204 010c 0346     		mov	r3, r0
 205 010e 002B     		cmp	r3, #0
 206 0110 40D1     		bne	.L13
  86:nut_bolts.c   ****     while (exp <= -2) {
 207              		.loc 1 86 0
 208 0112 13E0     		b	.L15
 209              	.L16:
  87:nut_bolts.c   ****       fval *= 0.01;
 210              		.loc 1 87 0
 211 0114 7869     		ldr	r0, [r7, #20]	@ float
 212 0116 FFF7FEFF 		bl	__aeabi_f2d
 213 011a 2BA3     		adr	r3, .L22
 214 011c D3E90023 		ldrd	r2, [r3]
 215 0120 FFF7FEFF 		bl	__aeabi_dmul
 216 0124 0346     		mov	r3, r0
 217 0126 0C46     		mov	r4, r1
 218 0128 1846     		mov	r0, r3
 219 012a 2146     		mov	r1, r4
 220 012c FFF7FEFF 		bl	__aeabi_d2f
 221 0130 0346     		mov	r3, r0
 222 0132 7B61     		str	r3, [r7, #20]	@ float
  88:nut_bolts.c   ****       exp += 2;
 223              		.loc 1 88 0
 224 0134 FB7E     		ldrb	r3, [r7, #27]	@ zero_extendqisi2
 225 0136 0233     		adds	r3, r3, #2
 226 0138 DBB2     		uxtb	r3, r3
 227 013a FB76     		strb	r3, [r7, #27]
 228              	.L15:
  86:nut_bolts.c   ****     while (exp <= -2) {
 229              		.loc 1 86 0
 230 013c 97F91B30 		ldrsb	r3, [r7, #27]
 231 0140 B3F1FF3F 		cmp	r3, #-1
 232 0144 E6DB     		blt	.L16
  89:nut_bolts.c   ****     }
  90:nut_bolts.c   ****     if (exp < 0) {
 233              		.loc 1 90 0
 234 0146 97F91B30 		ldrsb	r3, [r7, #27]
 235 014a 002B     		cmp	r3, #0
 236 014c 10DA     		bge	.L17
  91:nut_bolts.c   ****       fval *= 0.1;
 237              		.loc 1 91 0
 238 014e 7869     		ldr	r0, [r7, #20]	@ float
 239 0150 FFF7FEFF 		bl	__aeabi_f2d
 240 0154 1EA3     		adr	r3, .L22+8
 241 0156 D3E90023 		ldrd	r2, [r3]
 242 015a FFF7FEFF 		bl	__aeabi_dmul
 243 015e 0346     		mov	r3, r0
 244 0160 0C46     		mov	r4, r1
 245 0162 1846     		mov	r0, r3
 246 0164 2146     		mov	r1, r4
 247 0166 FFF7FEFF 		bl	__aeabi_d2f
 248 016a 0346     		mov	r3, r0
 249 016c 7B61     		str	r3, [r7, #20]	@ float
 250 016e 11E0     		b	.L13
ARM GAS  C:\Users\barto\AppData\Local\Temp\ccVtrjqg.s 			page 7


 251              	.L17:
  92:nut_bolts.c   ****     } else if (exp > 0) {
 252              		.loc 1 92 0
 253 0170 97F91B30 		ldrsb	r3, [r7, #27]
 254 0174 002B     		cmp	r3, #0
 255 0176 0DDD     		ble	.L13
 256              	.L18:
  93:nut_bolts.c   ****       do {
  94:nut_bolts.c   ****         fval *= 10.0;
 257              		.loc 1 94 0 discriminator 1
 258 0178 1749     		ldr	r1, .L22+16
 259 017a 7869     		ldr	r0, [r7, #20]	@ float
 260 017c FFF7FEFF 		bl	__aeabi_fmul
 261 0180 0346     		mov	r3, r0
 262 0182 7B61     		str	r3, [r7, #20]	@ float
  95:nut_bolts.c   ****       } while (--exp > 0);
 263              		.loc 1 95 0 discriminator 1
 264 0184 FB7E     		ldrb	r3, [r7, #27]	@ zero_extendqisi2
 265 0186 013B     		subs	r3, r3, #1
 266 0188 DBB2     		uxtb	r3, r3
 267 018a FB76     		strb	r3, [r7, #27]
 268 018c 97F91B30 		ldrsb	r3, [r7, #27]
 269 0190 002B     		cmp	r3, #0
 270 0192 F1DC     		bgt	.L18
 271              	.L13:
  96:nut_bolts.c   ****     }
  97:nut_bolts.c   ****   }
  98:nut_bolts.c   **** 
  99:nut_bolts.c   ****   // Assign floating point value with correct sign.
 100:nut_bolts.c   ****   if (isnegative) {
 272              		.loc 1 100 0
 273 0194 97F82230 		ldrb	r3, [r7, #34]	@ zero_extendqisi2
 274 0198 002B     		cmp	r3, #0
 275 019a 05D0     		beq	.L19
 101:nut_bolts.c   ****     *float_ptr = -fval;
 276              		.loc 1 101 0
 277 019c 7B69     		ldr	r3, [r7, #20]
 278 019e 83F00042 		eor	r2, r3, #-2147483648
 279 01a2 7B68     		ldr	r3, [r7, #4]
 280 01a4 1A60     		str	r2, [r3]	@ float
 281 01a6 02E0     		b	.L20
 282              	.L19:
 102:nut_bolts.c   ****   } else {
 103:nut_bolts.c   ****     *float_ptr = fval;
 283              		.loc 1 103 0
 284 01a8 7B68     		ldr	r3, [r7, #4]
 285 01aa 7A69     		ldr	r2, [r7, #20]	@ float
 286 01ac 1A60     		str	r2, [r3]	@ float
 287              	.L20:
 104:nut_bolts.c   ****   }
 105:nut_bolts.c   **** 
 106:nut_bolts.c   ****   *char_counter = ptr - line - 1; // Set char_counter to next statement
 288              		.loc 1 106 0
 289 01ae 7A6A     		ldr	r2, [r7, #36]
 290 01b0 FB68     		ldr	r3, [r7, #12]
 291 01b2 D31A     		subs	r3, r2, r3
 292 01b4 DBB2     		uxtb	r3, r3
ARM GAS  C:\Users\barto\AppData\Local\Temp\ccVtrjqg.s 			page 8


 293 01b6 013B     		subs	r3, r3, #1
 294 01b8 DAB2     		uxtb	r2, r3
 295 01ba BB68     		ldr	r3, [r7, #8]
 296 01bc 1A70     		strb	r2, [r3]
 107:nut_bolts.c   **** 
 108:nut_bolts.c   ****   return(true);
 297              		.loc 1 108 0
 298 01be 0123     		movs	r3, #1
 299              	.L12:
 109:nut_bolts.c   **** }
 300              		.loc 1 109 0
 301 01c0 1846     		mov	r0, r3
 302 01c2 2C37     		adds	r7, r7, #44
 303              		.cfi_def_cfa_offset 12
 304 01c4 BD46     		mov	sp, r7
 305              		.cfi_def_cfa_register 13
 306              		@ sp needed
 307 01c6 90BD     		pop	{r4, r7, pc}
 308              	.L23:
 309              		.align	3
 310              	.L22:
 311 01c8 7B14AE47 		.word	1202590843
 312 01cc E17A843F 		.word	1065646817
 313 01d0 9A999999 		.word	-1717986918
 314 01d4 9999B93F 		.word	1069128089
 315 01d8 00002041 		.word	1092616192
 316              		.cfi_endproc
 317              	.LFE64:
 318              		.size	read_float, .-read_float
 319              		.global	__aeabi_d2uiz
 320              		.section	.text.delay_sec,"ax",%progbits
 321              		.align	2
 322              		.global	delay_sec
 323              		.thumb
 324              		.thumb_func
 325              		.type	delay_sec, %function
 326              	delay_sec:
 327              	.LFB65:
 110:nut_bolts.c   **** 
 111:nut_bolts.c   **** 
 112:nut_bolts.c   **** // Non-blocking delay function used for general operation and suspend features.
 113:nut_bolts.c   **** void delay_sec(float seconds, uint8_t mode)
 114:nut_bolts.c   **** {
 328              		.loc 1 114 0
 329              		.cfi_startproc
 330              		@ args = 0, pretend = 0, frame = 16
 331              		@ frame_needed = 1, uses_anonymous_args = 0
 332 0000 90B5     		push	{r4, r7, lr}
 333              		.cfi_def_cfa_offset 12
 334              		.cfi_offset 4, -12
 335              		.cfi_offset 7, -8
 336              		.cfi_offset 14, -4
 337 0002 85B0     		sub	sp, sp, #20
 338              		.cfi_def_cfa_offset 32
 339 0004 00AF     		add	r7, sp, #0
 340              		.cfi_def_cfa_register 7
 341 0006 7860     		str	r0, [r7, #4]	@ float
ARM GAS  C:\Users\barto\AppData\Local\Temp\ccVtrjqg.s 			page 9


 342 0008 0B46     		mov	r3, r1
 343 000a FB70     		strb	r3, [r7, #3]
 115:nut_bolts.c   ****  	uint16_t i = ceil(1000/DWELL_TIME_STEP*seconds);
 344              		.loc 1 115 0
 345 000c 1B49     		ldr	r1, .L33
 346 000e 7868     		ldr	r0, [r7, #4]	@ float
 347 0010 FFF7FEFF 		bl	__aeabi_fmul
 348 0014 0346     		mov	r3, r0
 349 0016 1846     		mov	r0, r3
 350 0018 FFF7FEFF 		bl	__aeabi_f2d
 351 001c 0346     		mov	r3, r0
 352 001e 0C46     		mov	r4, r1
 353 0020 1846     		mov	r0, r3
 354 0022 2146     		mov	r1, r4
 355 0024 FFF7FEFF 		bl	ceil
 356 0028 0346     		mov	r3, r0
 357 002a 0C46     		mov	r4, r1
 358 002c 1846     		mov	r0, r3
 359 002e 2146     		mov	r1, r4
 360 0030 FFF7FEFF 		bl	__aeabi_d2uiz
 361 0034 0346     		mov	r3, r0
 362 0036 FB81     		strh	r3, [r7, #14]	@ movhi
 116:nut_bolts.c   **** 	while (i-- > 0) {
 363              		.loc 1 116 0
 364 0038 14E0     		b	.L25
 365              	.L30:
 117:nut_bolts.c   **** 		if (sys.abort) { return; }
 366              		.loc 1 117 0
 367 003a 114B     		ldr	r3, .L33+4
 368 003c 5B78     		ldrb	r3, [r3, #1]	@ zero_extendqisi2
 369 003e 002B     		cmp	r3, #0
 370 0040 16D1     		bne	.L31
 118:nut_bolts.c   **** 		if (mode == DELAY_MODE_DWELL) {
 371              		.loc 1 118 0
 372 0042 FB78     		ldrb	r3, [r7, #3]	@ zero_extendqisi2
 373 0044 002B     		cmp	r3, #0
 374 0046 02D1     		bne	.L28
 119:nut_bolts.c   **** 			protocol_execute_realtime();
 375              		.loc 1 119 0
 376 0048 FFF7FEFF 		bl	protocol_execute_realtime
 377 004c 07E0     		b	.L29
 378              	.L28:
 120:nut_bolts.c   **** 		} else { // DELAY_MODE_SYS_SUSPEND
 121:nut_bolts.c   **** 		  // Execute rt_system() only to avoid nesting suspend loops.
 122:nut_bolts.c   **** 		  protocol_exec_rt_system();
 379              		.loc 1 122 0
 380 004e FFF7FEFF 		bl	protocol_exec_rt_system
 123:nut_bolts.c   **** 		  if (sys.suspend & SUSPEND_RESTART_RETRACT) { return; } // Bail, if safety door reopens.
 381              		.loc 1 123 0
 382 0052 0B4B     		ldr	r3, .L33+4
 383 0054 9B78     		ldrb	r3, [r3, #2]	@ zero_extendqisi2
 384 0056 03F00203 		and	r3, r3, #2
 385 005a 002B     		cmp	r3, #0
 386 005c 0AD1     		bne	.L32
 387              	.L29:
 124:nut_bolts.c   **** 		}
 125:nut_bolts.c   **** 		delay_ms(DWELL_TIME_STEP); // Delay DWELL_TIME_STEP increment
ARM GAS  C:\Users\barto\AppData\Local\Temp\ccVtrjqg.s 			page 10


 388              		.loc 1 125 0
 389 005e 3220     		movs	r0, #50
 390 0060 FFF7FEFF 		bl	CyDelay
 391              	.L25:
 116:nut_bolts.c   **** 		if (sys.abort) { return; }
 392              		.loc 1 116 0
 393 0064 FB89     		ldrh	r3, [r7, #14]
 394 0066 5A1E     		subs	r2, r3, #1
 395 0068 FA81     		strh	r2, [r7, #14]	@ movhi
 396 006a 002B     		cmp	r3, #0
 397 006c E5D1     		bne	.L30
 398 006e 02E0     		b	.L24
 399              	.L31:
 117:nut_bolts.c   **** 		if (mode == DELAY_MODE_DWELL) {
 400              		.loc 1 117 0
 401 0070 00BF     		nop
 402 0072 00E0     		b	.L24
 403              	.L32:
 123:nut_bolts.c   **** 		}
 404              		.loc 1 123 0
 405 0074 00BF     		nop
 406              	.L24:
 126:nut_bolts.c   **** 	}
 127:nut_bolts.c   **** }
 407              		.loc 1 127 0
 408 0076 1437     		adds	r7, r7, #20
 409              		.cfi_def_cfa_offset 12
 410 0078 BD46     		mov	sp, r7
 411              		.cfi_def_cfa_register 13
 412              		@ sp needed
 413 007a 90BD     		pop	{r4, r7, pc}
 414              	.L34:
 415              		.align	2
 416              	.L33:
 417 007c 0000A041 		.word	1101004800
 418 0080 00000000 		.word	sys
 419              		.cfi_endproc
 420              	.LFE65:
 421              		.size	delay_sec, .-delay_sec
 422              		.global	__aeabi_fadd
 423              		.section	.text.hypot_f,"ax",%progbits
 424              		.align	2
 425              		.global	hypot_f
 426              		.thumb
 427              		.thumb_func
 428              		.type	hypot_f, %function
 429              	hypot_f:
 430              	.LFB66:
 128:nut_bolts.c   **** 
 129:nut_bolts.c   **** 
 130:nut_bolts.c   **** 
 131:nut_bolts.c   **** 
 132:nut_bolts.c   **** 
 133:nut_bolts.c   **** // Simple hypotenuse computation function.
 134:nut_bolts.c   **** float hypot_f(float x, float y) { return(sqrt(x*x + y*y)); }
 431              		.loc 1 134 0
 432              		.cfi_startproc
ARM GAS  C:\Users\barto\AppData\Local\Temp\ccVtrjqg.s 			page 11


 433              		@ args = 0, pretend = 0, frame = 8
 434              		@ frame_needed = 1, uses_anonymous_args = 0
 435 0000 90B5     		push	{r4, r7, lr}
 436              		.cfi_def_cfa_offset 12
 437              		.cfi_offset 4, -12
 438              		.cfi_offset 7, -8
 439              		.cfi_offset 14, -4
 440 0002 83B0     		sub	sp, sp, #12
 441              		.cfi_def_cfa_offset 24
 442 0004 00AF     		add	r7, sp, #0
 443              		.cfi_def_cfa_register 7
 444 0006 7860     		str	r0, [r7, #4]	@ float
 445 0008 3960     		str	r1, [r7]	@ float
 446              		.loc 1 134 0
 447 000a 7968     		ldr	r1, [r7, #4]	@ float
 448 000c 7868     		ldr	r0, [r7, #4]	@ float
 449 000e FFF7FEFF 		bl	__aeabi_fmul
 450 0012 0346     		mov	r3, r0
 451 0014 1C46     		mov	r4, r3
 452 0016 3968     		ldr	r1, [r7]	@ float
 453 0018 3868     		ldr	r0, [r7]	@ float
 454 001a FFF7FEFF 		bl	__aeabi_fmul
 455 001e 0346     		mov	r3, r0
 456 0020 1946     		mov	r1, r3
 457 0022 2046     		mov	r0, r4
 458 0024 FFF7FEFF 		bl	__aeabi_fadd
 459 0028 0346     		mov	r3, r0
 460 002a 1846     		mov	r0, r3
 461 002c FFF7FEFF 		bl	__aeabi_f2d
 462 0030 0346     		mov	r3, r0
 463 0032 0C46     		mov	r4, r1
 464 0034 1846     		mov	r0, r3
 465 0036 2146     		mov	r1, r4
 466 0038 FFF7FEFF 		bl	sqrt
 467 003c 0346     		mov	r3, r0
 468 003e 0C46     		mov	r4, r1
 469 0040 1846     		mov	r0, r3
 470 0042 2146     		mov	r1, r4
 471 0044 FFF7FEFF 		bl	__aeabi_d2f
 472 0048 0346     		mov	r3, r0
 473 004a 1846     		mov	r0, r3
 474 004c 0C37     		adds	r7, r7, #12
 475              		.cfi_def_cfa_offset 12
 476 004e BD46     		mov	sp, r7
 477              		.cfi_def_cfa_register 13
 478              		@ sp needed
 479 0050 90BD     		pop	{r4, r7, pc}
 480              		.cfi_endproc
 481              	.LFE66:
 482              		.size	hypot_f, .-hypot_f
 483              		.global	__aeabi_fdiv
 484 0052 00BF     		.section	.text.convert_delta_vector_to_unit_vector,"ax",%progbits
 485              		.align	2
 486              		.global	convert_delta_vector_to_unit_vector
 487              		.thumb
 488              		.thumb_func
 489              		.type	convert_delta_vector_to_unit_vector, %function
ARM GAS  C:\Users\barto\AppData\Local\Temp\ccVtrjqg.s 			page 12


 490              	convert_delta_vector_to_unit_vector:
 491              	.LFB67:
 135:nut_bolts.c   **** 
 136:nut_bolts.c   **** 
 137:nut_bolts.c   **** float convert_delta_vector_to_unit_vector(float *vector)
 138:nut_bolts.c   **** {
 492              		.loc 1 138 0
 493              		.cfi_startproc
 494              		@ args = 0, pretend = 0, frame = 24
 495              		@ frame_needed = 1, uses_anonymous_args = 0
 496 0000 90B5     		push	{r4, r7, lr}
 497              		.cfi_def_cfa_offset 12
 498              		.cfi_offset 4, -12
 499              		.cfi_offset 7, -8
 500              		.cfi_offset 14, -4
 501 0002 87B0     		sub	sp, sp, #28
 502              		.cfi_def_cfa_offset 40
 503 0004 00AF     		add	r7, sp, #0
 504              		.cfi_def_cfa_register 7
 505 0006 7860     		str	r0, [r7, #4]
 139:nut_bolts.c   ****   uint8_t idx;
 140:nut_bolts.c   ****   float magnitude = 0.0;
 506              		.loc 1 140 0
 507 0008 4FF00003 		mov	r3, #0
 508 000c 3B61     		str	r3, [r7, #16]	@ float
 141:nut_bolts.c   ****   for (idx=0; idx<N_AXIS; idx++) {
 509              		.loc 1 141 0
 510 000e 0023     		movs	r3, #0
 511 0010 FB75     		strb	r3, [r7, #23]
 512 0012 23E0     		b	.L38
 513              	.L41:
 142:nut_bolts.c   ****     if (vector[idx] != 0.0) {
 514              		.loc 1 142 0
 515 0014 FB7D     		ldrb	r3, [r7, #23]	@ zero_extendqisi2
 516 0016 9B00     		lsls	r3, r3, #2
 517 0018 7A68     		ldr	r2, [r7, #4]
 518 001a 1344     		add	r3, r3, r2
 519 001c 1B68     		ldr	r3, [r3]	@ float
 520 001e 4FF00001 		mov	r1, #0
 521 0022 1846     		mov	r0, r3
 522 0024 FFF7FEFF 		bl	__aeabi_fcmpeq
 523 0028 0346     		mov	r3, r0
 524 002a 002B     		cmp	r3, #0
 525 002c 13D1     		bne	.L39
 143:nut_bolts.c   ****       magnitude += vector[idx]*vector[idx];
 526              		.loc 1 143 0
 527 002e FB7D     		ldrb	r3, [r7, #23]	@ zero_extendqisi2
 528 0030 9B00     		lsls	r3, r3, #2
 529 0032 7A68     		ldr	r2, [r7, #4]
 530 0034 1344     		add	r3, r3, r2
 531 0036 1868     		ldr	r0, [r3]	@ float
 532 0038 FB7D     		ldrb	r3, [r7, #23]	@ zero_extendqisi2
 533 003a 9B00     		lsls	r3, r3, #2
 534 003c 7A68     		ldr	r2, [r7, #4]
 535 003e 1344     		add	r3, r3, r2
 536 0040 1B68     		ldr	r3, [r3]	@ float
 537 0042 1946     		mov	r1, r3
ARM GAS  C:\Users\barto\AppData\Local\Temp\ccVtrjqg.s 			page 13


 538 0044 FFF7FEFF 		bl	__aeabi_fmul
 539 0048 0346     		mov	r3, r0
 540 004a 1946     		mov	r1, r3
 541 004c 3869     		ldr	r0, [r7, #16]	@ float
 542 004e FFF7FEFF 		bl	__aeabi_fadd
 543 0052 0346     		mov	r3, r0
 544 0054 3B61     		str	r3, [r7, #16]	@ float
 545              	.L39:
 141:nut_bolts.c   ****   for (idx=0; idx<N_AXIS; idx++) {
 546              		.loc 1 141 0 discriminator 2
 547 0056 FB7D     		ldrb	r3, [r7, #23]	@ zero_extendqisi2
 548 0058 0133     		adds	r3, r3, #1
 549 005a FB75     		strb	r3, [r7, #23]
 550              	.L38:
 141:nut_bolts.c   ****   for (idx=0; idx<N_AXIS; idx++) {
 551              		.loc 1 141 0 is_stmt 0 discriminator 1
 552 005c FB7D     		ldrb	r3, [r7, #23]	@ zero_extendqisi2
 553 005e 022B     		cmp	r3, #2
 554 0060 D8D9     		bls	.L41
 144:nut_bolts.c   ****     }
 145:nut_bolts.c   ****   }
 146:nut_bolts.c   ****   magnitude = sqrt(magnitude);
 555              		.loc 1 146 0 is_stmt 1
 556 0062 3869     		ldr	r0, [r7, #16]	@ float
 557 0064 FFF7FEFF 		bl	__aeabi_f2d
 558 0068 0346     		mov	r3, r0
 559 006a 0C46     		mov	r4, r1
 560 006c 1846     		mov	r0, r3
 561 006e 2146     		mov	r1, r4
 562 0070 FFF7FEFF 		bl	sqrt
 563 0074 0346     		mov	r3, r0
 564 0076 0C46     		mov	r4, r1
 565 0078 1846     		mov	r0, r3
 566 007a 2146     		mov	r1, r4
 567 007c FFF7FEFF 		bl	__aeabi_d2f
 568 0080 0346     		mov	r3, r0
 569 0082 3B61     		str	r3, [r7, #16]	@ float
 147:nut_bolts.c   ****   float inv_magnitude = 1.0/magnitude;
 570              		.loc 1 147 0
 571 0084 3969     		ldr	r1, [r7, #16]	@ float
 572 0086 4FF07E50 		mov	r0, #1065353216
 573 008a FFF7FEFF 		bl	__aeabi_fdiv
 574 008e 0346     		mov	r3, r0
 575 0090 FB60     		str	r3, [r7, #12]	@ float
 148:nut_bolts.c   ****   for (idx=0; idx<N_AXIS; idx++) { vector[idx] *= inv_magnitude; }
 576              		.loc 1 148 0
 577 0092 0023     		movs	r3, #0
 578 0094 FB75     		strb	r3, [r7, #23]
 579 0096 11E0     		b	.L42
 580              	.L43:
 581              		.loc 1 148 0 is_stmt 0 discriminator 3
 582 0098 FB7D     		ldrb	r3, [r7, #23]	@ zero_extendqisi2
 583 009a 9B00     		lsls	r3, r3, #2
 584 009c 7A68     		ldr	r2, [r7, #4]
 585 009e D418     		adds	r4, r2, r3
 586 00a0 FB7D     		ldrb	r3, [r7, #23]	@ zero_extendqisi2
 587 00a2 9B00     		lsls	r3, r3, #2
ARM GAS  C:\Users\barto\AppData\Local\Temp\ccVtrjqg.s 			page 14


 588 00a4 7A68     		ldr	r2, [r7, #4]
 589 00a6 1344     		add	r3, r3, r2
 590 00a8 1B68     		ldr	r3, [r3]	@ float
 591 00aa F968     		ldr	r1, [r7, #12]	@ float
 592 00ac 1846     		mov	r0, r3
 593 00ae FFF7FEFF 		bl	__aeabi_fmul
 594 00b2 0346     		mov	r3, r0
 595 00b4 2360     		str	r3, [r4]	@ float
 596 00b6 FB7D     		ldrb	r3, [r7, #23]	@ zero_extendqisi2
 597 00b8 0133     		adds	r3, r3, #1
 598 00ba FB75     		strb	r3, [r7, #23]
 599              	.L42:
 600              		.loc 1 148 0 discriminator 1
 601 00bc FB7D     		ldrb	r3, [r7, #23]	@ zero_extendqisi2
 602 00be 022B     		cmp	r3, #2
 603 00c0 EAD9     		bls	.L43
 149:nut_bolts.c   ****   return(magnitude);
 604              		.loc 1 149 0 is_stmt 1
 605 00c2 3B69     		ldr	r3, [r7, #16]	@ float
 150:nut_bolts.c   **** }
 606              		.loc 1 150 0
 607 00c4 1846     		mov	r0, r3
 608 00c6 1C37     		adds	r7, r7, #28
 609              		.cfi_def_cfa_offset 12
 610 00c8 BD46     		mov	sp, r7
 611              		.cfi_def_cfa_register 13
 612              		@ sp needed
 613 00ca 90BD     		pop	{r4, r7, pc}
 614              		.cfi_endproc
 615              	.LFE67:
 616              		.size	convert_delta_vector_to_unit_vector, .-convert_delta_vector_to_unit_vector
 617              		.global	__aeabi_fcmpgt
 618              		.section	.text.limit_value_by_axis_maximum,"ax",%progbits
 619              		.align	2
 620              		.global	limit_value_by_axis_maximum
 621              		.thumb
 622              		.thumb_func
 623              		.type	limit_value_by_axis_maximum, %function
 624              	limit_value_by_axis_maximum:
 625              	.LFB68:
 151:nut_bolts.c   **** 
 152:nut_bolts.c   **** 
 153:nut_bolts.c   **** float limit_value_by_axis_maximum(float *max_value, float *unit_vec)
 154:nut_bolts.c   **** {
 626              		.loc 1 154 0
 627              		.cfi_startproc
 628              		@ args = 0, pretend = 0, frame = 16
 629              		@ frame_needed = 1, uses_anonymous_args = 0
 630 0000 80B5     		push	{r7, lr}
 631              		.cfi_def_cfa_offset 8
 632              		.cfi_offset 7, -8
 633              		.cfi_offset 14, -4
 634 0002 84B0     		sub	sp, sp, #16
 635              		.cfi_def_cfa_offset 24
 636 0004 00AF     		add	r7, sp, #0
 637              		.cfi_def_cfa_register 7
 638 0006 7860     		str	r0, [r7, #4]
ARM GAS  C:\Users\barto\AppData\Local\Temp\ccVtrjqg.s 			page 15


 639 0008 3960     		str	r1, [r7]
 155:nut_bolts.c   ****   uint8_t idx;
 156:nut_bolts.c   ****   float limit_value = SOME_LARGE_VALUE;
 640              		.loc 1 156 0
 641 000a 234B     		ldr	r3, .L58
 642 000c BB60     		str	r3, [r7, #8]	@ float
 157:nut_bolts.c   ****   for (idx=0; idx<N_AXIS; idx++) {
 643              		.loc 1 157 0
 644 000e 0023     		movs	r3, #0
 645 0010 FB73     		strb	r3, [r7, #15]
 646 0012 39E0     		b	.L47
 647              	.L53:
 158:nut_bolts.c   ****     if (unit_vec[idx] != 0) {  // Avoid divide by zero.
 648              		.loc 1 158 0
 649 0014 FB7B     		ldrb	r3, [r7, #15]	@ zero_extendqisi2
 650 0016 9B00     		lsls	r3, r3, #2
 651 0018 3A68     		ldr	r2, [r7]
 652 001a 1344     		add	r3, r3, r2
 653 001c 1B68     		ldr	r3, [r3]	@ float
 654 001e 4FF00001 		mov	r1, #0
 655 0022 1846     		mov	r0, r3
 656 0024 FFF7FEFF 		bl	__aeabi_fcmpeq
 657 0028 0346     		mov	r3, r0
 658 002a 002B     		cmp	r3, #0
 659 002c 29D1     		bne	.L48
 159:nut_bolts.c   ****       limit_value = min(limit_value,fabs(max_value[idx]/unit_vec[idx]));
 660              		.loc 1 159 0
 661 002e FB7B     		ldrb	r3, [r7, #15]	@ zero_extendqisi2
 662 0030 9B00     		lsls	r3, r3, #2
 663 0032 7A68     		ldr	r2, [r7, #4]
 664 0034 1344     		add	r3, r3, r2
 665 0036 1868     		ldr	r0, [r3]	@ float
 666 0038 FB7B     		ldrb	r3, [r7, #15]	@ zero_extendqisi2
 667 003a 9B00     		lsls	r3, r3, #2
 668 003c 3A68     		ldr	r2, [r7]
 669 003e 1344     		add	r3, r3, r2
 670 0040 1B68     		ldr	r3, [r3]	@ float
 671 0042 1946     		mov	r1, r3
 672 0044 FFF7FEFF 		bl	__aeabi_fdiv
 673 0048 0346     		mov	r3, r0
 674 004a 23F00043 		bic	r3, r3, #-2147483648
 675 004e B968     		ldr	r1, [r7, #8]	@ float
 676 0050 1846     		mov	r0, r3
 677 0052 FFF7FEFF 		bl	__aeabi_fcmpgt
 678 0056 0346     		mov	r3, r0
 679 0058 002B     		cmp	r3, #0
 680 005a 01D0     		beq	.L57
 681              		.loc 1 159 0 is_stmt 0 discriminator 1
 682 005c BB68     		ldr	r3, [r7, #8]	@ float
 683 005e 0FE0     		b	.L52
 684              	.L57:
 685              		.loc 1 159 0 discriminator 2
 686 0060 FB7B     		ldrb	r3, [r7, #15]	@ zero_extendqisi2
 687 0062 9B00     		lsls	r3, r3, #2
 688 0064 7A68     		ldr	r2, [r7, #4]
 689 0066 1344     		add	r3, r3, r2
 690 0068 1868     		ldr	r0, [r3]	@ float
ARM GAS  C:\Users\barto\AppData\Local\Temp\ccVtrjqg.s 			page 16


 691 006a FB7B     		ldrb	r3, [r7, #15]	@ zero_extendqisi2
 692 006c 9B00     		lsls	r3, r3, #2
 693 006e 3A68     		ldr	r2, [r7]
 694 0070 1344     		add	r3, r3, r2
 695 0072 1B68     		ldr	r3, [r3]	@ float
 696 0074 1946     		mov	r1, r3
 697 0076 FFF7FEFF 		bl	__aeabi_fdiv
 698 007a 0346     		mov	r3, r0
 699 007c 23F00043 		bic	r3, r3, #-2147483648
 700              	.L52:
 701              		.loc 1 159 0 discriminator 4
 702 0080 BB60     		str	r3, [r7, #8]	@ float
 703              	.L48:
 157:nut_bolts.c   ****   for (idx=0; idx<N_AXIS; idx++) {
 704              		.loc 1 157 0 is_stmt 1 discriminator 2
 705 0082 FB7B     		ldrb	r3, [r7, #15]	@ zero_extendqisi2
 706 0084 0133     		adds	r3, r3, #1
 707 0086 FB73     		strb	r3, [r7, #15]
 708              	.L47:
 157:nut_bolts.c   ****   for (idx=0; idx<N_AXIS; idx++) {
 709              		.loc 1 157 0 is_stmt 0 discriminator 1
 710 0088 FB7B     		ldrb	r3, [r7, #15]	@ zero_extendqisi2
 711 008a 022B     		cmp	r3, #2
 712 008c C2D9     		bls	.L53
 160:nut_bolts.c   ****     }
 161:nut_bolts.c   ****   }
 162:nut_bolts.c   ****   return(limit_value);
 713              		.loc 1 162 0 is_stmt 1
 714 008e BB68     		ldr	r3, [r7, #8]	@ float
 163:nut_bolts.c   **** }
 715              		.loc 1 163 0
 716 0090 1846     		mov	r0, r3
 717 0092 1037     		adds	r7, r7, #16
 718              		.cfi_def_cfa_offset 8
 719 0094 BD46     		mov	sp, r7
 720              		.cfi_def_cfa_register 13
 721              		@ sp needed
 722 0096 80BD     		pop	{r7, pc}
 723              	.L59:
 724              		.align	2
 725              	.L58:
 726 0098 9976967E 		.word	2123789977
 727              		.cfi_endproc
 728              	.LFE68:
 729              		.size	limit_value_by_axis_maximum, .-limit_value_by_axis_maximum
 730              		.section	.text.constrain,"ax",%progbits
 731              		.align	2
 732              		.global	constrain
 733              		.thumb
 734              		.thumb_func
 735              		.type	constrain, %function
 736              	constrain:
 737              	.LFB69:
 164:nut_bolts.c   **** 
 165:nut_bolts.c   **** int constrain(int val, int min, int max) {
 738              		.loc 1 165 0
 739              		.cfi_startproc
ARM GAS  C:\Users\barto\AppData\Local\Temp\ccVtrjqg.s 			page 17


 740              		@ args = 0, pretend = 0, frame = 16
 741              		@ frame_needed = 1, uses_anonymous_args = 0
 742              		@ link register save eliminated.
 743 0000 80B4     		push	{r7}
 744              		.cfi_def_cfa_offset 4
 745              		.cfi_offset 7, -4
 746 0002 85B0     		sub	sp, sp, #20
 747              		.cfi_def_cfa_offset 24
 748 0004 00AF     		add	r7, sp, #0
 749              		.cfi_def_cfa_register 7
 750 0006 F860     		str	r0, [r7, #12]
 751 0008 B960     		str	r1, [r7, #8]
 752 000a 7A60     		str	r2, [r7, #4]
 166:nut_bolts.c   ****     return (val < min)? min : (val > max)? max : val;    
 753              		.loc 1 166 0
 754 000c FA68     		ldr	r2, [r7, #12]
 755 000e BB68     		ldr	r3, [r7, #8]
 756 0010 9A42     		cmp	r2, r3
 757 0012 05DB     		blt	.L61
 758              		.loc 1 166 0 is_stmt 0 discriminator 1
 759 0014 FA68     		ldr	r2, [r7, #12]
 760 0016 7B68     		ldr	r3, [r7, #4]
 761 0018 9342     		cmp	r3, r2
 762 001a A8BF     		it	ge
 763 001c 1346     		movge	r3, r2
 764 001e 00E0     		b	.L63
 765              	.L61:
 766              		.loc 1 166 0 discriminator 2
 767 0020 BB68     		ldr	r3, [r7, #8]
 768              	.L63:
 167:nut_bolts.c   **** }
 769              		.loc 1 167 0 is_stmt 1 discriminator 5
 770 0022 1846     		mov	r0, r3
 771 0024 1437     		adds	r7, r7, #20
 772              		.cfi_def_cfa_offset 4
 773 0026 BD46     		mov	sp, r7
 774              		.cfi_def_cfa_register 13
 775              		@ sp needed
 776 0028 80BC     		pop	{r7}
 777              		.cfi_restore 7
 778              		.cfi_def_cfa_offset 0
 779 002a 7047     		bx	lr
 780              		.cfi_endproc
 781              	.LFE69:
 782              		.size	constrain, .-constrain
 783              		.section	.text.map,"ax",%progbits
 784              		.align	2
 785              		.global	map
 786              		.thumb
 787              		.thumb_func
 788              		.type	map, %function
 789              	map:
 790              	.LFB70:
 168:nut_bolts.c   **** 
 169:nut_bolts.c   **** long map(long x, long in_min, long in_max, long out_min, long out_max)
 170:nut_bolts.c   **** {
 791              		.loc 1 170 0
ARM GAS  C:\Users\barto\AppData\Local\Temp\ccVtrjqg.s 			page 18


 792              		.cfi_startproc
 793              		@ args = 4, pretend = 0, frame = 16
 794              		@ frame_needed = 1, uses_anonymous_args = 0
 795              		@ link register save eliminated.
 796 0000 80B4     		push	{r7}
 797              		.cfi_def_cfa_offset 4
 798              		.cfi_offset 7, -4
 799 0002 85B0     		sub	sp, sp, #20
 800              		.cfi_def_cfa_offset 24
 801 0004 00AF     		add	r7, sp, #0
 802              		.cfi_def_cfa_register 7
 803 0006 F860     		str	r0, [r7, #12]
 804 0008 B960     		str	r1, [r7, #8]
 805 000a 7A60     		str	r2, [r7, #4]
 806 000c 3B60     		str	r3, [r7]
 171:nut_bolts.c   ****   return (x - in_min) * (out_max - out_min) / (in_max - in_min) + out_min;
 807              		.loc 1 171 0
 808 000e FA68     		ldr	r2, [r7, #12]
 809 0010 BB68     		ldr	r3, [r7, #8]
 810 0012 D31A     		subs	r3, r2, r3
 811 0014 B969     		ldr	r1, [r7, #24]
 812 0016 3A68     		ldr	r2, [r7]
 813 0018 8A1A     		subs	r2, r1, r2
 814 001a 02FB03F2 		mul	r2, r2, r3
 815 001e 7968     		ldr	r1, [r7, #4]
 816 0020 BB68     		ldr	r3, [r7, #8]
 817 0022 CB1A     		subs	r3, r1, r3
 818 0024 92FBF3F2 		sdiv	r2, r2, r3
 819 0028 3B68     		ldr	r3, [r7]
 820 002a 1344     		add	r3, r3, r2
 172:nut_bolts.c   **** }
 821              		.loc 1 172 0
 822 002c 1846     		mov	r0, r3
 823 002e 1437     		adds	r7, r7, #20
 824              		.cfi_def_cfa_offset 4
 825 0030 BD46     		mov	sp, r7
 826              		.cfi_def_cfa_register 13
 827              		@ sp needed
 828 0032 80BC     		pop	{r7}
 829              		.cfi_restore 7
 830              		.cfi_def_cfa_offset 0
 831 0034 7047     		bx	lr
 832              		.cfi_endproc
 833              	.LFE70:
 834              		.size	map, .-map
 835 0036 00BF     		.section	.text.mapConstrain,"ax",%progbits
 836              		.align	2
 837              		.global	mapConstrain
 838              		.thumb
 839              		.thumb_func
 840              		.type	mapConstrain, %function
 841              	mapConstrain:
 842              	.LFB71:
 173:nut_bolts.c   **** 
 174:nut_bolts.c   **** long mapConstrain(long x, long in_min, long in_max, long out_min, long out_max)
 175:nut_bolts.c   **** {
 843              		.loc 1 175 0
ARM GAS  C:\Users\barto\AppData\Local\Temp\ccVtrjqg.s 			page 19


 844              		.cfi_startproc
 845              		@ args = 4, pretend = 0, frame = 16
 846              		@ frame_needed = 1, uses_anonymous_args = 0
 847 0000 80B5     		push	{r7, lr}
 848              		.cfi_def_cfa_offset 8
 849              		.cfi_offset 7, -8
 850              		.cfi_offset 14, -4
 851 0002 86B0     		sub	sp, sp, #24
 852              		.cfi_def_cfa_offset 32
 853 0004 02AF     		add	r7, sp, #8
 854              		.cfi_def_cfa 7, 24
 855 0006 F860     		str	r0, [r7, #12]
 856 0008 B960     		str	r1, [r7, #8]
 857 000a 7A60     		str	r2, [r7, #4]
 858 000c 3B60     		str	r3, [r7]
 176:nut_bolts.c   ****     x = constrain(x, out_min, out_max);
 859              		.loc 1 176 0
 860 000e BA69     		ldr	r2, [r7, #24]
 861 0010 3968     		ldr	r1, [r7]
 862 0012 F868     		ldr	r0, [r7, #12]
 863 0014 FFF7FEFF 		bl	constrain
 864 0018 F860     		str	r0, [r7, #12]
 177:nut_bolts.c   ****     return map(x, in_min, in_max, out_min, out_max);
 865              		.loc 1 177 0
 866 001a BB69     		ldr	r3, [r7, #24]
 867 001c 0093     		str	r3, [sp]
 868 001e 3B68     		ldr	r3, [r7]
 869 0020 7A68     		ldr	r2, [r7, #4]
 870 0022 B968     		ldr	r1, [r7, #8]
 871 0024 F868     		ldr	r0, [r7, #12]
 872 0026 FFF7FEFF 		bl	map
 873 002a 0346     		mov	r3, r0
 178:nut_bolts.c   **** }
 874              		.loc 1 178 0
 875 002c 1846     		mov	r0, r3
 876 002e 1037     		adds	r7, r7, #16
 877              		.cfi_def_cfa_offset 8
 878 0030 BD46     		mov	sp, r7
 879              		.cfi_def_cfa_register 13
 880              		@ sp needed
 881 0032 80BD     		pop	{r7, pc}
 882              		.cfi_endproc
 883              	.LFE71:
 884              		.size	mapConstrain, .-mapConstrain
 885              		.text
 886              	.Letext0:
 887              		.file 2 "c:\\program files (x86)\\cypress\\psoc creator\\4.2\\psoc creator\\import\\gnu\\arm\\5.4.
 888              		.file 3 "c:\\program files (x86)\\cypress\\psoc creator\\4.2\\psoc creator\\import\\gnu\\arm\\5.4.
 889              		.file 4 "system.h"
 890              		.file 5 "Generated_Source\\PSoC5/core_cm3.h"