ARM GAS  C:\Users\barto\AppData\Local\Temp\ccxvLAbr.s 			page 1


   1              		.syntax unified
   2              		.cpu cortex-m3
   3              		.fpu softvfp
   4              		.eabi_attribute 20, 1
   5              		.eabi_attribute 21, 1
   6              		.eabi_attribute 23, 3
   7              		.eabi_attribute 24, 1
   8              		.eabi_attribute 25, 1
   9              		.eabi_attribute 26, 1
  10              		.eabi_attribute 30, 6
  11              		.eabi_attribute 34, 1
  12              		.eabi_attribute 18, 4
  13              		.thumb
  14              		.syntax unified
  15              		.file	"planner.c"
  16              		.text
  17              	.Ltext0:
  18              		.cfi_sections	.debug_frame
  19              		.comm	sys_position,12,4
  20              		.comm	sys_probe_position,12,4
  21              		.comm	sys_probe_state,1,1
  22              		.comm	sys_rt_exec_state,1,1
  23              		.comm	sys_rt_exec_alarm,1,1
  24              		.comm	sys_rt_exec_motion_override,1,1
  25              		.comm	sys_rt_exec_accessory_override,1,1
  26              		.bss
  27              		.align	2
  28              	block_buffer:
  29 0000 00000000 		.space	2080
  29      00000000 
  29      00000000 
  29      00000000 
  29      00000000 
  30              	block_buffer_tail:
  31 0820 00       		.space	1
  32              	block_buffer_head:
  33 0821 00       		.space	1
  34              	next_buffer_head:
  35 0822 00       		.space	1
  36              	block_buffer_planned:
  37 0823 00       		.space	1
  38              		.align	2
  39              	pl:
  40 0824 00000000 		.space	28
  40      00000000 
  40      00000000 
  40      00000000 
  40      00000000 
  41              		.section	.text.plan_next_block_index,"ax",%progbits
  42              		.align	2
  43              		.global	plan_next_block_index
  44              		.thumb
  45              		.thumb_func
  46              		.type	plan_next_block_index, %function
  47              	plan_next_block_index:
  48              	.LFB64:
  49              		.file 1 "planner.c"
ARM GAS  C:\Users\barto\AppData\Local\Temp\ccxvLAbr.s 			page 2


   1:planner.c     **** /*
   2:planner.c     ****   planner.c - buffers movement commands and manages the acceleration profile plan
   3:planner.c     ****   Part of Grbl
   4:planner.c     **** 
   5:planner.c     ****   Copyright (c) 2011-2016 Sungeun K. Jeon for Gnea Research LLC
   6:planner.c     ****   Copyright (c) 2009-2011 Simen Svale Skogsrud
   7:planner.c     ****   Copyright (c) 2011 Jens Geisler
   8:planner.c     ****       Updated For PSOC BJD 2017
   9:planner.c     **** 
  10:planner.c     ****   Grbl is free software: you can redistribute it and/or modify
  11:planner.c     ****   it under the terms of the GNU General Public License as published by
  12:planner.c     ****   the Free Software Foundation, either version 3 of the License, or
  13:planner.c     ****   (at your option) any later version.
  14:planner.c     **** 
  15:planner.c     ****   Grbl is distributed in the hope that it will be useful,
  16:planner.c     ****   but WITHOUT ANY WARRANTY; without even the implied warranty of
  17:planner.c     ****   MERCHANTABILITY or FITNESS FOR A PARTICULAR PURPOSE.  See the
  18:planner.c     ****   GNU General Public License for more details.
  19:planner.c     **** 
  20:planner.c     ****   You should have received a copy of the GNU General Public License
  21:planner.c     ****   along with Grbl.  If not, see <http://www.gnu.org/licenses/>.
  22:planner.c     **** */
  23:planner.c     **** 
  24:planner.c     **** #include "grbl.h"
  25:planner.c     **** #include <stdlib.h> // PSoc Required for labs
  26:planner.c     **** 
  27:planner.c     **** 
  28:planner.c     **** static plan_block_t block_buffer[BLOCK_BUFFER_SIZE];  // A ring buffer for motion instructions
  29:planner.c     **** static uint8_t block_buffer_tail;     // Index of the block to process now
  30:planner.c     **** static uint8_t block_buffer_head;     // Index of the next block to be pushed
  31:planner.c     **** static uint8_t next_buffer_head;      // Index of the next buffer head
  32:planner.c     **** static uint8_t block_buffer_planned;  // Index of the optimally planned block
  33:planner.c     **** 
  34:planner.c     **** // Define planner variables
  35:planner.c     **** typedef struct {
  36:planner.c     ****   int32_t position[N_AXIS];          // The planner position of the tool in absolute steps. Kept se
  37:planner.c     ****                                      // from g-code position for movements requiring multiple line 
  38:planner.c     ****                                      // i.e. arcs, canned cycles, and backlash compensation.
  39:planner.c     ****   float previous_unit_vec[N_AXIS];   // Unit vector of previous path line segment
  40:planner.c     ****   float previous_nominal_speed;  // Nominal speed of previous path line segment
  41:planner.c     **** } planner_t;
  42:planner.c     **** static planner_t pl;
  43:planner.c     **** 
  44:planner.c     **** 
  45:planner.c     **** // Returns the index of the next block in the ring buffer. Also called by stepper segment buffer.
  46:planner.c     **** uint8_t plan_next_block_index(uint8_t block_index)
  47:planner.c     **** {
  50              		.loc 1 47 0
  51              		.cfi_startproc
  52              		@ args = 0, pretend = 0, frame = 8
  53              		@ frame_needed = 1, uses_anonymous_args = 0
  54              		@ link register save eliminated.
  55 0000 80B4     		push	{r7}
  56              		.cfi_def_cfa_offset 4
  57              		.cfi_offset 7, -4
  58 0002 83B0     		sub	sp, sp, #12
  59              		.cfi_def_cfa_offset 16
ARM GAS  C:\Users\barto\AppData\Local\Temp\ccxvLAbr.s 			page 3


  60 0004 00AF     		add	r7, sp, #0
  61              		.cfi_def_cfa_register 7
  62 0006 0346     		mov	r3, r0
  63 0008 FB71     		strb	r3, [r7, #7]
  48:planner.c     ****   block_index++;
  64              		.loc 1 48 0
  65 000a FB79     		ldrb	r3, [r7, #7]	@ zero_extendqisi2
  66 000c 0133     		adds	r3, r3, #1
  67 000e FB71     		strb	r3, [r7, #7]
  49:planner.c     ****   if (block_index == BLOCK_BUFFER_SIZE) { block_index = 0; }
  68              		.loc 1 49 0
  69 0010 FB79     		ldrb	r3, [r7, #7]	@ zero_extendqisi2
  70 0012 282B     		cmp	r3, #40
  71 0014 01D1     		bne	.L2
  72              		.loc 1 49 0 is_stmt 0 discriminator 1
  73 0016 0023     		movs	r3, #0
  74 0018 FB71     		strb	r3, [r7, #7]
  75              	.L2:
  50:planner.c     ****   return(block_index);
  76              		.loc 1 50 0 is_stmt 1
  77 001a FB79     		ldrb	r3, [r7, #7]	@ zero_extendqisi2
  51:planner.c     **** }
  78              		.loc 1 51 0
  79 001c 1846     		mov	r0, r3
  80 001e 0C37     		adds	r7, r7, #12
  81              		.cfi_def_cfa_offset 4
  82 0020 BD46     		mov	sp, r7
  83              		.cfi_def_cfa_register 13
  84              		@ sp needed
  85 0022 80BC     		pop	{r7}
  86              		.cfi_restore 7
  87              		.cfi_def_cfa_offset 0
  88 0024 7047     		bx	lr
  89              		.cfi_endproc
  90              	.LFE64:
  91              		.size	plan_next_block_index, .-plan_next_block_index
  92 0026 00BF     		.section	.text.plan_prev_block_index,"ax",%progbits
  93              		.align	2
  94              		.thumb
  95              		.thumb_func
  96              		.type	plan_prev_block_index, %function
  97              	plan_prev_block_index:
  98              	.LFB65:
  52:planner.c     **** 
  53:planner.c     **** 
  54:planner.c     **** // Returns the index of the previous block in the ring buffer
  55:planner.c     **** static uint8_t plan_prev_block_index(uint8_t block_index)
  56:planner.c     **** {
  99              		.loc 1 56 0
 100              		.cfi_startproc
 101              		@ args = 0, pretend = 0, frame = 8
 102              		@ frame_needed = 1, uses_anonymous_args = 0
 103              		@ link register save eliminated.
 104 0000 80B4     		push	{r7}
 105              		.cfi_def_cfa_offset 4
 106              		.cfi_offset 7, -4
 107 0002 83B0     		sub	sp, sp, #12
ARM GAS  C:\Users\barto\AppData\Local\Temp\ccxvLAbr.s 			page 4


 108              		.cfi_def_cfa_offset 16
 109 0004 00AF     		add	r7, sp, #0
 110              		.cfi_def_cfa_register 7
 111 0006 0346     		mov	r3, r0
 112 0008 FB71     		strb	r3, [r7, #7]
  57:planner.c     ****   if (block_index == 0) { block_index = BLOCK_BUFFER_SIZE; }
 113              		.loc 1 57 0
 114 000a FB79     		ldrb	r3, [r7, #7]	@ zero_extendqisi2
 115 000c 002B     		cmp	r3, #0
 116 000e 01D1     		bne	.L5
 117              		.loc 1 57 0 is_stmt 0 discriminator 1
 118 0010 2823     		movs	r3, #40
 119 0012 FB71     		strb	r3, [r7, #7]
 120              	.L5:
  58:planner.c     ****   block_index--;
 121              		.loc 1 58 0 is_stmt 1
 122 0014 FB79     		ldrb	r3, [r7, #7]	@ zero_extendqisi2
 123 0016 013B     		subs	r3, r3, #1
 124 0018 FB71     		strb	r3, [r7, #7]
  59:planner.c     ****   return(block_index);
 125              		.loc 1 59 0
 126 001a FB79     		ldrb	r3, [r7, #7]	@ zero_extendqisi2
  60:planner.c     **** }
 127              		.loc 1 60 0
 128 001c 1846     		mov	r0, r3
 129 001e 0C37     		adds	r7, r7, #12
 130              		.cfi_def_cfa_offset 4
 131 0020 BD46     		mov	sp, r7
 132              		.cfi_def_cfa_register 13
 133              		@ sp needed
 134 0022 80BC     		pop	{r7}
 135              		.cfi_restore 7
 136              		.cfi_def_cfa_offset 0
 137 0024 7047     		bx	lr
 138              		.cfi_endproc
 139              	.LFE65:
 140              		.size	plan_prev_block_index, .-plan_prev_block_index
 141              		.global	__aeabi_fadd
 142              		.global	__aeabi_fmul
 143              		.global	__aeabi_fcmplt
 144              		.global	__aeabi_fcmpeq
 145              		.global	__aeabi_fcmpgt
 146 0026 00BF     		.section	.text.planner_recalculate,"ax",%progbits
 147              		.align	2
 148              		.thumb
 149              		.thumb_func
 150              		.type	planner_recalculate, %function
 151              	planner_recalculate:
 152              	.LFB66:
  61:planner.c     **** 
  62:planner.c     **** 
  63:planner.c     **** /*                            PLANNER SPEED DEFINITION
  64:planner.c     ****                                      +--------+   <- current->nominal_speed
  65:planner.c     ****                                     /          \
  66:planner.c     ****          current->entry_speed ->   +            \
  67:planner.c     ****                                    |             + <- next->entry_speed (aka exit speed)
  68:planner.c     ****                                    +-------------+
ARM GAS  C:\Users\barto\AppData\Local\Temp\ccxvLAbr.s 			page 5


  69:planner.c     ****                                        time -->
  70:planner.c     **** 
  71:planner.c     ****   Recalculates the motion plan according to the following basic guidelines:
  72:planner.c     **** 
  73:planner.c     ****     1. Go over every feasible block sequentially in reverse order and calculate the junction speeds
  74:planner.c     ****         (i.e. current->entry_speed) such that:
  75:planner.c     ****       a. No junction speed exceeds the pre-computed maximum junction speed limit or nominal speeds 
  76:planner.c     ****          neighboring blocks.
  77:planner.c     ****       b. A block entry speed cannot exceed one reverse-computed from its exit speed (next->entry_sp
  78:planner.c     ****          with a maximum allowable deceleration over the block travel distance.
  79:planner.c     ****       c. The last (or newest appended) block is planned from a complete stop (an exit speed of zero
  80:planner.c     ****     2. Go over every block in chronological (forward) order and dial down junction speed values if
  81:planner.c     ****       a. The exit speed exceeds the one forward-computed from its entry speed with the maximum allo
  82:planner.c     ****          acceleration over the block travel distance.
  83:planner.c     **** 
  84:planner.c     ****   When these stages are complete, the planner will have maximized the velocity profiles throughout 
  85:planner.c     ****   of the planner blocks, where every block is operating at its maximum allowable acceleration limit
  86:planner.c     ****   other words, for all of the blocks in the planner, the plan is optimal and no further speed impro
  87:planner.c     ****   are possible. If a new block is added to the buffer, the plan is recomputed according to the said
  88:planner.c     ****   guidelines for a new optimal plan.
  89:planner.c     **** 
  90:planner.c     ****   To increase computational efficiency of these guidelines, a set of planner block pointers have be
  91:planner.c     ****   created to indicate stop-compute points for when the planner guidelines cannot logically make any
  92:planner.c     ****   changes or improvements to the plan when in normal operation and new blocks are streamed and adde
  93:planner.c     ****   planner buffer. For example, if a subset of sequential blocks in the planner have been planned an
  94:planner.c     ****   bracketed by junction velocities at their maximums (or by the first planner block as well), no ne
  95:planner.c     ****   added to the planner buffer will alter the velocity profiles within them. So we no longer have to
  96:planner.c     ****   them. Or, if a set of sequential blocks from the first block in the planner (or a optimal stop-co
  97:planner.c     ****   point) are all accelerating, they are all optimal and can not be altered by a new block added to 
  98:planner.c     ****   planner buffer, as this will only further increase the plan speed to chronological blocks until a
  99:planner.c     ****   junction velocity is reached. However, if the operational conditions of the plan changes from inf
 100:planner.c     ****   used feed holds or feedrate overrides, the stop-compute pointers will be reset and the entire pla
 101:planner.c     ****   recomputed as stated in the general guidelines.
 102:planner.c     **** 
 103:planner.c     ****   Planner buffer index mapping:
 104:planner.c     ****   - block_buffer_tail: Points to the beginning of the planner buffer. First to be executed or being
 105:planner.c     ****   - block_buffer_head: Points to the buffer block after the last block in the buffer. Used to indic
 106:planner.c     ****       the buffer is full or empty. As described for standard ring buffers, this block is always emp
 107:planner.c     ****   - next_buffer_head: Points to next planner buffer block after the buffer head block. When equal t
 108:planner.c     ****       buffer tail, this indicates the buffer is full.
 109:planner.c     ****   - block_buffer_planned: Points to the first buffer block after the last optimally planned block f
 110:planner.c     ****       streaming operating conditions. Use for planning optimizations by avoiding recomputing parts 
 111:planner.c     ****       planner buffer that don't change with the addition of a new block, as describe above. In addi
 112:planner.c     ****       this block can never be less than block_buffer_tail and will always be pushed forward and mai
 113:planner.c     ****       this requirement when encountered by the plan_discard_current_block() routine during a cycle.
 114:planner.c     **** 
 115:planner.c     ****   NOTE: Since the planner only computes on what's in the planner buffer, some motions with lots of 
 116:planner.c     ****   line segments, like G2/3 arcs or complex curves, may seem to move slow. This is because there sim
 117:planner.c     ****   enough combined distance traveled in the entire buffer to accelerate up to the nominal speed and 
 118:planner.c     ****   decelerate to a complete stop at the end of the buffer, as stated by the guidelines. If this happ
 119:planner.c     ****   becomes an annoyance, there are a few simple solutions: (1) Maximize the machine acceleration. Th
 120:planner.c     ****   will be able to compute higher velocity profiles within the same combined distance. (2) Maximize 
 121:planner.c     ****   motion(s) distance per block to a desired tolerance. The more combined distance the planner has t
 122:planner.c     ****   the faster it can go. (3) Maximize the planner buffer size. This also will increase the combined 
 123:planner.c     ****   for the planner to compute over. It also increases the number of computations the planner has to 
 124:planner.c     ****   to compute an optimal plan, so select carefully. The Arduino 328p memory is already maxed out, bu
 125:planner.c     ****   ARM versions should have enough memory and speed for look-ahead blocks numbering up to a hundred 
ARM GAS  C:\Users\barto\AppData\Local\Temp\ccxvLAbr.s 			page 6


 126:planner.c     **** 
 127:planner.c     **** */
 128:planner.c     **** static void planner_recalculate()
 129:planner.c     **** {
 153              		.loc 1 129 0
 154              		.cfi_startproc
 155              		@ args = 0, pretend = 0, frame = 16
 156              		@ frame_needed = 1, uses_anonymous_args = 0
 157 0000 90B5     		push	{r4, r7, lr}
 158              		.cfi_def_cfa_offset 12
 159              		.cfi_offset 4, -12
 160              		.cfi_offset 7, -8
 161              		.cfi_offset 14, -4
 162 0002 85B0     		sub	sp, sp, #20
 163              		.cfi_def_cfa_offset 32
 164 0004 00AF     		add	r7, sp, #0
 165              		.cfi_def_cfa_register 7
 130:planner.c     ****   // Initialize block index to the last block in the planner buffer.
 131:planner.c     ****   uint8_t block_index = plan_prev_block_index(block_buffer_head);
 166              		.loc 1 131 0
 167 0006 854B     		ldr	r3, .L38
 168 0008 1B78     		ldrb	r3, [r3]	@ zero_extendqisi2
 169 000a 1846     		mov	r0, r3
 170 000c FFF7FEFF 		bl	plan_prev_block_index
 171 0010 0346     		mov	r3, r0
 172 0012 FB73     		strb	r3, [r7, #15]
 132:planner.c     **** 
 133:planner.c     ****   // Bail. Can't do anything with one only one plan-able block.
 134:planner.c     ****   if (block_index == block_buffer_planned) { return; }
 173              		.loc 1 134 0
 174 0014 824B     		ldr	r3, .L38+4
 175 0016 1B78     		ldrb	r3, [r3]	@ zero_extendqisi2
 176 0018 FA7B     		ldrb	r2, [r7, #15]	@ zero_extendqisi2
 177 001a 9A42     		cmp	r2, r3
 178 001c 00F0FA80 		beq	.L37
 135:planner.c     **** 
 136:planner.c     ****   // Reverse Pass: Coarsely maximize all possible deceleration curves back-planning from the last
 137:planner.c     ****   // block in buffer. Cease planning when the last optimal planned or tail pointer is reached.
 138:planner.c     ****   // NOTE: Forward pass will later refine and correct the reverse pass to create an optimal plan.
 139:planner.c     ****   float entry_speed_sqr;
 140:planner.c     ****   plan_block_t *next;
 141:planner.c     ****   plan_block_t *current = &block_buffer[block_index];
 179              		.loc 1 141 0
 180 0020 FB7B     		ldrb	r3, [r7, #15]	@ zero_extendqisi2
 181 0022 3422     		movs	r2, #52
 182 0024 02FB03F3 		mul	r3, r2, r3
 183 0028 7E4A     		ldr	r2, .L38+8
 184 002a 1344     		add	r3, r3, r2
 185 002c 7B60     		str	r3, [r7, #4]
 142:planner.c     **** 
 143:planner.c     ****   // Calculate maximum entry speed for last block in buffer, where the exit speed is always zero.
 144:planner.c     ****   current->entry_speed_sqr = min( current->max_entry_speed_sqr, 2*current->acceleration*current->mi
 186              		.loc 1 144 0
 187 002e 7B68     		ldr	r3, [r7, #4]
 188 0030 9C69     		ldr	r4, [r3, #24]	@ float
 189 0032 7B68     		ldr	r3, [r7, #4]
 190 0034 DB69     		ldr	r3, [r3, #28]	@ float
ARM GAS  C:\Users\barto\AppData\Local\Temp\ccxvLAbr.s 			page 7


 191 0036 1946     		mov	r1, r3
 192 0038 1846     		mov	r0, r3
 193 003a FFF7FEFF 		bl	__aeabi_fadd
 194 003e 0346     		mov	r3, r0
 195 0040 1A46     		mov	r2, r3
 196 0042 7B68     		ldr	r3, [r7, #4]
 197 0044 1B6A     		ldr	r3, [r3, #32]	@ float
 198 0046 1946     		mov	r1, r3
 199 0048 1046     		mov	r0, r2
 200 004a FFF7FEFF 		bl	__aeabi_fmul
 201 004e 0346     		mov	r3, r0
 202 0050 1946     		mov	r1, r3
 203 0052 2046     		mov	r0, r4
 204 0054 FFF7FEFF 		bl	__aeabi_fcmplt
 205 0058 0346     		mov	r3, r0
 206 005a 002B     		cmp	r3, #0
 207 005c 02D0     		beq	.L35
 208              		.loc 1 144 0 is_stmt 0 discriminator 1
 209 005e 7B68     		ldr	r3, [r7, #4]
 210 0060 9B69     		ldr	r3, [r3, #24]	@ float
 211 0062 0EE0     		b	.L12
 212              	.L35:
 213              		.loc 1 144 0 discriminator 2
 214 0064 7B68     		ldr	r3, [r7, #4]
 215 0066 DB69     		ldr	r3, [r3, #28]	@ float
 216 0068 1946     		mov	r1, r3
 217 006a 1846     		mov	r0, r3
 218 006c FFF7FEFF 		bl	__aeabi_fadd
 219 0070 0346     		mov	r3, r0
 220 0072 1A46     		mov	r2, r3
 221 0074 7B68     		ldr	r3, [r7, #4]
 222 0076 1B6A     		ldr	r3, [r3, #32]	@ float
 223 0078 1946     		mov	r1, r3
 224 007a 1046     		mov	r0, r2
 225 007c FFF7FEFF 		bl	__aeabi_fmul
 226 0080 0346     		mov	r3, r0
 227              	.L12:
 228              		.loc 1 144 0 discriminator 4
 229 0082 7A68     		ldr	r2, [r7, #4]
 230 0084 5361     		str	r3, [r2, #20]	@ float
 145:planner.c     **** 
 146:planner.c     ****   block_index = plan_prev_block_index(block_index);
 231              		.loc 1 146 0 is_stmt 1 discriminator 4
 232 0086 FB7B     		ldrb	r3, [r7, #15]	@ zero_extendqisi2
 233 0088 1846     		mov	r0, r3
 234 008a FFF7FEFF 		bl	plan_prev_block_index
 235 008e 0346     		mov	r3, r0
 236 0090 FB73     		strb	r3, [r7, #15]
 147:planner.c     ****   if (block_index == block_buffer_planned) { // Only two plannable blocks in buffer. Reverse pass c
 237              		.loc 1 147 0 discriminator 4
 238 0092 634B     		ldr	r3, .L38+4
 239 0094 1B78     		ldrb	r3, [r3]	@ zero_extendqisi2
 240 0096 FA7B     		ldrb	r2, [r7, #15]	@ zero_extendqisi2
 241 0098 9A42     		cmp	r2, r3
 242 009a 51D1     		bne	.L16
 148:planner.c     ****     // Check if the first block is the tail. If so, notify stepper to update its current parameters
 149:planner.c     ****     if (block_index == block_buffer_tail) { st_update_plan_block_parameters(); }
ARM GAS  C:\Users\barto\AppData\Local\Temp\ccxvLAbr.s 			page 8


 243              		.loc 1 149 0
 244 009c 624B     		ldr	r3, .L38+12
 245 009e 1B78     		ldrb	r3, [r3]	@ zero_extendqisi2
 246 00a0 FA7B     		ldrb	r2, [r7, #15]	@ zero_extendqisi2
 247 00a2 9A42     		cmp	r2, r3
 248 00a4 51D1     		bne	.L15
 249              		.loc 1 149 0 is_stmt 0 discriminator 1
 250 00a6 FFF7FEFF 		bl	st_update_plan_block_parameters
 251 00aa 4EE0     		b	.L15
 252              	.L21:
 150:planner.c     ****   } else { // Three or more plan-able blocks
 151:planner.c     ****     while (block_index != block_buffer_planned) {
 152:planner.c     ****       next = current;
 253              		.loc 1 152 0 is_stmt 1
 254 00ac 7B68     		ldr	r3, [r7, #4]
 255 00ae BB60     		str	r3, [r7, #8]
 153:planner.c     ****       current = &block_buffer[block_index];
 256              		.loc 1 153 0
 257 00b0 FB7B     		ldrb	r3, [r7, #15]	@ zero_extendqisi2
 258 00b2 3422     		movs	r2, #52
 259 00b4 02FB03F3 		mul	r3, r2, r3
 260 00b8 5A4A     		ldr	r2, .L38+8
 261 00ba 1344     		add	r3, r3, r2
 262 00bc 7B60     		str	r3, [r7, #4]
 154:planner.c     ****       block_index = plan_prev_block_index(block_index);
 263              		.loc 1 154 0
 264 00be FB7B     		ldrb	r3, [r7, #15]	@ zero_extendqisi2
 265 00c0 1846     		mov	r0, r3
 266 00c2 FFF7FEFF 		bl	plan_prev_block_index
 267 00c6 0346     		mov	r3, r0
 268 00c8 FB73     		strb	r3, [r7, #15]
 155:planner.c     **** 
 156:planner.c     ****       // Check if next block is the tail block(=planned block). If so, update current stepper param
 157:planner.c     ****       if (block_index == block_buffer_tail) { st_update_plan_block_parameters(); }
 269              		.loc 1 157 0
 270 00ca 574B     		ldr	r3, .L38+12
 271 00cc 1B78     		ldrb	r3, [r3]	@ zero_extendqisi2
 272 00ce FA7B     		ldrb	r2, [r7, #15]	@ zero_extendqisi2
 273 00d0 9A42     		cmp	r2, r3
 274 00d2 01D1     		bne	.L17
 275              		.loc 1 157 0 is_stmt 0 discriminator 1
 276 00d4 FFF7FEFF 		bl	st_update_plan_block_parameters
 277              	.L17:
 158:planner.c     **** 
 159:planner.c     ****       // Compute maximum entry speed decelerating over the current block from its exit speed.
 160:planner.c     ****       if (current->entry_speed_sqr != current->max_entry_speed_sqr) {
 278              		.loc 1 160 0 is_stmt 1
 279 00d8 7B68     		ldr	r3, [r7, #4]
 280 00da 5A69     		ldr	r2, [r3, #20]	@ float
 281 00dc 7B68     		ldr	r3, [r7, #4]
 282 00de 9B69     		ldr	r3, [r3, #24]	@ float
 283 00e0 1946     		mov	r1, r3
 284 00e2 1046     		mov	r0, r2
 285 00e4 FFF7FEFF 		bl	__aeabi_fcmpeq
 286 00e8 0346     		mov	r3, r0
 287 00ea 002B     		cmp	r3, #0
 288 00ec 00D0     		beq	.L30
ARM GAS  C:\Users\barto\AppData\Local\Temp\ccxvLAbr.s 			page 9


 289 00ee 27E0     		b	.L16
 290              	.L30:
 161:planner.c     ****         entry_speed_sqr = next->entry_speed_sqr + 2*current->acceleration*current->millimeters;
 291              		.loc 1 161 0
 292 00f0 BB68     		ldr	r3, [r7, #8]
 293 00f2 5C69     		ldr	r4, [r3, #20]	@ float
 294 00f4 7B68     		ldr	r3, [r7, #4]
 295 00f6 DB69     		ldr	r3, [r3, #28]	@ float
 296 00f8 1946     		mov	r1, r3
 297 00fa 1846     		mov	r0, r3
 298 00fc FFF7FEFF 		bl	__aeabi_fadd
 299 0100 0346     		mov	r3, r0
 300 0102 1A46     		mov	r2, r3
 301 0104 7B68     		ldr	r3, [r7, #4]
 302 0106 1B6A     		ldr	r3, [r3, #32]	@ float
 303 0108 1946     		mov	r1, r3
 304 010a 1046     		mov	r0, r2
 305 010c FFF7FEFF 		bl	__aeabi_fmul
 306 0110 0346     		mov	r3, r0
 307 0112 1946     		mov	r1, r3
 308 0114 2046     		mov	r0, r4
 309 0116 FFF7FEFF 		bl	__aeabi_fadd
 310 011a 0346     		mov	r3, r0
 311 011c 3B60     		str	r3, [r7]	@ float
 162:planner.c     ****         if (entry_speed_sqr < current->max_entry_speed_sqr) {
 312              		.loc 1 162 0
 313 011e 7B68     		ldr	r3, [r7, #4]
 314 0120 9B69     		ldr	r3, [r3, #24]	@ float
 315 0122 3968     		ldr	r1, [r7]	@ float
 316 0124 1846     		mov	r0, r3
 317 0126 FFF7FEFF 		bl	__aeabi_fcmpgt
 318 012a 0346     		mov	r3, r0
 319 012c 002B     		cmp	r3, #0
 320 012e 03D0     		beq	.L36
 163:planner.c     ****           current->entry_speed_sqr = entry_speed_sqr;
 321              		.loc 1 163 0
 322 0130 7B68     		ldr	r3, [r7, #4]
 323 0132 3A68     		ldr	r2, [r7]	@ float
 324 0134 5A61     		str	r2, [r3, #20]	@ float
 325 0136 03E0     		b	.L16
 326              	.L36:
 164:planner.c     ****         } else {
 165:planner.c     ****           current->entry_speed_sqr = current->max_entry_speed_sqr;
 327              		.loc 1 165 0
 328 0138 7B68     		ldr	r3, [r7, #4]
 329 013a 9A69     		ldr	r2, [r3, #24]	@ float
 330 013c 7B68     		ldr	r3, [r7, #4]
 331 013e 5A61     		str	r2, [r3, #20]	@ float
 332              	.L16:
 151:planner.c     ****       next = current;
 333              		.loc 1 151 0
 334 0140 374B     		ldr	r3, .L38+4
 335 0142 1B78     		ldrb	r3, [r3]	@ zero_extendqisi2
 336 0144 FA7B     		ldrb	r2, [r7, #15]	@ zero_extendqisi2
 337 0146 9A42     		cmp	r2, r3
 338 0148 B0D1     		bne	.L21
 339              	.L15:
ARM GAS  C:\Users\barto\AppData\Local\Temp\ccxvLAbr.s 			page 10


 166:planner.c     ****         }
 167:planner.c     ****       }
 168:planner.c     ****     }
 169:planner.c     ****   }
 170:planner.c     **** 
 171:planner.c     ****   // Forward Pass: Forward plan the acceleration curve from the planned pointer onward.
 172:planner.c     ****   // Also scans for optimal plan breakpoints and appropriately updates the planned pointer.
 173:planner.c     ****   next = &block_buffer[block_buffer_planned]; // Begin at buffer planned pointer
 340              		.loc 1 173 0
 341 014a 354B     		ldr	r3, .L38+4
 342 014c 1B78     		ldrb	r3, [r3]	@ zero_extendqisi2
 343 014e 1A46     		mov	r2, r3
 344 0150 3423     		movs	r3, #52
 345 0152 03FB02F3 		mul	r3, r3, r2
 346 0156 334A     		ldr	r2, .L38+8
 347 0158 1344     		add	r3, r3, r2
 348 015a BB60     		str	r3, [r7, #8]
 174:planner.c     ****   block_index = plan_next_block_index(block_buffer_planned);
 349              		.loc 1 174 0
 350 015c 304B     		ldr	r3, .L38+4
 351 015e 1B78     		ldrb	r3, [r3]	@ zero_extendqisi2
 352 0160 1846     		mov	r0, r3
 353 0162 FFF7FEFF 		bl	plan_next_block_index
 354 0166 0346     		mov	r3, r0
 355 0168 FB73     		strb	r3, [r7, #15]
 175:planner.c     ****   while (block_index != block_buffer_head) {
 356              		.loc 1 175 0
 357 016a 4DE0     		b	.L22
 358              	.L28:
 176:planner.c     ****     current = next;
 359              		.loc 1 176 0
 360 016c BB68     		ldr	r3, [r7, #8]
 361 016e 7B60     		str	r3, [r7, #4]
 177:planner.c     ****     next = &block_buffer[block_index];
 362              		.loc 1 177 0
 363 0170 FB7B     		ldrb	r3, [r7, #15]	@ zero_extendqisi2
 364 0172 3422     		movs	r2, #52
 365 0174 02FB03F3 		mul	r3, r2, r3
 366 0178 2A4A     		ldr	r2, .L38+8
 367 017a 1344     		add	r3, r3, r2
 368 017c BB60     		str	r3, [r7, #8]
 178:planner.c     **** 
 179:planner.c     ****     // Any acceleration detected in the forward pass automatically moves the optimal planned
 180:planner.c     ****     // pointer forward, since everything before this is all optimal. In other words, nothing
 181:planner.c     ****     // can improve the plan from the buffer tail to the planned pointer by logic.
 182:planner.c     ****     if (current->entry_speed_sqr < next->entry_speed_sqr) {
 369              		.loc 1 182 0
 370 017e 7B68     		ldr	r3, [r7, #4]
 371 0180 5A69     		ldr	r2, [r3, #20]	@ float
 372 0182 BB68     		ldr	r3, [r7, #8]
 373 0184 5B69     		ldr	r3, [r3, #20]	@ float
 374 0186 1946     		mov	r1, r3
 375 0188 1046     		mov	r0, r2
 376 018a FFF7FEFF 		bl	__aeabi_fcmplt
 377 018e 0346     		mov	r3, r0
 378 0190 002B     		cmp	r3, #0
 379 0192 25D0     		beq	.L23
ARM GAS  C:\Users\barto\AppData\Local\Temp\ccxvLAbr.s 			page 11


 183:planner.c     ****       entry_speed_sqr = current->entry_speed_sqr + 2*current->acceleration*current->millimeters;
 380              		.loc 1 183 0
 381 0194 7B68     		ldr	r3, [r7, #4]
 382 0196 5C69     		ldr	r4, [r3, #20]	@ float
 383 0198 7B68     		ldr	r3, [r7, #4]
 384 019a DB69     		ldr	r3, [r3, #28]	@ float
 385 019c 1946     		mov	r1, r3
 386 019e 1846     		mov	r0, r3
 387 01a0 FFF7FEFF 		bl	__aeabi_fadd
 388 01a4 0346     		mov	r3, r0
 389 01a6 1A46     		mov	r2, r3
 390 01a8 7B68     		ldr	r3, [r7, #4]
 391 01aa 1B6A     		ldr	r3, [r3, #32]	@ float
 392 01ac 1946     		mov	r1, r3
 393 01ae 1046     		mov	r0, r2
 394 01b0 FFF7FEFF 		bl	__aeabi_fmul
 395 01b4 0346     		mov	r3, r0
 396 01b6 1946     		mov	r1, r3
 397 01b8 2046     		mov	r0, r4
 398 01ba FFF7FEFF 		bl	__aeabi_fadd
 399 01be 0346     		mov	r3, r0
 400 01c0 3B60     		str	r3, [r7]	@ float
 184:planner.c     ****       // If true, current block is full-acceleration and we can move the planned pointer forward.
 185:planner.c     ****       if (entry_speed_sqr < next->entry_speed_sqr) {
 401              		.loc 1 185 0
 402 01c2 BB68     		ldr	r3, [r7, #8]
 403 01c4 5B69     		ldr	r3, [r3, #20]	@ float
 404 01c6 3968     		ldr	r1, [r7]	@ float
 405 01c8 1846     		mov	r0, r3
 406 01ca FFF7FEFF 		bl	__aeabi_fcmpgt
 407 01ce 0346     		mov	r3, r0
 408 01d0 002B     		cmp	r3, #0
 409 01d2 05D0     		beq	.L23
 186:planner.c     ****         next->entry_speed_sqr = entry_speed_sqr; // Always <= max_entry_speed_sqr. Backward pass se
 410              		.loc 1 186 0
 411 01d4 BB68     		ldr	r3, [r7, #8]
 412 01d6 3A68     		ldr	r2, [r7]	@ float
 413 01d8 5A61     		str	r2, [r3, #20]	@ float
 187:planner.c     ****         block_buffer_planned = block_index; // Set optimal plan pointer.
 414              		.loc 1 187 0
 415 01da 114A     		ldr	r2, .L38+4
 416 01dc FB7B     		ldrb	r3, [r7, #15]
 417 01de 1370     		strb	r3, [r2]
 418              	.L23:
 188:planner.c     ****       }
 189:planner.c     ****     }
 190:planner.c     **** 
 191:planner.c     ****     // Any block set at its maximum entry speed also creates an optimal plan up to this
 192:planner.c     ****     // point in the buffer. When the plan is bracketed by either the beginning of the
 193:planner.c     ****     // buffer and a maximum entry speed or two maximum entry speeds, every block in between
 194:planner.c     ****     // cannot logically be further improved. Hence, we don't have to recompute them anymore.
 195:planner.c     ****     if (next->entry_speed_sqr == next->max_entry_speed_sqr) { block_buffer_planned = block_index; }
 419              		.loc 1 195 0
 420 01e0 BB68     		ldr	r3, [r7, #8]
 421 01e2 5A69     		ldr	r2, [r3, #20]	@ float
 422 01e4 BB68     		ldr	r3, [r7, #8]
 423 01e6 9B69     		ldr	r3, [r3, #24]	@ float
ARM GAS  C:\Users\barto\AppData\Local\Temp\ccxvLAbr.s 			page 12


 424 01e8 1946     		mov	r1, r3
 425 01ea 1046     		mov	r0, r2
 426 01ec FFF7FEFF 		bl	__aeabi_fcmpeq
 427 01f0 0346     		mov	r3, r0
 428 01f2 002B     		cmp	r3, #0
 429 01f4 02D0     		beq	.L26
 430              		.loc 1 195 0 is_stmt 0 discriminator 1
 431 01f6 0A4A     		ldr	r2, .L38+4
 432 01f8 FB7B     		ldrb	r3, [r7, #15]
 433 01fa 1370     		strb	r3, [r2]
 434              	.L26:
 196:planner.c     ****     block_index = plan_next_block_index( block_index );
 435              		.loc 1 196 0 is_stmt 1
 436 01fc FB7B     		ldrb	r3, [r7, #15]	@ zero_extendqisi2
 437 01fe 1846     		mov	r0, r3
 438 0200 FFF7FEFF 		bl	plan_next_block_index
 439 0204 0346     		mov	r3, r0
 440 0206 FB73     		strb	r3, [r7, #15]
 441              	.L22:
 175:planner.c     ****     current = next;
 442              		.loc 1 175 0
 443 0208 044B     		ldr	r3, .L38
 444 020a 1B78     		ldrb	r3, [r3]	@ zero_extendqisi2
 445 020c FA7B     		ldrb	r2, [r7, #15]	@ zero_extendqisi2
 446 020e 9A42     		cmp	r2, r3
 447 0210 ACD1     		bne	.L28
 448 0212 00E0     		b	.L7
 449              	.L37:
 134:planner.c     **** 
 450              		.loc 1 134 0
 451 0214 00BF     		nop
 452              	.L7:
 197:planner.c     ****   }
 198:planner.c     **** }
 453              		.loc 1 198 0
 454 0216 1437     		adds	r7, r7, #20
 455              		.cfi_def_cfa_offset 12
 456 0218 BD46     		mov	sp, r7
 457              		.cfi_def_cfa_register 13
 458              		@ sp needed
 459 021a 90BD     		pop	{r4, r7, pc}
 460              	.L39:
 461              		.align	2
 462              	.L38:
 463 021c 21080000 		.word	block_buffer_head
 464 0220 23080000 		.word	block_buffer_planned
 465 0224 00000000 		.word	block_buffer
 466 0228 20080000 		.word	block_buffer_tail
 467              		.cfi_endproc
 468              	.LFE66:
 469              		.size	planner_recalculate, .-planner_recalculate
 470              		.section	.text.plan_reset,"ax",%progbits
 471              		.align	2
 472              		.global	plan_reset
 473              		.thumb
 474              		.thumb_func
 475              		.type	plan_reset, %function
ARM GAS  C:\Users\barto\AppData\Local\Temp\ccxvLAbr.s 			page 13


 476              	plan_reset:
 477              	.LFB67:
 199:planner.c     **** 
 200:planner.c     **** 
 201:planner.c     **** void plan_reset()
 202:planner.c     **** {
 478              		.loc 1 202 0
 479              		.cfi_startproc
 480              		@ args = 0, pretend = 0, frame = 0
 481              		@ frame_needed = 1, uses_anonymous_args = 0
 482 0000 80B5     		push	{r7, lr}
 483              		.cfi_def_cfa_offset 8
 484              		.cfi_offset 7, -8
 485              		.cfi_offset 14, -4
 486 0002 00AF     		add	r7, sp, #0
 487              		.cfi_def_cfa_register 7
 203:planner.c     ****   memset(&pl, 0, sizeof(planner_t)); // Clear planner struct
 488              		.loc 1 203 0
 489 0004 1C22     		movs	r2, #28
 490 0006 0021     		movs	r1, #0
 491 0008 0348     		ldr	r0, .L41
 492 000a FFF7FEFF 		bl	memset
 204:planner.c     ****   plan_reset_buffer();
 493              		.loc 1 204 0
 494 000e FFF7FEFF 		bl	plan_reset_buffer
 205:planner.c     **** }
 495              		.loc 1 205 0
 496 0012 00BF     		nop
 497 0014 80BD     		pop	{r7, pc}
 498              	.L42:
 499 0016 00BF     		.align	2
 500              	.L41:
 501 0018 24080000 		.word	pl
 502              		.cfi_endproc
 503              	.LFE67:
 504              		.size	plan_reset, .-plan_reset
 505              		.section	.text.plan_reset_buffer,"ax",%progbits
 506              		.align	2
 507              		.global	plan_reset_buffer
 508              		.thumb
 509              		.thumb_func
 510              		.type	plan_reset_buffer, %function
 511              	plan_reset_buffer:
 512              	.LFB68:
 206:planner.c     **** 
 207:planner.c     **** 
 208:planner.c     **** void plan_reset_buffer()
 209:planner.c     **** {
 513              		.loc 1 209 0
 514              		.cfi_startproc
 515              		@ args = 0, pretend = 0, frame = 0
 516              		@ frame_needed = 1, uses_anonymous_args = 0
 517              		@ link register save eliminated.
 518 0000 80B4     		push	{r7}
 519              		.cfi_def_cfa_offset 4
 520              		.cfi_offset 7, -4
 521 0002 00AF     		add	r7, sp, #0
ARM GAS  C:\Users\barto\AppData\Local\Temp\ccxvLAbr.s 			page 14


 522              		.cfi_def_cfa_register 7
 210:planner.c     ****   block_buffer_tail = 0;
 523              		.loc 1 210 0
 524 0004 074B     		ldr	r3, .L44
 525 0006 0022     		movs	r2, #0
 526 0008 1A70     		strb	r2, [r3]
 211:planner.c     ****   block_buffer_head = 0; // Empty = tail
 527              		.loc 1 211 0
 528 000a 074B     		ldr	r3, .L44+4
 529 000c 0022     		movs	r2, #0
 530 000e 1A70     		strb	r2, [r3]
 212:planner.c     ****   next_buffer_head = 1; // plan_next_block_index(block_buffer_head)
 531              		.loc 1 212 0
 532 0010 064B     		ldr	r3, .L44+8
 533 0012 0122     		movs	r2, #1
 534 0014 1A70     		strb	r2, [r3]
 213:planner.c     ****   block_buffer_planned = 0; // = block_buffer_tail;
 535              		.loc 1 213 0
 536 0016 064B     		ldr	r3, .L44+12
 537 0018 0022     		movs	r2, #0
 538 001a 1A70     		strb	r2, [r3]
 214:planner.c     **** }
 539              		.loc 1 214 0
 540 001c 00BF     		nop
 541 001e BD46     		mov	sp, r7
 542              		.cfi_def_cfa_register 13
 543              		@ sp needed
 544 0020 80BC     		pop	{r7}
 545              		.cfi_restore 7
 546              		.cfi_def_cfa_offset 0
 547 0022 7047     		bx	lr
 548              	.L45:
 549              		.align	2
 550              	.L44:
 551 0024 20080000 		.word	block_buffer_tail
 552 0028 21080000 		.word	block_buffer_head
 553 002c 22080000 		.word	next_buffer_head
 554 0030 23080000 		.word	block_buffer_planned
 555              		.cfi_endproc
 556              	.LFE68:
 557              		.size	plan_reset_buffer, .-plan_reset_buffer
 558              		.section	.text.plan_discard_current_block,"ax",%progbits
 559              		.align	2
 560              		.global	plan_discard_current_block
 561              		.thumb
 562              		.thumb_func
 563              		.type	plan_discard_current_block, %function
 564              	plan_discard_current_block:
 565              	.LFB69:
 215:planner.c     **** 
 216:planner.c     **** 
 217:planner.c     **** void plan_discard_current_block()
 218:planner.c     **** {
 566              		.loc 1 218 0
 567              		.cfi_startproc
 568              		@ args = 0, pretend = 0, frame = 8
 569              		@ frame_needed = 1, uses_anonymous_args = 0
ARM GAS  C:\Users\barto\AppData\Local\Temp\ccxvLAbr.s 			page 15


 570 0000 80B5     		push	{r7, lr}
 571              		.cfi_def_cfa_offset 8
 572              		.cfi_offset 7, -8
 573              		.cfi_offset 14, -4
 574 0002 82B0     		sub	sp, sp, #8
 575              		.cfi_def_cfa_offset 16
 576 0004 00AF     		add	r7, sp, #0
 577              		.cfi_def_cfa_register 7
 219:planner.c     ****   if (block_buffer_head != block_buffer_tail) { // Discard non-empty buffer.
 578              		.loc 1 219 0
 579 0006 0E4B     		ldr	r3, .L50
 580 0008 1A78     		ldrb	r2, [r3]	@ zero_extendqisi2
 581 000a 0E4B     		ldr	r3, .L50+4
 582 000c 1B78     		ldrb	r3, [r3]	@ zero_extendqisi2
 583 000e 9A42     		cmp	r2, r3
 584 0010 12D0     		beq	.L49
 585              	.LBB2:
 220:planner.c     ****     uint8_t block_index = plan_next_block_index( block_buffer_tail );
 586              		.loc 1 220 0
 587 0012 0C4B     		ldr	r3, .L50+4
 588 0014 1B78     		ldrb	r3, [r3]	@ zero_extendqisi2
 589 0016 1846     		mov	r0, r3
 590 0018 FFF7FEFF 		bl	plan_next_block_index
 591 001c 0346     		mov	r3, r0
 592 001e FB71     		strb	r3, [r7, #7]
 221:planner.c     ****     // Push block_buffer_planned pointer, if encountered.
 222:planner.c     ****     if (block_buffer_tail == block_buffer_planned) { block_buffer_planned = block_index; }
 593              		.loc 1 222 0
 594 0020 084B     		ldr	r3, .L50+4
 595 0022 1A78     		ldrb	r2, [r3]	@ zero_extendqisi2
 596 0024 084B     		ldr	r3, .L50+8
 597 0026 1B78     		ldrb	r3, [r3]	@ zero_extendqisi2
 598 0028 9A42     		cmp	r2, r3
 599 002a 02D1     		bne	.L48
 600              		.loc 1 222 0 is_stmt 0 discriminator 1
 601 002c 064A     		ldr	r2, .L50+8
 602 002e FB79     		ldrb	r3, [r7, #7]
 603 0030 1370     		strb	r3, [r2]
 604              	.L48:
 223:planner.c     ****     block_buffer_tail = block_index;
 605              		.loc 1 223 0 is_stmt 1
 606 0032 044A     		ldr	r2, .L50+4
 607 0034 FB79     		ldrb	r3, [r7, #7]
 608 0036 1370     		strb	r3, [r2]
 609              	.L49:
 610              	.LBE2:
 224:planner.c     ****   }
 225:planner.c     **** }
 611              		.loc 1 225 0
 612 0038 00BF     		nop
 613 003a 0837     		adds	r7, r7, #8
 614              		.cfi_def_cfa_offset 8
 615 003c BD46     		mov	sp, r7
 616              		.cfi_def_cfa_register 13
 617              		@ sp needed
 618 003e 80BD     		pop	{r7, pc}
 619              	.L51:
ARM GAS  C:\Users\barto\AppData\Local\Temp\ccxvLAbr.s 			page 16


 620              		.align	2
 621              	.L50:
 622 0040 21080000 		.word	block_buffer_head
 623 0044 20080000 		.word	block_buffer_tail
 624 0048 23080000 		.word	block_buffer_planned
 625              		.cfi_endproc
 626              	.LFE69:
 627              		.size	plan_discard_current_block, .-plan_discard_current_block
 628              		.section	.text.plan_get_system_motion_block,"ax",%progbits
 629              		.align	2
 630              		.global	plan_get_system_motion_block
 631              		.thumb
 632              		.thumb_func
 633              		.type	plan_get_system_motion_block, %function
 634              	plan_get_system_motion_block:
 635              	.LFB70:
 226:planner.c     **** 
 227:planner.c     **** 
 228:planner.c     **** // Returns address of planner buffer block used by system motions. Called by segment generator.
 229:planner.c     **** plan_block_t *plan_get_system_motion_block()
 230:planner.c     **** {
 636              		.loc 1 230 0
 637              		.cfi_startproc
 638              		@ args = 0, pretend = 0, frame = 0
 639              		@ frame_needed = 1, uses_anonymous_args = 0
 640              		@ link register save eliminated.
 641 0000 80B4     		push	{r7}
 642              		.cfi_def_cfa_offset 4
 643              		.cfi_offset 7, -4
 644 0002 00AF     		add	r7, sp, #0
 645              		.cfi_def_cfa_register 7
 231:planner.c     ****   return(&block_buffer[block_buffer_head]);
 646              		.loc 1 231 0
 647 0004 054B     		ldr	r3, .L54
 648 0006 1B78     		ldrb	r3, [r3]	@ zero_extendqisi2
 649 0008 1A46     		mov	r2, r3
 650 000a 3423     		movs	r3, #52
 651 000c 03FB02F3 		mul	r3, r3, r2
 652 0010 034A     		ldr	r2, .L54+4
 653 0012 1344     		add	r3, r3, r2
 232:planner.c     **** }
 654              		.loc 1 232 0
 655 0014 1846     		mov	r0, r3
 656 0016 BD46     		mov	sp, r7
 657              		.cfi_def_cfa_register 13
 658              		@ sp needed
 659 0018 80BC     		pop	{r7}
 660              		.cfi_restore 7
 661              		.cfi_def_cfa_offset 0
 662 001a 7047     		bx	lr
 663              	.L55:
 664              		.align	2
 665              	.L54:
 666 001c 21080000 		.word	block_buffer_head
 667 0020 00000000 		.word	block_buffer
 668              		.cfi_endproc
 669              	.LFE70:
ARM GAS  C:\Users\barto\AppData\Local\Temp\ccxvLAbr.s 			page 17


 670              		.size	plan_get_system_motion_block, .-plan_get_system_motion_block
 671              		.section	.text.plan_get_current_block,"ax",%progbits
 672              		.align	2
 673              		.global	plan_get_current_block
 674              		.thumb
 675              		.thumb_func
 676              		.type	plan_get_current_block, %function
 677              	plan_get_current_block:
 678              	.LFB71:
 233:planner.c     **** 
 234:planner.c     **** 
 235:planner.c     **** // Returns address of first planner block, if available. Called by various main program functions.
 236:planner.c     **** plan_block_t *plan_get_current_block()
 237:planner.c     **** {
 679              		.loc 1 237 0
 680              		.cfi_startproc
 681              		@ args = 0, pretend = 0, frame = 0
 682              		@ frame_needed = 1, uses_anonymous_args = 0
 683              		@ link register save eliminated.
 684 0000 80B4     		push	{r7}
 685              		.cfi_def_cfa_offset 4
 686              		.cfi_offset 7, -4
 687 0002 00AF     		add	r7, sp, #0
 688              		.cfi_def_cfa_register 7
 238:planner.c     ****   if (block_buffer_head == block_buffer_tail) { return(NULL); } // Buffer empty
 689              		.loc 1 238 0
 690 0004 094B     		ldr	r3, .L59
 691 0006 1A78     		ldrb	r2, [r3]	@ zero_extendqisi2
 692 0008 094B     		ldr	r3, .L59+4
 693 000a 1B78     		ldrb	r3, [r3]	@ zero_extendqisi2
 694 000c 9A42     		cmp	r2, r3
 695 000e 01D1     		bne	.L57
 696              		.loc 1 238 0 is_stmt 0 discriminator 1
 697 0010 0023     		movs	r3, #0
 698 0012 07E0     		b	.L58
 699              	.L57:
 239:planner.c     ****   return(&block_buffer[block_buffer_tail]);
 700              		.loc 1 239 0 is_stmt 1
 701 0014 064B     		ldr	r3, .L59+4
 702 0016 1B78     		ldrb	r3, [r3]	@ zero_extendqisi2
 703 0018 1A46     		mov	r2, r3
 704 001a 3423     		movs	r3, #52
 705 001c 03FB02F3 		mul	r3, r3, r2
 706 0020 044A     		ldr	r2, .L59+8
 707 0022 1344     		add	r3, r3, r2
 708              	.L58:
 240:planner.c     **** }
 709              		.loc 1 240 0
 710 0024 1846     		mov	r0, r3
 711 0026 BD46     		mov	sp, r7
 712              		.cfi_def_cfa_register 13
 713              		@ sp needed
 714 0028 80BC     		pop	{r7}
 715              		.cfi_restore 7
 716              		.cfi_def_cfa_offset 0
 717 002a 7047     		bx	lr
 718              	.L60:
ARM GAS  C:\Users\barto\AppData\Local\Temp\ccxvLAbr.s 			page 18


 719              		.align	2
 720              	.L59:
 721 002c 21080000 		.word	block_buffer_head
 722 0030 20080000 		.word	block_buffer_tail
 723 0034 00000000 		.word	block_buffer
 724              		.cfi_endproc
 725              	.LFE71:
 726              		.size	plan_get_current_block, .-plan_get_current_block
 727              		.section	.text.plan_get_exec_block_exit_speed_sqr,"ax",%progbits
 728              		.align	2
 729              		.global	plan_get_exec_block_exit_speed_sqr
 730              		.thumb
 731              		.thumb_func
 732              		.type	plan_get_exec_block_exit_speed_sqr, %function
 733              	plan_get_exec_block_exit_speed_sqr:
 734              	.LFB72:
 241:planner.c     **** 
 242:planner.c     **** 
 243:planner.c     **** float plan_get_exec_block_exit_speed_sqr()
 244:planner.c     **** {
 735              		.loc 1 244 0
 736              		.cfi_startproc
 737              		@ args = 0, pretend = 0, frame = 8
 738              		@ frame_needed = 1, uses_anonymous_args = 0
 739 0000 80B5     		push	{r7, lr}
 740              		.cfi_def_cfa_offset 8
 741              		.cfi_offset 7, -8
 742              		.cfi_offset 14, -4
 743 0002 82B0     		sub	sp, sp, #8
 744              		.cfi_def_cfa_offset 16
 745 0004 00AF     		add	r7, sp, #0
 746              		.cfi_def_cfa_register 7
 245:planner.c     ****   uint8_t block_index = plan_next_block_index(block_buffer_tail);
 747              		.loc 1 245 0
 748 0006 0D4B     		ldr	r3, .L64
 749 0008 1B78     		ldrb	r3, [r3]	@ zero_extendqisi2
 750 000a 1846     		mov	r0, r3
 751 000c FFF7FEFF 		bl	plan_next_block_index
 752 0010 0346     		mov	r3, r0
 753 0012 FB71     		strb	r3, [r7, #7]
 246:planner.c     ****   if (block_index == block_buffer_head) { return( 0.0 ); }
 754              		.loc 1 246 0
 755 0014 0A4B     		ldr	r3, .L64+4
 756 0016 1B78     		ldrb	r3, [r3]	@ zero_extendqisi2
 757 0018 FA79     		ldrb	r2, [r7, #7]	@ zero_extendqisi2
 758 001a 9A42     		cmp	r2, r3
 759 001c 02D1     		bne	.L62
 760              		.loc 1 246 0 is_stmt 0 discriminator 1
 761 001e 4FF00003 		mov	r3, #0
 762 0022 07E0     		b	.L63
 763              	.L62:
 247:planner.c     ****   return( block_buffer[block_index].entry_speed_sqr );
 764              		.loc 1 247 0 is_stmt 1
 765 0024 FB79     		ldrb	r3, [r7, #7]	@ zero_extendqisi2
 766 0026 074A     		ldr	r2, .L64+8
 767 0028 3421     		movs	r1, #52
 768 002a 01FB03F3 		mul	r3, r1, r3
ARM GAS  C:\Users\barto\AppData\Local\Temp\ccxvLAbr.s 			page 19


 769 002e 1344     		add	r3, r3, r2
 770 0030 1433     		adds	r3, r3, #20
 771 0032 1B68     		ldr	r3, [r3]	@ float
 772              	.L63:
 248:planner.c     **** }
 773              		.loc 1 248 0
 774 0034 1846     		mov	r0, r3
 775 0036 0837     		adds	r7, r7, #8
 776              		.cfi_def_cfa_offset 8
 777 0038 BD46     		mov	sp, r7
 778              		.cfi_def_cfa_register 13
 779              		@ sp needed
 780 003a 80BD     		pop	{r7, pc}
 781              	.L65:
 782              		.align	2
 783              	.L64:
 784 003c 20080000 		.word	block_buffer_tail
 785 0040 21080000 		.word	block_buffer_head
 786 0044 00000000 		.word	block_buffer
 787              		.cfi_endproc
 788              	.LFE72:
 789              		.size	plan_get_exec_block_exit_speed_sqr, .-plan_get_exec_block_exit_speed_sqr
 790              		.section	.text.plan_check_full_buffer,"ax",%progbits
 791              		.align	2
 792              		.global	plan_check_full_buffer
 793              		.thumb
 794              		.thumb_func
 795              		.type	plan_check_full_buffer, %function
 796              	plan_check_full_buffer:
 797              	.LFB73:
 249:planner.c     **** 
 250:planner.c     **** 
 251:planner.c     **** // Returns the availability status of the block ring buffer. True, if full.
 252:planner.c     **** uint8_t plan_check_full_buffer()
 253:planner.c     **** {
 798              		.loc 1 253 0
 799              		.cfi_startproc
 800              		@ args = 0, pretend = 0, frame = 0
 801              		@ frame_needed = 1, uses_anonymous_args = 0
 802              		@ link register save eliminated.
 803 0000 80B4     		push	{r7}
 804              		.cfi_def_cfa_offset 4
 805              		.cfi_offset 7, -4
 806 0002 00AF     		add	r7, sp, #0
 807              		.cfi_def_cfa_register 7
 254:planner.c     ****   if (block_buffer_tail == next_buffer_head) { return(true); }
 808              		.loc 1 254 0
 809 0004 064B     		ldr	r3, .L69
 810 0006 1A78     		ldrb	r2, [r3]	@ zero_extendqisi2
 811 0008 064B     		ldr	r3, .L69+4
 812 000a 1B78     		ldrb	r3, [r3]	@ zero_extendqisi2
 813 000c 9A42     		cmp	r2, r3
 814 000e 01D1     		bne	.L67
 815              		.loc 1 254 0 is_stmt 0 discriminator 1
 816 0010 0123     		movs	r3, #1
 817 0012 00E0     		b	.L68
 818              	.L67:
ARM GAS  C:\Users\barto\AppData\Local\Temp\ccxvLAbr.s 			page 20


 255:planner.c     ****   return(false);
 819              		.loc 1 255 0 is_stmt 1
 820 0014 0023     		movs	r3, #0
 821              	.L68:
 256:planner.c     **** }
 822              		.loc 1 256 0
 823 0016 1846     		mov	r0, r3
 824 0018 BD46     		mov	sp, r7
 825              		.cfi_def_cfa_register 13
 826              		@ sp needed
 827 001a 80BC     		pop	{r7}
 828              		.cfi_restore 7
 829              		.cfi_def_cfa_offset 0
 830 001c 7047     		bx	lr
 831              	.L70:
 832 001e 00BF     		.align	2
 833              	.L69:
 834 0020 20080000 		.word	block_buffer_tail
 835 0024 22080000 		.word	next_buffer_head
 836              		.cfi_endproc
 837              	.LFE73:
 838              		.size	plan_check_full_buffer, .-plan_check_full_buffer
 839              		.global	__aeabi_f2d
 840              		.global	__aeabi_i2d
 841              		.global	__aeabi_dmul
 842              		.global	__aeabi_d2f
 843              		.section	.text.plan_compute_profile_nominal_speed,"ax",%progbits
 844              		.align	2
 845              		.global	plan_compute_profile_nominal_speed
 846              		.thumb
 847              		.thumb_func
 848              		.type	plan_compute_profile_nominal_speed, %function
 849              	plan_compute_profile_nominal_speed:
 850              	.LFB74:
 257:planner.c     **** 
 258:planner.c     **** 
 259:planner.c     **** // Computes and returns block nominal speed based on running condition and override values.
 260:planner.c     **** // NOTE: All system motion commands, such as homing/parking, are not subject to overrides.
 261:planner.c     **** float plan_compute_profile_nominal_speed(plan_block_t *block)
 262:planner.c     **** {
 851              		.loc 1 262 0
 852              		.cfi_startproc
 853              		@ args = 0, pretend = 0, frame = 16
 854              		@ frame_needed = 1, uses_anonymous_args = 0
 855 0000 B0B5     		push	{r4, r5, r7, lr}
 856              		.cfi_def_cfa_offset 16
 857              		.cfi_offset 4, -16
 858              		.cfi_offset 5, -12
 859              		.cfi_offset 7, -8
 860              		.cfi_offset 14, -4
 861 0002 84B0     		sub	sp, sp, #16
 862              		.cfi_def_cfa_offset 32
 863 0004 00AF     		add	r7, sp, #0
 864              		.cfi_def_cfa_register 7
 865 0006 7860     		str	r0, [r7, #4]
 263:planner.c     ****   float nominal_speed = block->programmed_rate;
 866              		.loc 1 263 0
ARM GAS  C:\Users\barto\AppData\Local\Temp\ccxvLAbr.s 			page 21


 867 0008 7B68     		ldr	r3, [r7, #4]
 868 000a DB6A     		ldr	r3, [r3, #44]	@ float
 869 000c FB60     		str	r3, [r7, #12]	@ float
 264:planner.c     ****   if (block->condition & PL_COND_FLAG_RAPID_MOTION) { nominal_speed *= (0.01*sys.r_override); }
 870              		.loc 1 264 0
 871 000e 7B68     		ldr	r3, [r7, #4]
 872 0010 5B7C     		ldrb	r3, [r3, #17]	@ zero_extendqisi2
 873 0012 03F00103 		and	r3, r3, #1
 874 0016 002B     		cmp	r3, #0
 875 0018 1DD0     		beq	.L72
 876              		.loc 1 264 0 is_stmt 0 discriminator 1
 877 001a F868     		ldr	r0, [r7, #12]	@ float
 878 001c FFF7FEFF 		bl	__aeabi_f2d
 879 0020 0446     		mov	r4, r0
 880 0022 0D46     		mov	r5, r1
 881 0024 2E4B     		ldr	r3, .L82+8
 882 0026 1B7A     		ldrb	r3, [r3, #8]	@ zero_extendqisi2
 883 0028 1846     		mov	r0, r3
 884 002a FFF7FEFF 		bl	__aeabi_i2d
 885 002e 2AA3     		adr	r3, .L82
 886 0030 D3E90023 		ldrd	r2, [r3]
 887 0034 FFF7FEFF 		bl	__aeabi_dmul
 888 0038 0246     		mov	r2, r0
 889 003a 0B46     		mov	r3, r1
 890 003c 2046     		mov	r0, r4
 891 003e 2946     		mov	r1, r5
 892 0040 FFF7FEFF 		bl	__aeabi_dmul
 893 0044 0346     		mov	r3, r0
 894 0046 0C46     		mov	r4, r1
 895 0048 1846     		mov	r0, r3
 896 004a 2146     		mov	r1, r4
 897 004c FFF7FEFF 		bl	__aeabi_d2f
 898 0050 0346     		mov	r3, r0
 899 0052 FB60     		str	r3, [r7, #12]	@ float
 900 0054 2EE0     		b	.L73
 901              	.L72:
 265:planner.c     ****   else {
 266:planner.c     ****     if (!(block->condition & PL_COND_FLAG_NO_FEED_OVERRIDE)) { nominal_speed *= (0.01*sys.f_overrid
 902              		.loc 1 266 0 is_stmt 1
 903 0056 7B68     		ldr	r3, [r7, #4]
 904 0058 5B7C     		ldrb	r3, [r3, #17]	@ zero_extendqisi2
 905 005a 03F00403 		and	r3, r3, #4
 906 005e 002B     		cmp	r3, #0
 907 0060 1CD1     		bne	.L74
 908              		.loc 1 266 0 is_stmt 0 discriminator 1
 909 0062 F868     		ldr	r0, [r7, #12]	@ float
 910 0064 FFF7FEFF 		bl	__aeabi_f2d
 911 0068 0446     		mov	r4, r0
 912 006a 0D46     		mov	r5, r1
 913 006c 1C4B     		ldr	r3, .L82+8
 914 006e DB79     		ldrb	r3, [r3, #7]	@ zero_extendqisi2
 915 0070 1846     		mov	r0, r3
 916 0072 FFF7FEFF 		bl	__aeabi_i2d
 917 0076 18A3     		adr	r3, .L82
 918 0078 D3E90023 		ldrd	r2, [r3]
 919 007c FFF7FEFF 		bl	__aeabi_dmul
 920 0080 0246     		mov	r2, r0
ARM GAS  C:\Users\barto\AppData\Local\Temp\ccxvLAbr.s 			page 22


 921 0082 0B46     		mov	r3, r1
 922 0084 2046     		mov	r0, r4
 923 0086 2946     		mov	r1, r5
 924 0088 FFF7FEFF 		bl	__aeabi_dmul
 925 008c 0346     		mov	r3, r0
 926 008e 0C46     		mov	r4, r1
 927 0090 1846     		mov	r0, r3
 928 0092 2146     		mov	r1, r4
 929 0094 FFF7FEFF 		bl	__aeabi_d2f
 930 0098 0346     		mov	r3, r0
 931 009a FB60     		str	r3, [r7, #12]	@ float
 932              	.L74:
 267:planner.c     ****     if (nominal_speed > block->rapid_rate) { nominal_speed = block->rapid_rate; }
 933              		.loc 1 267 0 is_stmt 1
 934 009c 7B68     		ldr	r3, [r7, #4]
 935 009e 9B6A     		ldr	r3, [r3, #40]	@ float
 936 00a0 F968     		ldr	r1, [r7, #12]	@ float
 937 00a2 1846     		mov	r0, r3
 938 00a4 FFF7FEFF 		bl	__aeabi_fcmplt
 939 00a8 0346     		mov	r3, r0
 940 00aa 002B     		cmp	r3, #0
 941 00ac 02D0     		beq	.L73
 942              		.loc 1 267 0 is_stmt 0 discriminator 1
 943 00ae 7B68     		ldr	r3, [r7, #4]
 944 00b0 9B6A     		ldr	r3, [r3, #40]	@ float
 945 00b2 FB60     		str	r3, [r7, #12]	@ float
 946              	.L73:
 268:planner.c     ****   }
 269:planner.c     ****   if (nominal_speed > MINIMUM_FEED_RATE) { return(nominal_speed); }
 947              		.loc 1 269 0 is_stmt 1
 948 00b4 4FF07E51 		mov	r1, #1065353216
 949 00b8 F868     		ldr	r0, [r7, #12]	@ float
 950 00ba FFF7FEFF 		bl	__aeabi_fcmpgt
 951 00be 0346     		mov	r3, r0
 952 00c0 002B     		cmp	r3, #0
 953 00c2 01D0     		beq	.L81
 954              		.loc 1 269 0 is_stmt 0 discriminator 1
 955 00c4 FB68     		ldr	r3, [r7, #12]	@ float
 956 00c6 01E0     		b	.L78
 957              	.L81:
 270:planner.c     ****   return(MINIMUM_FEED_RATE);
 958              		.loc 1 270 0 is_stmt 1
 959 00c8 4FF07E53 		mov	r3, #1065353216
 960              	.L78:
 271:planner.c     **** }
 961              		.loc 1 271 0
 962 00cc 1846     		mov	r0, r3
 963 00ce 1037     		adds	r7, r7, #16
 964              		.cfi_def_cfa_offset 16
 965 00d0 BD46     		mov	sp, r7
 966              		.cfi_def_cfa_register 13
 967              		@ sp needed
 968 00d2 B0BD     		pop	{r4, r5, r7, pc}
 969              	.L83:
 970 00d4 AFF30080 		.align	3
 971              	.L82:
 972 00d8 7B14AE47 		.word	1202590843
ARM GAS  C:\Users\barto\AppData\Local\Temp\ccxvLAbr.s 			page 23


 973 00dc E17A843F 		.word	1065646817
 974 00e0 00000000 		.word	sys
 975              		.cfi_endproc
 976              	.LFE74:
 977              		.size	plan_compute_profile_nominal_speed, .-plan_compute_profile_nominal_speed
 978              		.section	.text.plan_compute_profile_parameters,"ax",%progbits
 979              		.align	2
 980              		.thumb
 981              		.thumb_func
 982              		.type	plan_compute_profile_parameters, %function
 983              	plan_compute_profile_parameters:
 984              	.LFB75:
 272:planner.c     **** 
 273:planner.c     **** 
 274:planner.c     **** // Computes and updates the max entry speed (sqr) of the block, based on the minimum of the junctio
 275:planner.c     **** // previous and current nominal speeds and max junction speed.
 276:planner.c     **** static void plan_compute_profile_parameters(plan_block_t *block, float nominal_speed, float prev_no
 277:planner.c     **** {
 985              		.loc 1 277 0
 986              		.cfi_startproc
 987              		@ args = 0, pretend = 0, frame = 16
 988              		@ frame_needed = 1, uses_anonymous_args = 0
 989 0000 80B5     		push	{r7, lr}
 990              		.cfi_def_cfa_offset 8
 991              		.cfi_offset 7, -8
 992              		.cfi_offset 14, -4
 993 0002 84B0     		sub	sp, sp, #16
 994              		.cfi_def_cfa_offset 24
 995 0004 00AF     		add	r7, sp, #0
 996              		.cfi_def_cfa_register 7
 997 0006 F860     		str	r0, [r7, #12]
 998 0008 B960     		str	r1, [r7, #8]	@ float
 999 000a 7A60     		str	r2, [r7, #4]	@ float
 278:planner.c     ****   // Compute the junction maximum entry based on the minimum of the junction speed and neighboring 
 279:planner.c     ****   if (nominal_speed > prev_nominal_speed) { block->max_entry_speed_sqr = prev_nominal_speed*prev_no
 1000              		.loc 1 279 0
 1001 000c 7968     		ldr	r1, [r7, #4]	@ float
 1002 000e B868     		ldr	r0, [r7, #8]	@ float
 1003 0010 FFF7FEFF 		bl	__aeabi_fcmpgt
 1004 0014 0346     		mov	r3, r0
 1005 0016 002B     		cmp	r3, #0
 1006 0018 08D0     		beq	.L92
 1007              		.loc 1 279 0 is_stmt 0 discriminator 1
 1008 001a 7968     		ldr	r1, [r7, #4]	@ float
 1009 001c 7868     		ldr	r0, [r7, #4]	@ float
 1010 001e FFF7FEFF 		bl	__aeabi_fmul
 1011 0022 0346     		mov	r3, r0
 1012 0024 1A46     		mov	r2, r3
 1013 0026 FB68     		ldr	r3, [r7, #12]
 1014 0028 9A61     		str	r2, [r3, #24]	@ float
 1015 002a 07E0     		b	.L87
 1016              	.L92:
 280:planner.c     ****   else { block->max_entry_speed_sqr = nominal_speed*nominal_speed; }
 1017              		.loc 1 280 0 is_stmt 1
 1018 002c B968     		ldr	r1, [r7, #8]	@ float
 1019 002e B868     		ldr	r0, [r7, #8]	@ float
 1020 0030 FFF7FEFF 		bl	__aeabi_fmul
ARM GAS  C:\Users\barto\AppData\Local\Temp\ccxvLAbr.s 			page 24


 1021 0034 0346     		mov	r3, r0
 1022 0036 1A46     		mov	r2, r3
 1023 0038 FB68     		ldr	r3, [r7, #12]
 1024 003a 9A61     		str	r2, [r3, #24]	@ float
 1025              	.L87:
 281:planner.c     ****   if (block->max_entry_speed_sqr > block->max_junction_speed_sqr) { block->max_entry_speed_sqr = bl
 1026              		.loc 1 281 0
 1027 003c FB68     		ldr	r3, [r7, #12]
 1028 003e 9A69     		ldr	r2, [r3, #24]	@ float
 1029 0040 FB68     		ldr	r3, [r7, #12]
 1030 0042 5B6A     		ldr	r3, [r3, #36]	@ float
 1031 0044 1946     		mov	r1, r3
 1032 0046 1046     		mov	r0, r2
 1033 0048 FFF7FEFF 		bl	__aeabi_fcmpgt
 1034 004c 0346     		mov	r3, r0
 1035 004e 002B     		cmp	r3, #0
 1036 0050 00D1     		bne	.L91
 282:planner.c     **** }
 1037              		.loc 1 282 0
 1038 0052 03E0     		b	.L93
 1039              	.L91:
 281:planner.c     ****   if (block->max_entry_speed_sqr > block->max_junction_speed_sqr) { block->max_entry_speed_sqr = bl
 1040              		.loc 1 281 0 discriminator 1
 1041 0054 FB68     		ldr	r3, [r7, #12]
 1042 0056 5A6A     		ldr	r2, [r3, #36]	@ float
 1043 0058 FB68     		ldr	r3, [r7, #12]
 1044 005a 9A61     		str	r2, [r3, #24]	@ float
 1045              	.L93:
 1046              		.loc 1 282 0
 1047 005c 00BF     		nop
 1048 005e 1037     		adds	r7, r7, #16
 1049              		.cfi_def_cfa_offset 8
 1050 0060 BD46     		mov	sp, r7
 1051              		.cfi_def_cfa_register 13
 1052              		@ sp needed
 1053 0062 80BD     		pop	{r7, pc}
 1054              		.cfi_endproc
 1055              	.LFE75:
 1056              		.size	plan_compute_profile_parameters, .-plan_compute_profile_parameters
 1057              		.section	.text.plan_update_velocity_profile_parameters,"ax",%progbits
 1058              		.align	2
 1059              		.global	plan_update_velocity_profile_parameters
 1060              		.thumb
 1061              		.thumb_func
 1062              		.type	plan_update_velocity_profile_parameters, %function
 1063              	plan_update_velocity_profile_parameters:
 1064              	.LFB76:
 283:planner.c     **** 
 284:planner.c     **** 
 285:planner.c     **** // Re-calculates buffered motions profile parameters upon a motion-based override change.
 286:planner.c     **** void plan_update_velocity_profile_parameters()
 287:planner.c     **** {
 1065              		.loc 1 287 0
 1066              		.cfi_startproc
 1067              		@ args = 0, pretend = 0, frame = 16
 1068              		@ frame_needed = 1, uses_anonymous_args = 0
 1069 0000 80B5     		push	{r7, lr}
ARM GAS  C:\Users\barto\AppData\Local\Temp\ccxvLAbr.s 			page 25


 1070              		.cfi_def_cfa_offset 8
 1071              		.cfi_offset 7, -8
 1072              		.cfi_offset 14, -4
 1073 0002 84B0     		sub	sp, sp, #16
 1074              		.cfi_def_cfa_offset 24
 1075 0004 00AF     		add	r7, sp, #0
 1076              		.cfi_def_cfa_register 7
 288:planner.c     ****   uint8_t block_index = block_buffer_tail;
 1077              		.loc 1 288 0
 1078 0006 154B     		ldr	r3, .L97
 1079 0008 1B78     		ldrb	r3, [r3]
 1080 000a FB73     		strb	r3, [r7, #15]
 289:planner.c     ****   plan_block_t *block;
 290:planner.c     ****   float nominal_speed;
 291:planner.c     ****   float prev_nominal_speed = SOME_LARGE_VALUE; // Set high for first block nominal speed calculatio
 1081              		.loc 1 291 0
 1082 000c 144B     		ldr	r3, .L97+4
 1083 000e BB60     		str	r3, [r7, #8]	@ float
 292:planner.c     ****   while (block_index != block_buffer_head) {
 1084              		.loc 1 292 0
 1085 0010 17E0     		b	.L95
 1086              	.L96:
 293:planner.c     ****     block = &block_buffer[block_index];
 1087              		.loc 1 293 0
 1088 0012 FB7B     		ldrb	r3, [r7, #15]	@ zero_extendqisi2
 1089 0014 3422     		movs	r2, #52
 1090 0016 02FB03F3 		mul	r3, r2, r3
 1091 001a 124A     		ldr	r2, .L97+8
 1092 001c 1344     		add	r3, r3, r2
 1093 001e 7B60     		str	r3, [r7, #4]
 294:planner.c     ****     nominal_speed = plan_compute_profile_nominal_speed(block);
 1094              		.loc 1 294 0
 1095 0020 7868     		ldr	r0, [r7, #4]
 1096 0022 FFF7FEFF 		bl	plan_compute_profile_nominal_speed
 1097 0026 3860     		str	r0, [r7]	@ float
 295:planner.c     ****     plan_compute_profile_parameters(block, nominal_speed, prev_nominal_speed);
 1098              		.loc 1 295 0
 1099 0028 BA68     		ldr	r2, [r7, #8]	@ float
 1100 002a 3968     		ldr	r1, [r7]	@ float
 1101 002c 7868     		ldr	r0, [r7, #4]
 1102 002e FFF7FEFF 		bl	plan_compute_profile_parameters
 296:planner.c     ****     prev_nominal_speed = nominal_speed;
 1103              		.loc 1 296 0
 1104 0032 3B68     		ldr	r3, [r7]	@ float
 1105 0034 BB60     		str	r3, [r7, #8]	@ float
 297:planner.c     ****     block_index = plan_next_block_index(block_index);
 1106              		.loc 1 297 0
 1107 0036 FB7B     		ldrb	r3, [r7, #15]	@ zero_extendqisi2
 1108 0038 1846     		mov	r0, r3
 1109 003a FFF7FEFF 		bl	plan_next_block_index
 1110 003e 0346     		mov	r3, r0
 1111 0040 FB73     		strb	r3, [r7, #15]
 1112              	.L95:
 292:planner.c     ****     block = &block_buffer[block_index];
 1113              		.loc 1 292 0
 1114 0042 094B     		ldr	r3, .L97+12
 1115 0044 1B78     		ldrb	r3, [r3]	@ zero_extendqisi2
ARM GAS  C:\Users\barto\AppData\Local\Temp\ccxvLAbr.s 			page 26


 1116 0046 FA7B     		ldrb	r2, [r7, #15]	@ zero_extendqisi2
 1117 0048 9A42     		cmp	r2, r3
 1118 004a E2D1     		bne	.L96
 298:planner.c     ****   }
 299:planner.c     ****   pl.previous_nominal_speed = prev_nominal_speed; // Update prev nominal speed for next incoming bl
 1119              		.loc 1 299 0
 1120 004c 074A     		ldr	r2, .L97+16
 1121 004e BB68     		ldr	r3, [r7, #8]	@ float
 1122 0050 9361     		str	r3, [r2, #24]	@ float
 300:planner.c     **** }
 1123              		.loc 1 300 0
 1124 0052 00BF     		nop
 1125 0054 1037     		adds	r7, r7, #16
 1126              		.cfi_def_cfa_offset 8
 1127 0056 BD46     		mov	sp, r7
 1128              		.cfi_def_cfa_register 13
 1129              		@ sp needed
 1130 0058 80BD     		pop	{r7, pc}
 1131              	.L98:
 1132 005a 00BF     		.align	2
 1133              	.L97:
 1134 005c 20080000 		.word	block_buffer_tail
 1135 0060 9976967E 		.word	2123789977
 1136 0064 00000000 		.word	block_buffer
 1137 0068 21080000 		.word	block_buffer_head
 1138 006c 24080000 		.word	pl
 1139              		.cfi_endproc
 1140              	.LFE76:
 1141              		.size	plan_update_velocity_profile_parameters, .-plan_update_velocity_profile_parameters
 1142              		.global	__aeabi_i2f
 1143              		.global	__aeabi_fdiv
 1144              		.global	__aeabi_fsub
 1145              		.global	__aeabi_dcmpgt
 1146              		.global	__aeabi_dcmplt
 1147              		.global	__aeabi_dsub
 1148              		.global	__aeabi_ddiv
 1149              		.section	.text.plan_buffer_line,"ax",%progbits
 1150              		.align	2
 1151              		.global	plan_buffer_line
 1152              		.thumb
 1153              		.thumb_func
 1154              		.type	plan_buffer_line, %function
 1155              	plan_buffer_line:
 1156              	.LFB77:
 301:planner.c     **** 
 302:planner.c     **** 
 303:planner.c     **** /* Add a new linear movement to the buffer. target[N_AXIS] is the signed, absolute target position
 304:planner.c     ****    in millimeters. Feed rate specifies the speed of the motion. If feed rate is inverted, the feed
 305:planner.c     ****    rate is taken to mean "frequency" and would complete the operation in 1/feed_rate minutes.
 306:planner.c     ****    All position data passed to the planner must be in terms of machine position to keep the planner
 307:planner.c     ****    independent of any coordinate system changes and offsets, which are handled by the g-code parser
 308:planner.c     ****    NOTE: Assumes buffer is available. Buffer checks are handled at a higher level by motion_control
 309:planner.c     ****    In other words, the buffer head is never equal to the buffer tail.  Also the feed rate input val
 310:planner.c     ****    is used in three ways: as a normal feed rate if invert_feed_rate is false, as inverse time if
 311:planner.c     ****    invert_feed_rate is true, or as seek/rapids rate if the feed_rate value is negative (and
 312:planner.c     ****    invert_feed_rate always false).
 313:planner.c     ****    The system motion condition tells the planner to plan a motion in the always unused block buffer
ARM GAS  C:\Users\barto\AppData\Local\Temp\ccxvLAbr.s 			page 27


 314:planner.c     ****    head. It avoids changing the planner state and preserves the buffer to ensure subsequent gcode
 315:planner.c     ****    motions are still planned correctly, while the stepper module only points to the block buffer he
 316:planner.c     ****    to execute the special system motion. */
 317:planner.c     **** uint8_t plan_buffer_line(float *target, plan_line_data_t *pl_data)
 318:planner.c     **** {
 1157              		.loc 1 318 0
 1158              		.cfi_startproc
 1159              		@ args = 0, pretend = 0, frame = 88
 1160              		@ frame_needed = 1, uses_anonymous_args = 0
 1161 0000 B0B5     		push	{r4, r5, r7, lr}
 1162              		.cfi_def_cfa_offset 16
 1163              		.cfi_offset 4, -16
 1164              		.cfi_offset 5, -12
 1165              		.cfi_offset 7, -8
 1166              		.cfi_offset 14, -4
 1167 0002 96B0     		sub	sp, sp, #88
 1168              		.cfi_def_cfa_offset 104
 1169 0004 00AF     		add	r7, sp, #0
 1170              		.cfi_def_cfa_register 7
 1171 0006 7860     		str	r0, [r7, #4]
 1172 0008 3960     		str	r1, [r7]
 319:planner.c     ****   // Prepare and initialize new block. Copy relevant pl_data for block execution.
 320:planner.c     ****   plan_block_t *block = &block_buffer[block_buffer_head];
 1173              		.loc 1 320 0
 1174 000a B44B     		ldr	r3, .L136
 1175 000c 1B78     		ldrb	r3, [r3]	@ zero_extendqisi2
 1176 000e 1A46     		mov	r2, r3
 1177 0010 3423     		movs	r3, #52
 1178 0012 03FB02F3 		mul	r3, r3, r2
 1179 0016 B24A     		ldr	r2, .L136+4
 1180 0018 1344     		add	r3, r3, r2
 1181 001a BB64     		str	r3, [r7, #72]
 321:planner.c     ****   memset(block,0,sizeof(plan_block_t)); // Zero all block values.
 1182              		.loc 1 321 0
 1183 001c 3422     		movs	r2, #52
 1184 001e 0021     		movs	r1, #0
 1185 0020 B86C     		ldr	r0, [r7, #72]
 1186 0022 FFF7FEFF 		bl	memset
 322:planner.c     ****   block->condition = pl_data->condition;
 1187              		.loc 1 322 0
 1188 0026 3B68     		ldr	r3, [r7]
 1189 0028 1A7A     		ldrb	r2, [r3, #8]	@ zero_extendqisi2
 1190 002a BB6C     		ldr	r3, [r7, #72]
 1191 002c 5A74     		strb	r2, [r3, #17]
 323:planner.c     ****   #ifdef VARIABLE_SPINDLE
 324:planner.c     ****     block->spindle_speed = pl_data->spindle_speed;
 1192              		.loc 1 324 0
 1193 002e 3B68     		ldr	r3, [r7]
 1194 0030 5A68     		ldr	r2, [r3, #4]	@ float
 1195 0032 BB6C     		ldr	r3, [r7, #72]
 1196 0034 1A63     		str	r2, [r3, #48]	@ float
 325:planner.c     ****   #endif
 326:planner.c     ****   #ifdef USE_LINE_NUMBERS
 327:planner.c     ****     block->line_number = pl_data->line_number;
 328:planner.c     ****   #endif
 329:planner.c     **** 
 330:planner.c     ****   // Compute and store initial move distance data.
ARM GAS  C:\Users\barto\AppData\Local\Temp\ccxvLAbr.s 			page 28


 331:planner.c     ****   int32_t target_steps[N_AXIS], position_steps[N_AXIS];
 332:planner.c     ****   float unit_vec[N_AXIS], delta_mm;
 333:planner.c     ****   uint8_t idx;
 334:planner.c     **** 
 335:planner.c     ****   // Copy position data based on type of motion being planned.
 336:planner.c     ****   if (block->condition & PL_COND_FLAG_SYSTEM_MOTION) { 
 1197              		.loc 1 336 0
 1198 0036 BB6C     		ldr	r3, [r7, #72]
 1199 0038 5B7C     		ldrb	r3, [r3, #17]	@ zero_extendqisi2
 1200 003a 03F00203 		and	r3, r3, #2
 1201 003e 002B     		cmp	r3, #0
 1202 0040 0DD0     		beq	.L100
 337:planner.c     ****     #ifdef COREXY
 338:planner.c     ****       position_steps[X_AXIS] = system_convert_corexy_to_x_axis_steps(sys_position);
 1203              		.loc 1 338 0
 1204 0042 A848     		ldr	r0, .L136+8
 1205 0044 FFF7FEFF 		bl	system_convert_corexy_to_x_axis_steps
 1206 0048 0346     		mov	r3, r0
 1207 004a 7B62     		str	r3, [r7, #36]
 339:planner.c     ****       position_steps[Y_AXIS] = system_convert_corexy_to_y_axis_steps(sys_position);
 1208              		.loc 1 339 0
 1209 004c A548     		ldr	r0, .L136+8
 1210 004e FFF7FEFF 		bl	system_convert_corexy_to_y_axis_steps
 1211 0052 0346     		mov	r3, r0
 1212 0054 BB62     		str	r3, [r7, #40]
 340:planner.c     ****       position_steps[Z_AXIS] = sys_position[Z_AXIS];
 1213              		.loc 1 340 0
 1214 0056 A34B     		ldr	r3, .L136+8
 1215 0058 9B68     		ldr	r3, [r3, #8]
 1216 005a FB62     		str	r3, [r7, #44]
 1217 005c 05E0     		b	.L101
 1218              	.L100:
 341:planner.c     ****     #else
 342:planner.c     ****       memcpy(position_steps, sys_position, sizeof(sys_position)); 
 343:planner.c     ****     #endif
 344:planner.c     ****   } else { memcpy(position_steps, pl.position, sizeof(pl.position)); }
 1219              		.loc 1 344 0
 1220 005e A24A     		ldr	r2, .L136+12
 1221 0060 07F12403 		add	r3, r7, #36
 1222 0064 07CA     		ldmia	r2, {r0, r1, r2}
 1223 0066 83E80700 		stmia	r3, {r0, r1, r2}
 1224              	.L101:
 345:planner.c     **** 
 346:planner.c     ****   #ifdef COREXY
 347:planner.c     ****     target_steps[A_MOTOR] = lround(target[A_MOTOR]*settings.steps_per_mm[A_MOTOR]);
 1225              		.loc 1 347 0
 1226 006a 7B68     		ldr	r3, [r7, #4]
 1227 006c 1A68     		ldr	r2, [r3]	@ float
 1228 006e 9F4B     		ldr	r3, .L136+16
 1229 0070 1B68     		ldr	r3, [r3]	@ float
 1230 0072 1946     		mov	r1, r3
 1231 0074 1046     		mov	r0, r2
 1232 0076 FFF7FEFF 		bl	__aeabi_fmul
 1233 007a 0346     		mov	r3, r0
 1234 007c 1846     		mov	r0, r3
 1235 007e FFF7FEFF 		bl	__aeabi_f2d
 1236 0082 0346     		mov	r3, r0
ARM GAS  C:\Users\barto\AppData\Local\Temp\ccxvLAbr.s 			page 29


 1237 0084 0C46     		mov	r4, r1
 1238 0086 1846     		mov	r0, r3
 1239 0088 2146     		mov	r1, r4
 1240 008a FFF7FEFF 		bl	lround
 1241 008e 0346     		mov	r3, r0
 1242 0090 3B63     		str	r3, [r7, #48]
 348:planner.c     ****     target_steps[B_MOTOR] = lround(target[B_MOTOR]*settings.steps_per_mm[B_MOTOR]);
 1243              		.loc 1 348 0
 1244 0092 7B68     		ldr	r3, [r7, #4]
 1245 0094 0433     		adds	r3, r3, #4
 1246 0096 1A68     		ldr	r2, [r3]	@ float
 1247 0098 944B     		ldr	r3, .L136+16
 1248 009a 5B68     		ldr	r3, [r3, #4]	@ float
 1249 009c 1946     		mov	r1, r3
 1250 009e 1046     		mov	r0, r2
 1251 00a0 FFF7FEFF 		bl	__aeabi_fmul
 1252 00a4 0346     		mov	r3, r0
 1253 00a6 1846     		mov	r0, r3
 1254 00a8 FFF7FEFF 		bl	__aeabi_f2d
 1255 00ac 0346     		mov	r3, r0
 1256 00ae 0C46     		mov	r4, r1
 1257 00b0 1846     		mov	r0, r3
 1258 00b2 2146     		mov	r1, r4
 1259 00b4 FFF7FEFF 		bl	lround
 1260 00b8 0346     		mov	r3, r0
 1261 00ba 7B63     		str	r3, [r7, #52]
 349:planner.c     ****     block->steps[A_MOTOR] = labs((target_steps[X_AXIS]-position_steps[X_AXIS]) + (target_steps[Y_AX
 1262              		.loc 1 349 0
 1263 00bc 3A6B     		ldr	r2, [r7, #48]
 1264 00be 7B6A     		ldr	r3, [r7, #36]
 1265 00c0 D21A     		subs	r2, r2, r3
 1266 00c2 796B     		ldr	r1, [r7, #52]
 1267 00c4 BB6A     		ldr	r3, [r7, #40]
 1268 00c6 CB1A     		subs	r3, r1, r3
 1269 00c8 1344     		add	r3, r3, r2
 1270 00ca 002B     		cmp	r3, #0
 1271 00cc B8BF     		it	lt
 1272 00ce 5B42     		rsblt	r3, r3, #0
 1273 00d0 1A46     		mov	r2, r3
 1274 00d2 BB6C     		ldr	r3, [r7, #72]
 1275 00d4 1A60     		str	r2, [r3]
 350:planner.c     ****     block->steps[B_MOTOR] = labs((target_steps[X_AXIS]-position_steps[X_AXIS]) - (target_steps[Y_AX
 1276              		.loc 1 350 0
 1277 00d6 3A6B     		ldr	r2, [r7, #48]
 1278 00d8 7B6A     		ldr	r3, [r7, #36]
 1279 00da D21A     		subs	r2, r2, r3
 1280 00dc 796B     		ldr	r1, [r7, #52]
 1281 00de BB6A     		ldr	r3, [r7, #40]
 1282 00e0 CB1A     		subs	r3, r1, r3
 1283 00e2 D31A     		subs	r3, r2, r3
 1284 00e4 002B     		cmp	r3, #0
 1285 00e6 B8BF     		it	lt
 1286 00e8 5B42     		rsblt	r3, r3, #0
 1287 00ea 1A46     		mov	r2, r3
 1288 00ec BB6C     		ldr	r3, [r7, #72]
 1289 00ee 5A60     		str	r2, [r3, #4]
 351:planner.c     ****   #endif
ARM GAS  C:\Users\barto\AppData\Local\Temp\ccxvLAbr.s 			page 30


 352:planner.c     **** 
 353:planner.c     ****   for (idx=0; idx<N_AXIS; idx++) {
 1290              		.loc 1 353 0
 1291 00f0 0023     		movs	r3, #0
 1292 00f2 87F85330 		strb	r3, [r7, #83]
 1293 00f6 C1E0     		b	.L102
 1294              	.L109:
 354:planner.c     ****     // Calculate target position in absolute steps, number of steps for each axis, and determine ma
 355:planner.c     ****     // Also, compute individual axes distance for move and prep unit vector calculations.
 356:planner.c     ****     // NOTE: Computes true distance from converted step values.
 357:planner.c     ****     #ifdef COREXY
 358:planner.c     ****       if ( !(idx == A_MOTOR) && !(idx == B_MOTOR) ) {
 1295              		.loc 1 358 0
 1296 00f8 97F85330 		ldrb	r3, [r7, #83]	@ zero_extendqisi2
 1297 00fc 002B     		cmp	r3, #0
 1298 00fe 3ED0     		beq	.L103
 1299              		.loc 1 358 0 is_stmt 0 discriminator 1
 1300 0100 97F85330 		ldrb	r3, [r7, #83]	@ zero_extendqisi2
 1301 0104 012B     		cmp	r3, #1
 1302 0106 3AD0     		beq	.L103
 359:planner.c     ****         target_steps[idx] = lround(target[idx]*settings.steps_per_mm[idx]);
 1303              		.loc 1 359 0 is_stmt 1
 1304 0108 97F85340 		ldrb	r4, [r7, #83]	@ zero_extendqisi2
 1305 010c 97F85330 		ldrb	r3, [r7, #83]	@ zero_extendqisi2
 1306 0110 9B00     		lsls	r3, r3, #2
 1307 0112 7A68     		ldr	r2, [r7, #4]
 1308 0114 1344     		add	r3, r3, r2
 1309 0116 1868     		ldr	r0, [r3]	@ float
 1310 0118 97F85330 		ldrb	r3, [r7, #83]	@ zero_extendqisi2
 1311 011c 734A     		ldr	r2, .L136+16
 1312 011e 52F82330 		ldr	r3, [r2, r3, lsl #2]	@ float
 1313 0122 1946     		mov	r1, r3
 1314 0124 FFF7FEFF 		bl	__aeabi_fmul
 1315 0128 0346     		mov	r3, r0
 1316 012a 1846     		mov	r0, r3
 1317 012c FFF7FEFF 		bl	__aeabi_f2d
 1318 0130 0246     		mov	r2, r0
 1319 0132 0B46     		mov	r3, r1
 1320 0134 1046     		mov	r0, r2
 1321 0136 1946     		mov	r1, r3
 1322 0138 FFF7FEFF 		bl	lround
 1323 013c 0246     		mov	r2, r0
 1324 013e A300     		lsls	r3, r4, #2
 1325 0140 07F15801 		add	r1, r7, #88
 1326 0144 0B44     		add	r3, r3, r1
 1327 0146 43F8282C 		str	r2, [r3, #-40]
 360:planner.c     ****         block->steps[idx] = labs(target_steps[idx]-position_steps[idx]);
 1328              		.loc 1 360 0
 1329 014a 97F85320 		ldrb	r2, [r7, #83]	@ zero_extendqisi2
 1330 014e 97F85330 		ldrb	r3, [r7, #83]	@ zero_extendqisi2
 1331 0152 9B00     		lsls	r3, r3, #2
 1332 0154 07F15801 		add	r1, r7, #88
 1333 0158 0B44     		add	r3, r3, r1
 1334 015a 53F8281C 		ldr	r1, [r3, #-40]
 1335 015e 97F85330 		ldrb	r3, [r7, #83]	@ zero_extendqisi2
 1336 0162 9B00     		lsls	r3, r3, #2
 1337 0164 07F15800 		add	r0, r7, #88
ARM GAS  C:\Users\barto\AppData\Local\Temp\ccxvLAbr.s 			page 31


 1338 0168 0344     		add	r3, r3, r0
 1339 016a 53F8343C 		ldr	r3, [r3, #-52]
 1340 016e CB1A     		subs	r3, r1, r3
 1341 0170 002B     		cmp	r3, #0
 1342 0172 B8BF     		it	lt
 1343 0174 5B42     		rsblt	r3, r3, #0
 1344 0176 1946     		mov	r1, r3
 1345 0178 BB6C     		ldr	r3, [r7, #72]
 1346 017a 43F82210 		str	r1, [r3, r2, lsl #2]
 1347              	.L103:
 361:planner.c     ****       }
 362:planner.c     ****       block->step_event_count = max(block->step_event_count, block->steps[idx]);
 1348              		.loc 1 362 0
 1349 017e 97F85320 		ldrb	r2, [r7, #83]	@ zero_extendqisi2
 1350 0182 BB6C     		ldr	r3, [r7, #72]
 1351 0184 53F82220 		ldr	r2, [r3, r2, lsl #2]
 1352 0188 BB6C     		ldr	r3, [r7, #72]
 1353 018a DB68     		ldr	r3, [r3, #12]
 1354 018c 9A42     		cmp	r2, r3
 1355 018e 38BF     		it	cc
 1356 0190 1A46     		movcc	r2, r3
 1357 0192 BB6C     		ldr	r3, [r7, #72]
 1358 0194 DA60     		str	r2, [r3, #12]
 363:planner.c     ****       if (idx == A_MOTOR) {
 1359              		.loc 1 363 0
 1360 0196 97F85330 		ldrb	r3, [r7, #83]	@ zero_extendqisi2
 1361 019a 002B     		cmp	r3, #0
 1362 019c 14D1     		bne	.L104
 364:planner.c     ****         delta_mm = (target_steps[X_AXIS]-position_steps[X_AXIS] + target_steps[Y_AXIS]-position_ste
 1363              		.loc 1 364 0
 1364 019e 3A6B     		ldr	r2, [r7, #48]
 1365 01a0 7B6A     		ldr	r3, [r7, #36]
 1366 01a2 D21A     		subs	r2, r2, r3
 1367 01a4 7B6B     		ldr	r3, [r7, #52]
 1368 01a6 1A44     		add	r2, r2, r3
 1369 01a8 BB6A     		ldr	r3, [r7, #40]
 1370 01aa D31A     		subs	r3, r2, r3
 1371 01ac 1846     		mov	r0, r3
 1372 01ae FFF7FEFF 		bl	__aeabi_i2f
 1373 01b2 97F85330 		ldrb	r3, [r7, #83]	@ zero_extendqisi2
 1374 01b6 4D4A     		ldr	r2, .L136+16
 1375 01b8 52F82330 		ldr	r3, [r2, r3, lsl #2]	@ float
 1376 01bc 1946     		mov	r1, r3
 1377 01be FFF7FEFF 		bl	__aeabi_fdiv
 1378 01c2 0346     		mov	r3, r0
 1379 01c4 7B65     		str	r3, [r7, #84]	@ float
 1380 01c6 36E0     		b	.L105
 1381              	.L104:
 365:planner.c     ****       } else if (idx == B_MOTOR) {
 1382              		.loc 1 365 0
 1383 01c8 97F85330 		ldrb	r3, [r7, #83]	@ zero_extendqisi2
 1384 01cc 012B     		cmp	r3, #1
 1385 01ce 14D1     		bne	.L106
 366:planner.c     ****         delta_mm = (target_steps[X_AXIS]-position_steps[X_AXIS] - target_steps[Y_AXIS]+position_ste
 1386              		.loc 1 366 0
 1387 01d0 3A6B     		ldr	r2, [r7, #48]
 1388 01d2 7B6A     		ldr	r3, [r7, #36]
ARM GAS  C:\Users\barto\AppData\Local\Temp\ccxvLAbr.s 			page 32


 1389 01d4 D21A     		subs	r2, r2, r3
 1390 01d6 7B6B     		ldr	r3, [r7, #52]
 1391 01d8 D21A     		subs	r2, r2, r3
 1392 01da BB6A     		ldr	r3, [r7, #40]
 1393 01dc 1344     		add	r3, r3, r2
 1394 01de 1846     		mov	r0, r3
 1395 01e0 FFF7FEFF 		bl	__aeabi_i2f
 1396 01e4 97F85330 		ldrb	r3, [r7, #83]	@ zero_extendqisi2
 1397 01e8 404A     		ldr	r2, .L136+16
 1398 01ea 52F82330 		ldr	r3, [r2, r3, lsl #2]	@ float
 1399 01ee 1946     		mov	r1, r3
 1400 01f0 FFF7FEFF 		bl	__aeabi_fdiv
 1401 01f4 0346     		mov	r3, r0
 1402 01f6 7B65     		str	r3, [r7, #84]	@ float
 1403 01f8 1DE0     		b	.L105
 1404              	.L106:
 367:planner.c     ****       } else {
 368:planner.c     ****         delta_mm = (target_steps[idx] - position_steps[idx])/settings.steps_per_mm[idx];
 1405              		.loc 1 368 0
 1406 01fa 97F85330 		ldrb	r3, [r7, #83]	@ zero_extendqisi2
 1407 01fe 9B00     		lsls	r3, r3, #2
 1408 0200 07F15802 		add	r2, r7, #88
 1409 0204 1344     		add	r3, r3, r2
 1410 0206 53F8282C 		ldr	r2, [r3, #-40]
 1411 020a 97F85330 		ldrb	r3, [r7, #83]	@ zero_extendqisi2
 1412 020e 9B00     		lsls	r3, r3, #2
 1413 0210 07F15801 		add	r1, r7, #88
 1414 0214 0B44     		add	r3, r3, r1
 1415 0216 53F8343C 		ldr	r3, [r3, #-52]
 1416 021a D31A     		subs	r3, r2, r3
 1417 021c 1846     		mov	r0, r3
 1418 021e FFF7FEFF 		bl	__aeabi_i2f
 1419 0222 97F85330 		ldrb	r3, [r7, #83]	@ zero_extendqisi2
 1420 0226 314A     		ldr	r2, .L136+16
 1421 0228 52F82330 		ldr	r3, [r2, r3, lsl #2]	@ float
 1422 022c 1946     		mov	r1, r3
 1423 022e FFF7FEFF 		bl	__aeabi_fdiv
 1424 0232 0346     		mov	r3, r0
 1425 0234 7B65     		str	r3, [r7, #84]	@ float
 1426              	.L105:
 369:planner.c     ****       }
 370:planner.c     ****     #else
 371:planner.c     ****       target_steps[idx] = lround(target[idx]*settings.steps_per_mm[idx]);
 372:planner.c     ****       block->steps[idx] = labs(target_steps[idx]-position_steps[idx]);
 373:planner.c     ****       block->step_event_count = max(block->step_event_count, block->steps[idx]);
 374:planner.c     ****       delta_mm = (target_steps[idx] - position_steps[idx])/settings.steps_per_mm[idx];
 375:planner.c     **** 	  #endif
 376:planner.c     ****     unit_vec[idx] = delta_mm; // Store unit vector numerator
 1427              		.loc 1 376 0
 1428 0236 97F85330 		ldrb	r3, [r7, #83]	@ zero_extendqisi2
 1429 023a 9B00     		lsls	r3, r3, #2
 1430 023c 07F15802 		add	r2, r7, #88
 1431 0240 1344     		add	r3, r3, r2
 1432 0242 7A6D     		ldr	r2, [r7, #84]	@ float
 1433 0244 43F8402C 		str	r2, [r3, #-64]	@ float
 377:planner.c     **** 
 378:planner.c     ****     // Set direction bits. Bit enabled always means direction is negative.
ARM GAS  C:\Users\barto\AppData\Local\Temp\ccxvLAbr.s 			page 33


 379:planner.c     ****     if (delta_mm < 0.0 ) { block->direction_bits |= get_direction_pin_mask(idx); }
 1434              		.loc 1 379 0
 1435 0248 4FF00001 		mov	r1, #0
 1436 024c 786D     		ldr	r0, [r7, #84]	@ float
 1437 024e FFF7FEFF 		bl	__aeabi_fcmplt
 1438 0252 0346     		mov	r3, r0
 1439 0254 002B     		cmp	r3, #0
 1440 0256 0CD0     		beq	.L107
 1441              		.loc 1 379 0 is_stmt 0 discriminator 1
 1442 0258 97F85330 		ldrb	r3, [r7, #83]	@ zero_extendqisi2
 1443 025c 1846     		mov	r0, r3
 1444 025e FFF7FEFF 		bl	get_direction_pin_mask
 1445 0262 0346     		mov	r3, r0
 1446 0264 1A46     		mov	r2, r3
 1447 0266 BB6C     		ldr	r3, [r7, #72]
 1448 0268 1B7C     		ldrb	r3, [r3, #16]	@ zero_extendqisi2
 1449 026a 1343     		orrs	r3, r3, r2
 1450 026c DAB2     		uxtb	r2, r3
 1451 026e BB6C     		ldr	r3, [r7, #72]
 1452 0270 1A74     		strb	r2, [r3, #16]
 1453              	.L107:
 353:planner.c     ****     // Calculate target position in absolute steps, number of steps for each axis, and determine ma
 1454              		.loc 1 353 0 is_stmt 1 discriminator 2
 1455 0272 97F85330 		ldrb	r3, [r7, #83]	@ zero_extendqisi2
 1456 0276 0133     		adds	r3, r3, #1
 1457 0278 87F85330 		strb	r3, [r7, #83]
 1458              	.L102:
 353:planner.c     ****     // Calculate target position in absolute steps, number of steps for each axis, and determine ma
 1459              		.loc 1 353 0 is_stmt 0 discriminator 1
 1460 027c 97F85330 		ldrb	r3, [r7, #83]	@ zero_extendqisi2
 1461 0280 022B     		cmp	r3, #2
 1462 0282 7FF639AF 		bls	.L109
 380:planner.c     ****   }
 381:planner.c     **** 
 382:planner.c     ****   // Bail if this is a zero-length block. Highly unlikely to occur.
 383:planner.c     ****   if (block->step_event_count == 0) { return(PLAN_EMPTY_BLOCK); }
 1463              		.loc 1 383 0 is_stmt 1
 1464 0286 BB6C     		ldr	r3, [r7, #72]
 1465 0288 DB68     		ldr	r3, [r3, #12]
 1466 028a 002B     		cmp	r3, #0
 1467 028c 01D1     		bne	.L110
 1468              		.loc 1 383 0 is_stmt 0 discriminator 1
 1469 028e 0023     		movs	r3, #0
 1470 0290 7FE1     		b	.L128
 1471              	.L110:
 384:planner.c     **** 
 385:planner.c     ****   // Calculate the unit vector of the line move and the block maximum feed rate and acceleration sc
 386:planner.c     ****   // down such that no individual axes maximum values are exceeded with respect to the line directi
 387:planner.c     ****   // NOTE: This calculation assumes all axes are orthogonal (Cartesian) and works with ABC-axes,
 388:planner.c     ****   // if they are also orthogonal/independent. Operates on the absolute value of the unit vector.
 389:planner.c     ****   block->millimeters = convert_delta_vector_to_unit_vector(unit_vec);
 1472              		.loc 1 389 0 is_stmt 1
 1473 0292 07F11803 		add	r3, r7, #24
 1474 0296 1846     		mov	r0, r3
 1475 0298 FFF7FEFF 		bl	convert_delta_vector_to_unit_vector
 1476 029c 0246     		mov	r2, r0
 1477 029e BB6C     		ldr	r3, [r7, #72]
ARM GAS  C:\Users\barto\AppData\Local\Temp\ccxvLAbr.s 			page 34


 1478 02a0 1A62     		str	r2, [r3, #32]	@ float
 390:planner.c     ****   block->acceleration = limit_value_by_axis_maximum(settings.acceleration, unit_vec);
 1479              		.loc 1 390 0
 1480 02a2 07F11803 		add	r3, r7, #24
 1481 02a6 1946     		mov	r1, r3
 1482 02a8 1148     		ldr	r0, .L136+20
 1483 02aa FFF7FEFF 		bl	limit_value_by_axis_maximum
 1484 02ae 0246     		mov	r2, r0
 1485 02b0 BB6C     		ldr	r3, [r7, #72]
 1486 02b2 DA61     		str	r2, [r3, #28]	@ float
 391:planner.c     ****   block->rapid_rate = limit_value_by_axis_maximum(settings.max_rate, unit_vec);
 1487              		.loc 1 391 0
 1488 02b4 07F11803 		add	r3, r7, #24
 1489 02b8 1946     		mov	r1, r3
 1490 02ba 0E48     		ldr	r0, .L136+24
 1491 02bc FFF7FEFF 		bl	limit_value_by_axis_maximum
 1492 02c0 0246     		mov	r2, r0
 1493 02c2 BB6C     		ldr	r3, [r7, #72]
 1494 02c4 9A62     		str	r2, [r3, #40]	@ float
 392:planner.c     **** 
 393:planner.c     ****   // Store programmed rate.
 394:planner.c     ****   if (block->condition & PL_COND_FLAG_RAPID_MOTION) { block->programmed_rate = block->rapid_rate; }
 1495              		.loc 1 394 0
 1496 02c6 BB6C     		ldr	r3, [r7, #72]
 1497 02c8 5B7C     		ldrb	r3, [r3, #17]	@ zero_extendqisi2
 1498 02ca 03F00103 		and	r3, r3, #1
 1499 02ce 002B     		cmp	r3, #0
 1500 02d0 12D0     		beq	.L112
 1501              		.loc 1 394 0 is_stmt 0 discriminator 1
 1502 02d2 BB6C     		ldr	r3, [r7, #72]
 1503 02d4 9A6A     		ldr	r2, [r3, #40]	@ float
 1504 02d6 BB6C     		ldr	r3, [r7, #72]
 1505 02d8 DA62     		str	r2, [r3, #44]	@ float
 1506 02da 23E0     		b	.L113
 1507              	.L137:
 1508              		.align	2
 1509              	.L136:
 1510 02dc 21080000 		.word	block_buffer_head
 1511 02e0 00000000 		.word	block_buffer
 1512 02e4 00000000 		.word	sys_position
 1513 02e8 24080000 		.word	pl
 1514 02ec 00000000 		.word	settings
 1515 02f0 18000000 		.word	settings+24
 1516 02f4 0C000000 		.word	settings+12
 1517              	.L112:
 395:planner.c     ****   else { 
 396:planner.c     ****     block->programmed_rate = pl_data->feed_rate;
 1518              		.loc 1 396 0 is_stmt 1
 1519 02f8 3B68     		ldr	r3, [r7]
 1520 02fa 1A68     		ldr	r2, [r3]	@ float
 1521 02fc BB6C     		ldr	r3, [r7, #72]
 1522 02fe DA62     		str	r2, [r3, #44]	@ float
 397:planner.c     ****     if (block->condition & PL_COND_FLAG_INVERSE_TIME) { block->programmed_rate *= block->millimeter
 1523              		.loc 1 397 0
 1524 0300 BB6C     		ldr	r3, [r7, #72]
 1525 0302 5B7C     		ldrb	r3, [r3, #17]	@ zero_extendqisi2
 1526 0304 03F00803 		and	r3, r3, #8
ARM GAS  C:\Users\barto\AppData\Local\Temp\ccxvLAbr.s 			page 35


 1527 0308 002B     		cmp	r3, #0
 1528 030a 0BD0     		beq	.L113
 1529              		.loc 1 397 0 is_stmt 0 discriminator 1
 1530 030c BB6C     		ldr	r3, [r7, #72]
 1531 030e DA6A     		ldr	r2, [r3, #44]	@ float
 1532 0310 BB6C     		ldr	r3, [r7, #72]
 1533 0312 1B6A     		ldr	r3, [r3, #32]	@ float
 1534 0314 1946     		mov	r1, r3
 1535 0316 1046     		mov	r0, r2
 1536 0318 FFF7FEFF 		bl	__aeabi_fmul
 1537 031c 0346     		mov	r3, r0
 1538 031e 1A46     		mov	r2, r3
 1539 0320 BB6C     		ldr	r3, [r7, #72]
 1540 0322 DA62     		str	r2, [r3, #44]	@ float
 1541              	.L113:
 398:planner.c     ****   }
 399:planner.c     **** 
 400:planner.c     ****   // TODO: Need to check this method handling zero junction speeds when starting from rest.
 401:planner.c     ****   if ((block_buffer_head == block_buffer_tail) || (block->condition & PL_COND_FLAG_SYSTEM_MOTION)) 
 1542              		.loc 1 401 0 is_stmt 1
 1543 0324 A24B     		ldr	r3, .L138+16
 1544 0326 1A78     		ldrb	r2, [r3]	@ zero_extendqisi2
 1545 0328 A24B     		ldr	r3, .L138+20
 1546 032a 1B78     		ldrb	r3, [r3]	@ zero_extendqisi2
 1547 032c 9A42     		cmp	r2, r3
 1548 032e 05D0     		beq	.L114
 1549              		.loc 1 401 0 is_stmt 0 discriminator 1
 1550 0330 BB6C     		ldr	r3, [r7, #72]
 1551 0332 5B7C     		ldrb	r3, [r3, #17]	@ zero_extendqisi2
 1552 0334 03F00203 		and	r3, r3, #2
 1553 0338 002B     		cmp	r3, #0
 1554 033a 08D0     		beq	.L115
 1555              	.L114:
 402:planner.c     **** 
 403:planner.c     ****     // Initialize block entry speed as zero. Assume it will be starting from rest. Planner will cor
 404:planner.c     ****     // If system motion, the system motion block always is assumed to start from rest and end at a 
 405:planner.c     ****     block->entry_speed_sqr = 0.0;
 1556              		.loc 1 405 0 is_stmt 1
 1557 033c BB6C     		ldr	r3, [r7, #72]
 1558 033e 4FF00002 		mov	r2, #0
 1559 0342 5A61     		str	r2, [r3, #20]	@ float
 406:planner.c     ****     block->max_junction_speed_sqr = 0.0; // Starting from rest. Enforce start from zero velocity.
 1560              		.loc 1 406 0
 1561 0344 BB6C     		ldr	r3, [r7, #72]
 1562 0346 4FF00002 		mov	r2, #0
 1563 034a 5A62     		str	r2, [r3, #36]	@ float
 1564 034c EEE0     		b	.L116
 1565              	.L115:
 1566              	.LBB3:
 407:planner.c     **** 
 408:planner.c     ****   } else {
 409:planner.c     ****     // Compute maximum allowable entry speed at junction by centripetal acceleration approximation.
 410:planner.c     ****     // Let a circle be tangent to both previous and current path line segments, where the junction
 411:planner.c     ****     // deviation is defined as the distance from the junction to the closest edge of the circle,
 412:planner.c     ****     // colinear with the circle center. The circular segment joining the two paths represents the
 413:planner.c     ****     // path of centripetal acceleration. Solve for max velocity based on max acceleration about the
 414:planner.c     ****     // radius of the circle, defined indirectly by junction deviation. This may be also viewed as
ARM GAS  C:\Users\barto\AppData\Local\Temp\ccxvLAbr.s 			page 36


 415:planner.c     ****     // path width or max_jerk in the previous Grbl version. This approach does not actually deviate
 416:planner.c     ****     // from path, but used as a robust way to compute cornering speeds, as it takes into account th
 417:planner.c     ****     // nonlinearities of both the junction angle and junction velocity.
 418:planner.c     ****     //
 419:planner.c     ****     // NOTE: If the junction deviation value is finite, Grbl executes the motions in an exact path
 420:planner.c     ****     // mode (G61). If the junction deviation value is zero, Grbl will execute the motion in an exac
 421:planner.c     ****     // stop mode (G61.1) manner. In the future, if continuous mode (G64) is desired, the math here
 422:planner.c     ****     // is exactly the same. Instead of motioning all the way to junction point, the machine will
 423:planner.c     ****     // just follow the arc circle defined here. The Arduino doesn't have the CPU cycles to perform
 424:planner.c     ****     // a continuous mode path, but ARM-based microcontrollers most certainly do.
 425:planner.c     ****     //
 426:planner.c     ****     // NOTE: The max junction speed is a fixed value, since machine acceleration limits cannot be
 427:planner.c     ****     // changed dynamically during operation nor can the line move geometry. This must be kept in
 428:planner.c     ****     // memory in the event of a feedrate override changing the nominal speeds of blocks, which can
 429:planner.c     ****     // change the overall maximum entry speed conditions of all blocks.
 430:planner.c     **** 
 431:planner.c     ****     float junction_unit_vec[N_AXIS];
 432:planner.c     ****     float junction_cos_theta = 0.0;
 1567              		.loc 1 432 0
 1568 034e 4FF00003 		mov	r3, #0
 1569 0352 FB64     		str	r3, [r7, #76]	@ float
 433:planner.c     ****     for (idx=0; idx<N_AXIS; idx++) {
 1570              		.loc 1 433 0
 1571 0354 0023     		movs	r3, #0
 1572 0356 87F85330 		strb	r3, [r7, #83]
 1573 035a 3AE0     		b	.L117
 1574              	.L118:
 434:planner.c     ****       junction_cos_theta -= pl.previous_unit_vec[idx]*unit_vec[idx];
 1575              		.loc 1 434 0 discriminator 3
 1576 035c 97F85330 		ldrb	r3, [r7, #83]	@ zero_extendqisi2
 1577 0360 954A     		ldr	r2, .L138+24
 1578 0362 0233     		adds	r3, r3, #2
 1579 0364 9B00     		lsls	r3, r3, #2
 1580 0366 1344     		add	r3, r3, r2
 1581 0368 5A68     		ldr	r2, [r3, #4]	@ float
 1582 036a 97F85330 		ldrb	r3, [r7, #83]	@ zero_extendqisi2
 1583 036e 9B00     		lsls	r3, r3, #2
 1584 0370 07F15801 		add	r1, r7, #88
 1585 0374 0B44     		add	r3, r3, r1
 1586 0376 53F8403C 		ldr	r3, [r3, #-64]	@ float
 1587 037a 1946     		mov	r1, r3
 1588 037c 1046     		mov	r0, r2
 1589 037e FFF7FEFF 		bl	__aeabi_fmul
 1590 0382 0346     		mov	r3, r0
 1591 0384 1946     		mov	r1, r3
 1592 0386 F86C     		ldr	r0, [r7, #76]	@ float
 1593 0388 FFF7FEFF 		bl	__aeabi_fsub
 1594 038c 0346     		mov	r3, r0
 1595 038e FB64     		str	r3, [r7, #76]	@ float
 435:planner.c     ****       junction_unit_vec[idx] = unit_vec[idx]-pl.previous_unit_vec[idx];
 1596              		.loc 1 435 0 discriminator 3
 1597 0390 97F85340 		ldrb	r4, [r7, #83]	@ zero_extendqisi2
 1598 0394 97F85330 		ldrb	r3, [r7, #83]	@ zero_extendqisi2
 1599 0398 9B00     		lsls	r3, r3, #2
 1600 039a 07F15802 		add	r2, r7, #88
 1601 039e 1344     		add	r3, r3, r2
 1602 03a0 53F8400C 		ldr	r0, [r3, #-64]	@ float
ARM GAS  C:\Users\barto\AppData\Local\Temp\ccxvLAbr.s 			page 37


 1603 03a4 97F85330 		ldrb	r3, [r7, #83]	@ zero_extendqisi2
 1604 03a8 834A     		ldr	r2, .L138+24
 1605 03aa 0233     		adds	r3, r3, #2
 1606 03ac 9B00     		lsls	r3, r3, #2
 1607 03ae 1344     		add	r3, r3, r2
 1608 03b0 5B68     		ldr	r3, [r3, #4]	@ float
 1609 03b2 1946     		mov	r1, r3
 1610 03b4 FFF7FEFF 		bl	__aeabi_fsub
 1611 03b8 0346     		mov	r3, r0
 1612 03ba 1A46     		mov	r2, r3
 1613 03bc A300     		lsls	r3, r4, #2
 1614 03be 07F15801 		add	r1, r7, #88
 1615 03c2 0B44     		add	r3, r3, r1
 1616 03c4 43F84C2C 		str	r2, [r3, #-76]	@ float
 433:planner.c     ****     for (idx=0; idx<N_AXIS; idx++) {
 1617              		.loc 1 433 0 discriminator 3
 1618 03c8 97F85330 		ldrb	r3, [r7, #83]	@ zero_extendqisi2
 1619 03cc 0133     		adds	r3, r3, #1
 1620 03ce 87F85330 		strb	r3, [r7, #83]
 1621              	.L117:
 433:planner.c     ****     for (idx=0; idx<N_AXIS; idx++) {
 1622              		.loc 1 433 0 is_stmt 0 discriminator 1
 1623 03d2 97F85330 		ldrb	r3, [r7, #83]	@ zero_extendqisi2
 1624 03d6 022B     		cmp	r3, #2
 1625 03d8 C0D9     		bls	.L118
 436:planner.c     ****     }
 437:planner.c     **** 
 438:planner.c     ****     // NOTE: Computed without any expensive trig, sin() or acos(), by trig half angle identity of c
 439:planner.c     ****     if (junction_cos_theta > 0.999999) {
 1626              		.loc 1 439 0 is_stmt 1
 1627 03da F86C     		ldr	r0, [r7, #76]	@ float
 1628 03dc FFF7FEFF 		bl	__aeabi_f2d
 1629 03e0 6FA3     		adr	r3, .L138
 1630 03e2 D3E90023 		ldrd	r2, [r3]
 1631 03e6 FFF7FEFF 		bl	__aeabi_dcmpgt
 1632 03ea 0346     		mov	r3, r0
 1633 03ec 002B     		cmp	r3, #0
 1634 03ee 04D0     		beq	.L133
 440:planner.c     ****       //  For a 0 degree acute junction, just set minimum junction speed.
 441:planner.c     ****       block->max_junction_speed_sqr = MINIMUM_JUNCTION_SPEED*MINIMUM_JUNCTION_SPEED;
 1635              		.loc 1 441 0
 1636 03f0 BB6C     		ldr	r3, [r7, #72]
 1637 03f2 4FF00002 		mov	r2, #0
 1638 03f6 5A62     		str	r2, [r3, #36]	@ float
 1639 03f8 98E0     		b	.L116
 1640              	.L133:
 442:planner.c     ****     } else {
 443:planner.c     ****       if (junction_cos_theta < -0.999999) {
 1641              		.loc 1 443 0
 1642 03fa F86C     		ldr	r0, [r7, #76]	@ float
 1643 03fc FFF7FEFF 		bl	__aeabi_f2d
 1644 0400 69A3     		adr	r3, .L138+8
 1645 0402 D3E90023 		ldrd	r2, [r3]
 1646 0406 FFF7FEFF 		bl	__aeabi_dcmplt
 1647 040a 0346     		mov	r3, r0
 1648 040c 002B     		cmp	r3, #0
 1649 040e 03D0     		beq	.L134
ARM GAS  C:\Users\barto\AppData\Local\Temp\ccxvLAbr.s 			page 38


 444:planner.c     ****         // Junction is a straight line or 180 degrees. Junction speed is infinite.
 445:planner.c     ****         block->max_junction_speed_sqr = SOME_LARGE_VALUE;
 1650              		.loc 1 445 0
 1651 0410 BB6C     		ldr	r3, [r7, #72]
 1652 0412 6A4A     		ldr	r2, .L138+28
 1653 0414 5A62     		str	r2, [r3, #36]	@ float
 1654 0416 89E0     		b	.L116
 1655              	.L134:
 1656              	.LBB4:
 446:planner.c     ****       } else {
 447:planner.c     ****         convert_delta_vector_to_unit_vector(junction_unit_vec);
 1657              		.loc 1 447 0
 1658 0418 07F10C03 		add	r3, r7, #12
 1659 041c 1846     		mov	r0, r3
 1660 041e FFF7FEFF 		bl	convert_delta_vector_to_unit_vector
 448:planner.c     ****         float junction_acceleration = limit_value_by_axis_maximum(settings.acceleration, junction_u
 1661              		.loc 1 448 0
 1662 0422 07F10C03 		add	r3, r7, #12
 1663 0426 1946     		mov	r1, r3
 1664 0428 6548     		ldr	r0, .L138+32
 1665 042a FFF7FEFF 		bl	limit_value_by_axis_maximum
 1666 042e 7864     		str	r0, [r7, #68]	@ float
 449:planner.c     ****         float sin_theta_d2 = sqrt(0.5*(1.0-junction_cos_theta)); // Trig half angle identity. Alway
 1667              		.loc 1 449 0
 1668 0430 F86C     		ldr	r0, [r7, #76]	@ float
 1669 0432 FFF7FEFF 		bl	__aeabi_f2d
 1670 0436 0346     		mov	r3, r0
 1671 0438 0C46     		mov	r4, r1
 1672 043a 1A46     		mov	r2, r3
 1673 043c 2346     		mov	r3, r4
 1674 043e 4FF00000 		mov	r0, #0
 1675 0442 6049     		ldr	r1, .L138+36
 1676 0444 FFF7FEFF 		bl	__aeabi_dsub
 1677 0448 0346     		mov	r3, r0
 1678 044a 0C46     		mov	r4, r1
 1679 044c 1846     		mov	r0, r3
 1680 044e 2146     		mov	r1, r4
 1681 0450 4FF00002 		mov	r2, #0
 1682 0454 5C4B     		ldr	r3, .L138+40
 1683 0456 FFF7FEFF 		bl	__aeabi_dmul
 1684 045a 0346     		mov	r3, r0
 1685 045c 0C46     		mov	r4, r1
 1686 045e 1846     		mov	r0, r3
 1687 0460 2146     		mov	r1, r4
 1688 0462 FFF7FEFF 		bl	sqrt
 1689 0466 0346     		mov	r3, r0
 1690 0468 0C46     		mov	r4, r1
 1691 046a 1846     		mov	r0, r3
 1692 046c 2146     		mov	r1, r4
 1693 046e FFF7FEFF 		bl	__aeabi_d2f
 1694 0472 0346     		mov	r3, r0
 1695 0474 3B64     		str	r3, [r7, #64]	@ float
 450:planner.c     ****         block->max_junction_speed_sqr = max( MINIMUM_JUNCTION_SPEED*MINIMUM_JUNCTION_SPEED,
 1696              		.loc 1 450 0
 1697 0476 554B     		ldr	r3, .L138+44
 1698 0478 9B6B     		ldr	r3, [r3, #56]	@ float
 1699 047a 796C     		ldr	r1, [r7, #68]	@ float
ARM GAS  C:\Users\barto\AppData\Local\Temp\ccxvLAbr.s 			page 39


 1700 047c 1846     		mov	r0, r3
 1701 047e FFF7FEFF 		bl	__aeabi_fmul
 1702 0482 0346     		mov	r3, r0
 1703 0484 396C     		ldr	r1, [r7, #64]	@ float
 1704 0486 1846     		mov	r0, r3
 1705 0488 FFF7FEFF 		bl	__aeabi_fmul
 1706 048c 0346     		mov	r3, r0
 1707 048e 1846     		mov	r0, r3
 1708 0490 FFF7FEFF 		bl	__aeabi_f2d
 1709 0494 0446     		mov	r4, r0
 1710 0496 0D46     		mov	r5, r1
 1711 0498 386C     		ldr	r0, [r7, #64]	@ float
 1712 049a FFF7FEFF 		bl	__aeabi_f2d
 1713 049e 0246     		mov	r2, r0
 1714 04a0 0B46     		mov	r3, r1
 1715 04a2 4FF00000 		mov	r0, #0
 1716 04a6 4749     		ldr	r1, .L138+36
 1717 04a8 FFF7FEFF 		bl	__aeabi_dsub
 1718 04ac 0246     		mov	r2, r0
 1719 04ae 0B46     		mov	r3, r1
 1720 04b0 2046     		mov	r0, r4
 1721 04b2 2946     		mov	r1, r5
 1722 04b4 FFF7FEFF 		bl	__aeabi_ddiv
 1723 04b8 0346     		mov	r3, r0
 1724 04ba 0C46     		mov	r4, r1
 1725 04bc 1846     		mov	r0, r3
 1726 04be 2146     		mov	r1, r4
 1727 04c0 4FF00002 		mov	r2, #0
 1728 04c4 4FF00003 		mov	r3, #0
 1729 04c8 FFF7FEFF 		bl	__aeabi_dcmplt
 1730 04cc 0346     		mov	r3, r0
 1731 04ce 002B     		cmp	r3, #0
 1732 04d0 02D0     		beq	.L135
 1733              		.loc 1 450 0 is_stmt 0 discriminator 1
 1734 04d2 4FF00002 		mov	r2, #0
 1735 04d6 27E0     		b	.L126
 1736              	.L135:
 1737              		.loc 1 450 0 discriminator 2
 1738 04d8 3C4B     		ldr	r3, .L138+44
 1739 04da 9B6B     		ldr	r3, [r3, #56]	@ float
 1740 04dc 796C     		ldr	r1, [r7, #68]	@ float
 1741 04de 1846     		mov	r0, r3
 1742 04e0 FFF7FEFF 		bl	__aeabi_fmul
 1743 04e4 0346     		mov	r3, r0
 1744 04e6 396C     		ldr	r1, [r7, #64]	@ float
 1745 04e8 1846     		mov	r0, r3
 1746 04ea FFF7FEFF 		bl	__aeabi_fmul
 1747 04ee 0346     		mov	r3, r0
 1748 04f0 1846     		mov	r0, r3
 1749 04f2 FFF7FEFF 		bl	__aeabi_f2d
 1750 04f6 0446     		mov	r4, r0
 1751 04f8 0D46     		mov	r5, r1
 1752 04fa 386C     		ldr	r0, [r7, #64]	@ float
 1753 04fc FFF7FEFF 		bl	__aeabi_f2d
 1754 0500 0246     		mov	r2, r0
 1755 0502 0B46     		mov	r3, r1
 1756 0504 4FF00000 		mov	r0, #0
ARM GAS  C:\Users\barto\AppData\Local\Temp\ccxvLAbr.s 			page 40


 1757 0508 2E49     		ldr	r1, .L138+36
 1758 050a FFF7FEFF 		bl	__aeabi_dsub
 1759 050e 0246     		mov	r2, r0
 1760 0510 0B46     		mov	r3, r1
 1761 0512 2046     		mov	r0, r4
 1762 0514 2946     		mov	r1, r5
 1763 0516 FFF7FEFF 		bl	__aeabi_ddiv
 1764 051a 0346     		mov	r3, r0
 1765 051c 0C46     		mov	r4, r1
 1766 051e 1846     		mov	r0, r3
 1767 0520 2146     		mov	r1, r4
 1768 0522 FFF7FEFF 		bl	__aeabi_d2f
 1769 0526 0246     		mov	r2, r0
 1770              	.L126:
 1771              		.loc 1 450 0 discriminator 4
 1772 0528 BB6C     		ldr	r3, [r7, #72]
 1773 052a 5A62     		str	r2, [r3, #36]	@ float
 1774              	.L116:
 1775              	.LBE4:
 1776              	.LBE3:
 451:planner.c     ****                        (junction_acceleration * settings.junction_deviation * sin_theta_d2)/(1.0-si
 452:planner.c     ****       }
 453:planner.c     ****     }
 454:planner.c     ****   }
 455:planner.c     **** 
 456:planner.c     ****   // Block system motion from updating this data to ensure next g-code motion is computed correctly
 457:planner.c     ****   if (!(block->condition & PL_COND_FLAG_SYSTEM_MOTION)) {
 1777              		.loc 1 457 0 is_stmt 1
 1778 052c BB6C     		ldr	r3, [r7, #72]
 1779 052e 5B7C     		ldrb	r3, [r3, #17]	@ zero_extendqisi2
 1780 0530 03F00203 		and	r3, r3, #2
 1781 0534 002B     		cmp	r3, #0
 1782 0536 2BD1     		bne	.L127
 1783              	.LBB5:
 458:planner.c     ****     float nominal_speed = plan_compute_profile_nominal_speed(block);
 1784              		.loc 1 458 0
 1785 0538 B86C     		ldr	r0, [r7, #72]
 1786 053a FFF7FEFF 		bl	plan_compute_profile_nominal_speed
 1787 053e F863     		str	r0, [r7, #60]	@ float
 459:planner.c     ****     plan_compute_profile_parameters(block, nominal_speed, pl.previous_nominal_speed);
 1788              		.loc 1 459 0
 1789 0540 1D4B     		ldr	r3, .L138+24
 1790 0542 9B69     		ldr	r3, [r3, #24]	@ float
 1791 0544 1A46     		mov	r2, r3
 1792 0546 F96B     		ldr	r1, [r7, #60]	@ float
 1793 0548 B86C     		ldr	r0, [r7, #72]
 1794 054a FFF7FEFF 		bl	plan_compute_profile_parameters
 460:planner.c     ****     pl.previous_nominal_speed = nominal_speed;
 1795              		.loc 1 460 0
 1796 054e 1A4A     		ldr	r2, .L138+24
 1797 0550 FB6B     		ldr	r3, [r7, #60]	@ float
 1798 0552 9361     		str	r3, [r2, #24]	@ float
 461:planner.c     **** 
 462:planner.c     ****     // Update previous path unit_vector and planner position.
 463:planner.c     ****     memcpy(pl.previous_unit_vec, unit_vec, sizeof(unit_vec)); // pl.previous_unit_vec[] = unit_vec[
 1799              		.loc 1 463 0
 1800 0554 184B     		ldr	r3, .L138+24
ARM GAS  C:\Users\barto\AppData\Local\Temp\ccxvLAbr.s 			page 41


 1801 0556 0C33     		adds	r3, r3, #12
 1802 0558 07F11802 		add	r2, r7, #24
 1803 055c 07CA     		ldmia	r2, {r0, r1, r2}
 1804 055e 83E80700 		stmia	r3, {r0, r1, r2}
 464:planner.c     ****     memcpy(pl.position, target_steps, sizeof(target_steps)); // pl.position[] = target_steps[]
 1805              		.loc 1 464 0
 1806 0562 154B     		ldr	r3, .L138+24
 1807 0564 1C46     		mov	r4, r3
 1808 0566 07F13003 		add	r3, r7, #48
 1809 056a 93E80700 		ldmia	r3, {r0, r1, r2}
 1810 056e 84E80700 		stmia	r4, {r0, r1, r2}
 465:planner.c     **** 
 466:planner.c     ****     // New block is all set. Update buffer head and next buffer head indices.
 467:planner.c     ****     block_buffer_head = next_buffer_head;
 1811              		.loc 1 467 0
 1812 0572 174B     		ldr	r3, .L138+48
 1813 0574 1A78     		ldrb	r2, [r3]	@ zero_extendqisi2
 1814 0576 0E4B     		ldr	r3, .L138+16
 1815 0578 1A70     		strb	r2, [r3]
 468:planner.c     ****     next_buffer_head = plan_next_block_index(block_buffer_head);
 1816              		.loc 1 468 0
 1817 057a 0D4B     		ldr	r3, .L138+16
 1818 057c 1B78     		ldrb	r3, [r3]	@ zero_extendqisi2
 1819 057e 1846     		mov	r0, r3
 1820 0580 FFF7FEFF 		bl	plan_next_block_index
 1821 0584 0346     		mov	r3, r0
 1822 0586 1A46     		mov	r2, r3
 1823 0588 114B     		ldr	r3, .L138+48
 1824 058a 1A70     		strb	r2, [r3]
 469:planner.c     **** 
 470:planner.c     ****     // Finish up by recalculating the plan with the new block.
 471:planner.c     ****     planner_recalculate();
 1825              		.loc 1 471 0
 1826 058c FFF7FEFF 		bl	planner_recalculate
 1827              	.L127:
 1828              	.LBE5:
 472:planner.c     ****   }
 473:planner.c     ****   return(PLAN_OK);
 1829              		.loc 1 473 0
 1830 0590 0123     		movs	r3, #1
 1831              	.L128:
 474:planner.c     **** }
 1832              		.loc 1 474 0 discriminator 1
 1833 0592 1846     		mov	r0, r3
 1834 0594 5837     		adds	r7, r7, #88
 1835              		.cfi_def_cfa_offset 16
 1836 0596 BD46     		mov	sp, r7
 1837              		.cfi_def_cfa_register 13
 1838              		@ sp needed
 1839 0598 B0BD     		pop	{r4, r5, r7, pc}
 1840              	.L139:
 1841 059a 00BFAFF3 		.align	3
 1841      0080
 1842              	.L138:
 1843 05a0 E90B21E7 		.word	-417264663
 1844 05a4 FDFFEF3F 		.word	1072693245
 1845 05a8 E90B21E7 		.word	-417264663
ARM GAS  C:\Users\barto\AppData\Local\Temp\ccxvLAbr.s 			page 42


 1846 05ac FDFFEFBF 		.word	-1074790403
 1847 05b0 21080000 		.word	block_buffer_head
 1848 05b4 20080000 		.word	block_buffer_tail
 1849 05b8 24080000 		.word	pl
 1850 05bc 9976967E 		.word	2123789977
 1851 05c0 18000000 		.word	settings+24
 1852 05c4 0000F03F 		.word	1072693248
 1853 05c8 0000E03F 		.word	1071644672
 1854 05cc 00000000 		.word	settings
 1855 05d0 22080000 		.word	next_buffer_head
 1856              		.cfi_endproc
 1857              	.LFE77:
 1858              		.size	plan_buffer_line, .-plan_buffer_line
 1859              		.section	.text.plan_sync_position,"ax",%progbits
 1860              		.align	2
 1861              		.global	plan_sync_position
 1862              		.thumb
 1863              		.thumb_func
 1864              		.type	plan_sync_position, %function
 1865              	plan_sync_position:
 1866              	.LFB78:
 475:planner.c     **** 
 476:planner.c     **** 
 477:planner.c     **** // Reset the planner position vectors. Called by the system abort/initialization routine.
 478:planner.c     **** void plan_sync_position()
 479:planner.c     **** {
 1867              		.loc 1 479 0
 1868              		.cfi_startproc
 1869              		@ args = 0, pretend = 0, frame = 8
 1870              		@ frame_needed = 1, uses_anonymous_args = 0
 1871 0000 80B5     		push	{r7, lr}
 1872              		.cfi_def_cfa_offset 8
 1873              		.cfi_offset 7, -8
 1874              		.cfi_offset 14, -4
 1875 0002 82B0     		sub	sp, sp, #8
 1876              		.cfi_def_cfa_offset 16
 1877 0004 00AF     		add	r7, sp, #0
 1878              		.cfi_def_cfa_register 7
 480:planner.c     ****   // TODO: For motor configurations not in the same coordinate frame as the machine position,
 481:planner.c     ****   // this function needs to be updated to accomodate the difference.
 482:planner.c     ****   uint8_t idx;
 483:planner.c     ****   for (idx=0; idx<N_AXIS; idx++) {
 1879              		.loc 1 483 0
 1880 0006 0023     		movs	r3, #0
 1881 0008 FB71     		strb	r3, [r7, #7]
 1882 000a 1EE0     		b	.L141
 1883              	.L145:
 484:planner.c     ****     #ifdef COREXY
 485:planner.c     ****       if (idx==X_AXIS) {
 1884              		.loc 1 485 0
 1885 000c FB79     		ldrb	r3, [r7, #7]	@ zero_extendqisi2
 1886 000e 002B     		cmp	r3, #0
 1887 0010 06D1     		bne	.L142
 486:planner.c     ****         pl.position[X_AXIS] = system_convert_corexy_to_x_axis_steps(sys_position);
 1888              		.loc 1 486 0
 1889 0012 1148     		ldr	r0, .L146
 1890 0014 FFF7FEFF 		bl	system_convert_corexy_to_x_axis_steps
ARM GAS  C:\Users\barto\AppData\Local\Temp\ccxvLAbr.s 			page 43


 1891 0018 0246     		mov	r2, r0
 1892 001a 104B     		ldr	r3, .L146+4
 1893 001c 1A60     		str	r2, [r3]
 1894 001e 11E0     		b	.L143
 1895              	.L142:
 487:planner.c     ****       } else if (idx==Y_AXIS) {
 1896              		.loc 1 487 0
 1897 0020 FB79     		ldrb	r3, [r7, #7]	@ zero_extendqisi2
 1898 0022 012B     		cmp	r3, #1
 1899 0024 06D1     		bne	.L144
 488:planner.c     ****         pl.position[Y_AXIS] = system_convert_corexy_to_y_axis_steps(sys_position);
 1900              		.loc 1 488 0
 1901 0026 0C48     		ldr	r0, .L146
 1902 0028 FFF7FEFF 		bl	system_convert_corexy_to_y_axis_steps
 1903 002c 0246     		mov	r2, r0
 1904 002e 0B4B     		ldr	r3, .L146+4
 1905 0030 5A60     		str	r2, [r3, #4]
 1906 0032 07E0     		b	.L143
 1907              	.L144:
 489:planner.c     ****       } else {
 490:planner.c     ****         pl.position[idx] = sys_position[idx];
 1908              		.loc 1 490 0
 1909 0034 FB79     		ldrb	r3, [r7, #7]	@ zero_extendqisi2
 1910 0036 FA79     		ldrb	r2, [r7, #7]	@ zero_extendqisi2
 1911 0038 0749     		ldr	r1, .L146
 1912 003a 51F82220 		ldr	r2, [r1, r2, lsl #2]
 1913 003e 0749     		ldr	r1, .L146+4
 1914 0040 41F82320 		str	r2, [r1, r3, lsl #2]
 1915              	.L143:
 483:planner.c     ****     #ifdef COREXY
 1916              		.loc 1 483 0 discriminator 2
 1917 0044 FB79     		ldrb	r3, [r7, #7]	@ zero_extendqisi2
 1918 0046 0133     		adds	r3, r3, #1
 1919 0048 FB71     		strb	r3, [r7, #7]
 1920              	.L141:
 483:planner.c     ****     #ifdef COREXY
 1921              		.loc 1 483 0 is_stmt 0 discriminator 1
 1922 004a FB79     		ldrb	r3, [r7, #7]	@ zero_extendqisi2
 1923 004c 022B     		cmp	r3, #2
 1924 004e DDD9     		bls	.L145
 491:planner.c     ****       }
 492:planner.c     ****     #else
 493:planner.c     ****       pl.position[idx] = sys_position[idx];
 494:planner.c     ****     #endif
 495:planner.c     ****   }
 496:planner.c     **** }
 1925              		.loc 1 496 0 is_stmt 1
 1926 0050 00BF     		nop
 1927 0052 0837     		adds	r7, r7, #8
 1928              		.cfi_def_cfa_offset 8
 1929 0054 BD46     		mov	sp, r7
 1930              		.cfi_def_cfa_register 13
 1931              		@ sp needed
 1932 0056 80BD     		pop	{r7, pc}
 1933              	.L147:
 1934              		.align	2
 1935              	.L146:
ARM GAS  C:\Users\barto\AppData\Local\Temp\ccxvLAbr.s 			page 44


 1936 0058 00000000 		.word	sys_position
 1937 005c 24080000 		.word	pl
 1938              		.cfi_endproc
 1939              	.LFE78:
 1940              		.size	plan_sync_position, .-plan_sync_position
 1941              		.section	.text.plan_get_block_buffer_available,"ax",%progbits
 1942              		.align	2
 1943              		.global	plan_get_block_buffer_available
 1944              		.thumb
 1945              		.thumb_func
 1946              		.type	plan_get_block_buffer_available, %function
 1947              	plan_get_block_buffer_available:
 1948              	.LFB79:
 497:planner.c     **** 
 498:planner.c     **** 
 499:planner.c     **** // Returns the number of available blocks are in the planner buffer.
 500:planner.c     **** uint8_t plan_get_block_buffer_available()
 501:planner.c     **** {
 1949              		.loc 1 501 0
 1950              		.cfi_startproc
 1951              		@ args = 0, pretend = 0, frame = 0
 1952              		@ frame_needed = 1, uses_anonymous_args = 0
 1953              		@ link register save eliminated.
 1954 0000 80B4     		push	{r7}
 1955              		.cfi_def_cfa_offset 4
 1956              		.cfi_offset 7, -4
 1957 0002 00AF     		add	r7, sp, #0
 1958              		.cfi_def_cfa_register 7
 502:planner.c     ****   if (block_buffer_head >= block_buffer_tail) { return((BLOCK_BUFFER_SIZE-1)-(block_buffer_head-blo
 1959              		.loc 1 502 0
 1960 0004 0D4B     		ldr	r3, .L151
 1961 0006 1A78     		ldrb	r2, [r3]	@ zero_extendqisi2
 1962 0008 0D4B     		ldr	r3, .L151+4
 1963 000a 1B78     		ldrb	r3, [r3]	@ zero_extendqisi2
 1964 000c 9A42     		cmp	r2, r3
 1965 000e 08D3     		bcc	.L149
 1966              		.loc 1 502 0 is_stmt 0 discriminator 1
 1967 0010 0B4B     		ldr	r3, .L151+4
 1968 0012 1A78     		ldrb	r2, [r3]	@ zero_extendqisi2
 1969 0014 094B     		ldr	r3, .L151
 1970 0016 1B78     		ldrb	r3, [r3]	@ zero_extendqisi2
 1971 0018 D31A     		subs	r3, r2, r3
 1972 001a DBB2     		uxtb	r3, r3
 1973 001c 2733     		adds	r3, r3, #39
 1974 001e DBB2     		uxtb	r3, r3
 1975 0020 07E0     		b	.L150
 1976              	.L149:
 503:planner.c     ****   return((block_buffer_tail-block_buffer_head-1));
 1977              		.loc 1 503 0 is_stmt 1
 1978 0022 074B     		ldr	r3, .L151+4
 1979 0024 1A78     		ldrb	r2, [r3]	@ zero_extendqisi2
 1980 0026 054B     		ldr	r3, .L151
 1981 0028 1B78     		ldrb	r3, [r3]	@ zero_extendqisi2
 1982 002a D31A     		subs	r3, r2, r3
 1983 002c DBB2     		uxtb	r3, r3
 1984 002e 013B     		subs	r3, r3, #1
 1985 0030 DBB2     		uxtb	r3, r3
ARM GAS  C:\Users\barto\AppData\Local\Temp\ccxvLAbr.s 			page 45


 1986              	.L150:
 504:planner.c     **** }
 1987              		.loc 1 504 0
 1988 0032 1846     		mov	r0, r3
 1989 0034 BD46     		mov	sp, r7
 1990              		.cfi_def_cfa_register 13
 1991              		@ sp needed
 1992 0036 80BC     		pop	{r7}
 1993              		.cfi_restore 7
 1994              		.cfi_def_cfa_offset 0
 1995 0038 7047     		bx	lr
 1996              	.L152:
 1997 003a 00BF     		.align	2
 1998              	.L151:
 1999 003c 21080000 		.word	block_buffer_head
 2000 0040 20080000 		.word	block_buffer_tail
 2001              		.cfi_endproc
 2002              	.LFE79:
 2003              		.size	plan_get_block_buffer_available, .-plan_get_block_buffer_available
 2004              		.section	.text.plan_get_block_buffer_count,"ax",%progbits
 2005              		.align	2
 2006              		.global	plan_get_block_buffer_count
 2007              		.thumb
 2008              		.thumb_func
 2009              		.type	plan_get_block_buffer_count, %function
 2010              	plan_get_block_buffer_count:
 2011              	.LFB80:
 505:planner.c     **** 
 506:planner.c     **** 
 507:planner.c     **** // Returns the number of active blocks are in the planner buffer.
 508:planner.c     **** // NOTE: Deprecated. Not used unless classic status reports are enabled in config.h
 509:planner.c     **** uint8_t plan_get_block_buffer_count()
 510:planner.c     **** {
 2012              		.loc 1 510 0
 2013              		.cfi_startproc
 2014              		@ args = 0, pretend = 0, frame = 0
 2015              		@ frame_needed = 1, uses_anonymous_args = 0
 2016              		@ link register save eliminated.
 2017 0000 80B4     		push	{r7}
 2018              		.cfi_def_cfa_offset 4
 2019              		.cfi_offset 7, -4
 2020 0002 00AF     		add	r7, sp, #0
 2021              		.cfi_def_cfa_register 7
 511:planner.c     ****   if (block_buffer_head >= block_buffer_tail) { return(block_buffer_head-block_buffer_tail); }
 2022              		.loc 1 511 0
 2023 0004 0C4B     		ldr	r3, .L156
 2024 0006 1A78     		ldrb	r2, [r3]	@ zero_extendqisi2
 2025 0008 0C4B     		ldr	r3, .L156+4
 2026 000a 1B78     		ldrb	r3, [r3]	@ zero_extendqisi2
 2027 000c 9A42     		cmp	r2, r3
 2028 000e 06D3     		bcc	.L154
 2029              		.loc 1 511 0 is_stmt 0 discriminator 1
 2030 0010 094B     		ldr	r3, .L156
 2031 0012 1A78     		ldrb	r2, [r3]	@ zero_extendqisi2
 2032 0014 094B     		ldr	r3, .L156+4
 2033 0016 1B78     		ldrb	r3, [r3]	@ zero_extendqisi2
 2034 0018 D31A     		subs	r3, r2, r3
ARM GAS  C:\Users\barto\AppData\Local\Temp\ccxvLAbr.s 			page 46


 2035 001a DBB2     		uxtb	r3, r3
 2036 001c 07E0     		b	.L155
 2037              	.L154:
 512:planner.c     ****   return(BLOCK_BUFFER_SIZE - (block_buffer_tail-block_buffer_head));
 2038              		.loc 1 512 0 is_stmt 1
 2039 001e 064B     		ldr	r3, .L156
 2040 0020 1A78     		ldrb	r2, [r3]	@ zero_extendqisi2
 2041 0022 064B     		ldr	r3, .L156+4
 2042 0024 1B78     		ldrb	r3, [r3]	@ zero_extendqisi2
 2043 0026 D31A     		subs	r3, r2, r3
 2044 0028 DBB2     		uxtb	r3, r3
 2045 002a 2833     		adds	r3, r3, #40
 2046 002c DBB2     		uxtb	r3, r3
 2047              	.L155:
 513:planner.c     **** }
 2048              		.loc 1 513 0
 2049 002e 1846     		mov	r0, r3
 2050 0030 BD46     		mov	sp, r7
 2051              		.cfi_def_cfa_register 13
 2052              		@ sp needed
 2053 0032 80BC     		pop	{r7}
 2054              		.cfi_restore 7
 2055              		.cfi_def_cfa_offset 0
 2056 0034 7047     		bx	lr
 2057              	.L157:
 2058 0036 00BF     		.align	2
 2059              	.L156:
 2060 0038 21080000 		.word	block_buffer_head
 2061 003c 20080000 		.word	block_buffer_tail
 2062              		.cfi_endproc
 2063              	.LFE80:
 2064              		.size	plan_get_block_buffer_count, .-plan_get_block_buffer_count
 2065              		.section	.text.plan_cycle_reinitialize,"ax",%progbits
 2066              		.align	2
 2067              		.global	plan_cycle_reinitialize
 2068              		.thumb
 2069              		.thumb_func
 2070              		.type	plan_cycle_reinitialize, %function
 2071              	plan_cycle_reinitialize:
 2072              	.LFB81:
 514:planner.c     **** 
 515:planner.c     **** 
 516:planner.c     **** // Re-initialize buffer plan with a partially completed block, assumed to exist at the buffer tail.
 517:planner.c     **** // Called after a steppers have come to a complete stop for a feed hold and the cycle is stopped.
 518:planner.c     **** void plan_cycle_reinitialize()
 519:planner.c     **** {
 2073              		.loc 1 519 0
 2074              		.cfi_startproc
 2075              		@ args = 0, pretend = 0, frame = 0
 2076              		@ frame_needed = 1, uses_anonymous_args = 0
 2077 0000 80B5     		push	{r7, lr}
 2078              		.cfi_def_cfa_offset 8
 2079              		.cfi_offset 7, -8
 2080              		.cfi_offset 14, -4
 2081 0002 00AF     		add	r7, sp, #0
 2082              		.cfi_def_cfa_register 7
 520:planner.c     ****   // Re-plan from a complete stop. Reset planner entry speeds and buffer planned pointer.
ARM GAS  C:\Users\barto\AppData\Local\Temp\ccxvLAbr.s 			page 47


 521:planner.c     ****   st_update_plan_block_parameters();
 2083              		.loc 1 521 0
 2084 0004 FFF7FEFF 		bl	st_update_plan_block_parameters
 522:planner.c     ****   block_buffer_planned = block_buffer_tail;
 2085              		.loc 1 522 0
 2086 0008 034B     		ldr	r3, .L159
 2087 000a 1A78     		ldrb	r2, [r3]	@ zero_extendqisi2
 2088 000c 034B     		ldr	r3, .L159+4
 2089 000e 1A70     		strb	r2, [r3]
 523:planner.c     ****   planner_recalculate();
 2090              		.loc 1 523 0
 2091 0010 FFF7FEFF 		bl	planner_recalculate
 524:planner.c     **** }
 2092              		.loc 1 524 0
 2093 0014 00BF     		nop
 2094 0016 80BD     		pop	{r7, pc}
 2095              	.L160:
 2096              		.align	2
 2097              	.L159:
 2098 0018 20080000 		.word	block_buffer_tail
 2099 001c 23080000 		.word	block_buffer_planned
 2100              		.cfi_endproc
 2101              	.LFE81:
 2102              		.size	plan_cycle_reinitialize, .-plan_cycle_reinitialize
 2103              		.text
 2104              	.Letext0:
 2105              		.file 2 "c:\\program files (x86)\\cypress\\psoc creator\\4.2\\psoc creator\\import\\gnu\\arm\\5.4.
 2106              		.file 3 "c:\\program files (x86)\\cypress\\psoc creator\\4.2\\psoc creator\\import\\gnu\\arm\\5.4.
 2107              		.file 4 "settings.h"
 2108              		.file 5 "system.h"
 2109              		.file 6 "planner.h"
 2110              		.file 7 "Generated_Source\\PSoC5/core_cm3.h"