ARM GAS  C:\Users\barto\AppData\Local\Temp\cctvgFCF.s 			page 1


   1              		.syntax unified
   2              		.cpu cortex-m3
   3              		.fpu softvfp
   4              		.eabi_attribute 20, 1
   5              		.eabi_attribute 21, 1
   6              		.eabi_attribute 23, 3
   7              		.eabi_attribute 24, 1
   8              		.eabi_attribute 25, 1
   9              		.eabi_attribute 26, 1
  10              		.eabi_attribute 30, 6
  11              		.eabi_attribute 34, 1
  12              		.eabi_attribute 18, 4
  13              		.thumb
  14              		.syntax unified
  15              		.file	"print.c"
  16              		.text
  17              	.Ltext0:
  18              		.cfi_sections	.debug_frame
  19              		.comm	sys_position,12,4
  20              		.comm	sys_probe_position,12,4
  21              		.comm	sys_probe_state,1,1
  22              		.comm	sys_rt_exec_state,1,1
  23              		.comm	sys_rt_exec_alarm,1,1
  24              		.comm	sys_rt_exec_motion_override,1,1
  25              		.comm	sys_rt_exec_accessory_override,1,1
  26              		.section	.text.printString,"ax",%progbits
  27              		.align	2
  28              		.global	printString
  29              		.thumb
  30              		.thumb_func
  31              		.type	printString, %function
  32              	printString:
  33              	.LFB64:
  34              		.file 1 "print.c"
   1:print.c       **** /*
   2:print.c       ****   print.c - Functions for formatting output strings
   3:print.c       ****   Part of Grbl
   4:print.c       **** 
   5:print.c       ****   Copyright (c) 2011-2015 Sungeun K. Jeon
   6:print.c       ****   Copyright (c) 2009-2011 Simen Svale Skogsrud
   7:print.c       ****       Updated For PSOC BJD 2017
   8:print.c       **** 
   9:print.c       ****   Grbl is free software: you can redistribute it and/or modify
  10:print.c       ****   it under the terms of the GNU General Public License as published by
  11:print.c       ****   the Free Software Foundation, either version 3 of the License, or
  12:print.c       ****   (at your option) any later version.
  13:print.c       **** 
  14:print.c       ****   Grbl is distributed in the hope that it will be useful,
  15:print.c       ****   but WITHOUT ANY WARRANTY; without even the implied warranty of
  16:print.c       ****   MERCHANTABILITY or FITNESS FOR A PARTICULAR PURPOSE.  See the
  17:print.c       ****   GNU General Public License for more details.
  18:print.c       **** 
  19:print.c       ****   You should have received a copy of the GNU General Public License
  20:print.c       ****   along with Grbl.  If not, see <http://www.gnu.org/licenses/>.
  21:print.c       **** */
  22:print.c       **** #include "grbl.h"
  23:print.c       **** 
ARM GAS  C:\Users\barto\AppData\Local\Temp\cctvgFCF.s 			page 2


  24:print.c       **** 
  25:print.c       **** 
  26:print.c       **** //PSOC Map these functions to PSoC
  27:print.c       **** void printString(const char *s)
  28:print.c       **** { 
  35              		.loc 1 28 0
  36              		.cfi_startproc
  37              		@ args = 0, pretend = 0, frame = 8
  38              		@ frame_needed = 1, uses_anonymous_args = 0
  39 0000 80B5     		push	{r7, lr}
  40              		.cfi_def_cfa_offset 8
  41              		.cfi_offset 7, -8
  42              		.cfi_offset 14, -4
  43 0002 82B0     		sub	sp, sp, #8
  44              		.cfi_def_cfa_offset 16
  45 0004 00AF     		add	r7, sp, #0
  46              		.cfi_def_cfa_register 7
  47 0006 7860     		str	r0, [r7, #4]
  29:print.c       ****   usb_uart_PutString(s);
  48              		.loc 1 29 0
  49 0008 7868     		ldr	r0, [r7, #4]
  50 000a FFF7FEFF 		bl	usb_uart_PutString
  30:print.c       **** }
  51              		.loc 1 30 0
  52 000e 00BF     		nop
  53 0010 0837     		adds	r7, r7, #8
  54              		.cfi_def_cfa_offset 8
  55 0012 BD46     		mov	sp, r7
  56              		.cfi_def_cfa_register 13
  57              		@ sp needed
  58 0014 80BD     		pop	{r7, pc}
  59              		.cfi_endproc
  60              	.LFE64:
  61              		.size	printString, .-printString
  62 0016 00BF     		.section	.text.printPgmString,"ax",%progbits
  63              		.align	2
  64              		.global	printPgmString
  65              		.thumb
  66              		.thumb_func
  67              		.type	printPgmString, %function
  68              	printPgmString:
  69              	.LFB65:
  31:print.c       **** 
  32:print.c       **** // Print a string stored in PGM-memory
  33:print.c       **** void printPgmString(const char *s)
  34:print.c       **** { 
  70              		.loc 1 34 0
  71              		.cfi_startproc
  72              		@ args = 0, pretend = 0, frame = 8
  73              		@ frame_needed = 1, uses_anonymous_args = 0
  74 0000 80B5     		push	{r7, lr}
  75              		.cfi_def_cfa_offset 8
  76              		.cfi_offset 7, -8
  77              		.cfi_offset 14, -4
  78 0002 82B0     		sub	sp, sp, #8
  79              		.cfi_def_cfa_offset 16
  80 0004 00AF     		add	r7, sp, #0
ARM GAS  C:\Users\barto\AppData\Local\Temp\cctvgFCF.s 			page 3


  81              		.cfi_def_cfa_register 7
  82 0006 7860     		str	r0, [r7, #4]
  35:print.c       ****   usb_uart_PutString(s);
  83              		.loc 1 35 0
  84 0008 7868     		ldr	r0, [r7, #4]
  85 000a FFF7FEFF 		bl	usb_uart_PutString
  36:print.c       **** }
  86              		.loc 1 36 0
  87 000e 00BF     		nop
  88 0010 0837     		adds	r7, r7, #8
  89              		.cfi_def_cfa_offset 8
  90 0012 BD46     		mov	sp, r7
  91              		.cfi_def_cfa_register 13
  92              		@ sp needed
  93 0014 80BD     		pop	{r7, pc}
  94              		.cfi_endproc
  95              	.LFE65:
  96              		.size	printPgmString, .-printPgmString
  97 0016 00BF     		.section	.text.print_uint8_base10,"ax",%progbits
  98              		.align	2
  99              		.global	print_uint8_base10
 100              		.thumb
 101              		.thumb_func
 102              		.type	print_uint8_base10, %function
 103              	print_uint8_base10:
 104              	.LFB66:
  37:print.c       **** 
  38:print.c       **** // Prints an uint8 variable in base 10.
  39:print.c       **** void print_uint8_base10(uint8_t n)
  40:print.c       **** {
 105              		.loc 1 40 0
 106              		.cfi_startproc
 107              		@ args = 0, pretend = 0, frame = 16
 108              		@ frame_needed = 1, uses_anonymous_args = 0
 109 0000 80B5     		push	{r7, lr}
 110              		.cfi_def_cfa_offset 8
 111              		.cfi_offset 7, -8
 112              		.cfi_offset 14, -4
 113 0002 84B0     		sub	sp, sp, #16
 114              		.cfi_def_cfa_offset 24
 115 0004 00AF     		add	r7, sp, #0
 116              		.cfi_def_cfa_register 7
 117 0006 0346     		mov	r3, r0
 118 0008 FB71     		strb	r3, [r7, #7]
  41:print.c       ****   uint8_t digit_a = 0;
 119              		.loc 1 41 0
 120 000a 0023     		movs	r3, #0
 121 000c FB73     		strb	r3, [r7, #15]
  42:print.c       ****   uint8_t digit_b = 0;
 122              		.loc 1 42 0
 123 000e 0023     		movs	r3, #0
 124 0010 BB73     		strb	r3, [r7, #14]
  43:print.c       ****   if (n >= 100) { // 100-255
 125              		.loc 1 43 0
 126 0012 FB79     		ldrb	r3, [r7, #7]	@ zero_extendqisi2
 127 0014 632B     		cmp	r3, #99
 128 0016 12D9     		bls	.L4
ARM GAS  C:\Users\barto\AppData\Local\Temp\cctvgFCF.s 			page 4


  44:print.c       ****     digit_a = '0' + n % 10;
 129              		.loc 1 44 0
 130 0018 FA79     		ldrb	r2, [r7, #7]	@ zero_extendqisi2
 131 001a 204B     		ldr	r3, .L9
 132 001c A3FB0213 		umull	r1, r3, r3, r2
 133 0020 D908     		lsrs	r1, r3, #3
 134 0022 0B46     		mov	r3, r1
 135 0024 9B00     		lsls	r3, r3, #2
 136 0026 0B44     		add	r3, r3, r1
 137 0028 5B00     		lsls	r3, r3, #1
 138 002a D31A     		subs	r3, r2, r3
 139 002c DBB2     		uxtb	r3, r3
 140 002e 3033     		adds	r3, r3, #48
 141 0030 FB73     		strb	r3, [r7, #15]
  45:print.c       ****     n /= 10;
 142              		.loc 1 45 0
 143 0032 FB79     		ldrb	r3, [r7, #7]	@ zero_extendqisi2
 144 0034 194A     		ldr	r2, .L9
 145 0036 A2FB0323 		umull	r2, r3, r2, r3
 146 003a DB08     		lsrs	r3, r3, #3
 147 003c FB71     		strb	r3, [r7, #7]
 148              	.L4:
  46:print.c       ****   }
  47:print.c       ****   if (n >= 10) { // 10-99
 149              		.loc 1 47 0
 150 003e FB79     		ldrb	r3, [r7, #7]	@ zero_extendqisi2
 151 0040 092B     		cmp	r3, #9
 152 0042 12D9     		bls	.L5
  48:print.c       ****     digit_b = '0' + n % 10;
 153              		.loc 1 48 0
 154 0044 FA79     		ldrb	r2, [r7, #7]	@ zero_extendqisi2
 155 0046 154B     		ldr	r3, .L9
 156 0048 A3FB0213 		umull	r1, r3, r3, r2
 157 004c D908     		lsrs	r1, r3, #3
 158 004e 0B46     		mov	r3, r1
 159 0050 9B00     		lsls	r3, r3, #2
 160 0052 0B44     		add	r3, r3, r1
 161 0054 5B00     		lsls	r3, r3, #1
 162 0056 D31A     		subs	r3, r2, r3
 163 0058 DBB2     		uxtb	r3, r3
 164 005a 3033     		adds	r3, r3, #48
 165 005c BB73     		strb	r3, [r7, #14]
  49:print.c       ****     n /= 10;
 166              		.loc 1 49 0
 167 005e FB79     		ldrb	r3, [r7, #7]	@ zero_extendqisi2
 168 0060 0E4A     		ldr	r2, .L9
 169 0062 A2FB0323 		umull	r2, r3, r2, r3
 170 0066 DB08     		lsrs	r3, r3, #3
 171 0068 FB71     		strb	r3, [r7, #7]
 172              	.L5:
  50:print.c       ****   }
  51:print.c       ****   serial_write('0' + n);
 173              		.loc 1 51 0
 174 006a FB79     		ldrb	r3, [r7, #7]
 175 006c 3033     		adds	r3, r3, #48
 176 006e DBB2     		uxtb	r3, r3
 177 0070 1846     		mov	r0, r3
ARM GAS  C:\Users\barto\AppData\Local\Temp\cctvgFCF.s 			page 5


 178 0072 FFF7FEFF 		bl	serial_write
  52:print.c       ****   if (digit_b) { serial_write(digit_b); }
 179              		.loc 1 52 0
 180 0076 BB7B     		ldrb	r3, [r7, #14]	@ zero_extendqisi2
 181 0078 002B     		cmp	r3, #0
 182 007a 03D0     		beq	.L6
 183              		.loc 1 52 0 is_stmt 0 discriminator 1
 184 007c BB7B     		ldrb	r3, [r7, #14]	@ zero_extendqisi2
 185 007e 1846     		mov	r0, r3
 186 0080 FFF7FEFF 		bl	serial_write
 187              	.L6:
  53:print.c       ****   if (digit_a) { serial_write(digit_a); }
 188              		.loc 1 53 0 is_stmt 1
 189 0084 FB7B     		ldrb	r3, [r7, #15]	@ zero_extendqisi2
 190 0086 002B     		cmp	r3, #0
 191 0088 03D0     		beq	.L8
 192              		.loc 1 53 0 is_stmt 0 discriminator 1
 193 008a FB7B     		ldrb	r3, [r7, #15]	@ zero_extendqisi2
 194 008c 1846     		mov	r0, r3
 195 008e FFF7FEFF 		bl	serial_write
 196              	.L8:
  54:print.c       **** }
 197              		.loc 1 54 0 is_stmt 1
 198 0092 00BF     		nop
 199 0094 1037     		adds	r7, r7, #16
 200              		.cfi_def_cfa_offset 8
 201 0096 BD46     		mov	sp, r7
 202              		.cfi_def_cfa_register 13
 203              		@ sp needed
 204 0098 80BD     		pop	{r7, pc}
 205              	.L10:
 206 009a 00BF     		.align	2
 207              	.L9:
 208 009c CDCCCCCC 		.word	-858993459
 209              		.cfi_endproc
 210              	.LFE66:
 211              		.size	print_uint8_base10, .-print_uint8_base10
 212              		.section	.text.print_uint8_base2_ndigit,"ax",%progbits
 213              		.align	2
 214              		.global	print_uint8_base2_ndigit
 215              		.thumb
 216              		.thumb_func
 217              		.type	print_uint8_base2_ndigit, %function
 218              	print_uint8_base2_ndigit:
 219              	.LFB67:
  55:print.c       **** 
  56:print.c       **** 
  57:print.c       **** // Prints an uint8 variable in base 2 with desired number of desired digits.
  58:print.c       **** void print_uint8_base2_ndigit(uint8_t n, uint8_t digits) {
 220              		.loc 1 58 0
 221              		.cfi_startproc
 222              		@ args = 0, pretend = 0, frame = 24
 223              		@ frame_needed = 1, uses_anonymous_args = 0
 224 0000 2DE9F041 		push	{r4, r5, r6, r7, r8, lr}
 225              		.cfi_def_cfa_offset 24
 226              		.cfi_offset 4, -24
 227              		.cfi_offset 5, -20
ARM GAS  C:\Users\barto\AppData\Local\Temp\cctvgFCF.s 			page 6


 228              		.cfi_offset 6, -16
 229              		.cfi_offset 7, -12
 230              		.cfi_offset 8, -8
 231              		.cfi_offset 14, -4
 232 0004 86B0     		sub	sp, sp, #24
 233              		.cfi_def_cfa_offset 48
 234 0006 00AF     		add	r7, sp, #0
 235              		.cfi_def_cfa_register 7
 236 0008 0246     		mov	r2, r0
 237 000a FA71     		strb	r2, [r7, #7]
 238 000c 0A46     		mov	r2, r1
 239 000e BA71     		strb	r2, [r7, #6]
 240              		.loc 1 58 0
 241 0010 6A46     		mov	r2, sp
 242 0012 9046     		mov	r8, r2
  59:print.c       ****   unsigned char buf[digits];
 243              		.loc 1 59 0
 244 0014 B879     		ldrb	r0, [r7, #6]	@ zero_extendqisi2
 245 0016 0246     		mov	r2, r0
 246 0018 013A     		subs	r2, r2, #1
 247 001a 3A61     		str	r2, [r7, #16]
 248 001c C1B2     		uxtb	r1, r0
 249 001e 4FF00002 		mov	r2, #0
 250 0022 D600     		lsls	r6, r2, #3
 251 0024 46EA5176 		orr	r6, r6, r1, lsr #29
 252 0028 CD00     		lsls	r5, r1, #3
 253 002a C1B2     		uxtb	r1, r0
 254 002c 4FF00002 		mov	r2, #0
 255 0030 D400     		lsls	r4, r2, #3
 256 0032 44EA5174 		orr	r4, r4, r1, lsr #29
 257 0036 CB00     		lsls	r3, r1, #3
 258 0038 0346     		mov	r3, r0
 259 003a 0733     		adds	r3, r3, #7
 260 003c DB08     		lsrs	r3, r3, #3
 261 003e DB00     		lsls	r3, r3, #3
 262 0040 ADEB030D 		sub	sp, sp, r3
 263 0044 6B46     		mov	r3, sp
 264 0046 0033     		adds	r3, r3, #0
 265 0048 FB60     		str	r3, [r7, #12]
  60:print.c       ****   uint8_t i = 0;
 266              		.loc 1 60 0
 267 004a 0023     		movs	r3, #0
 268 004c FB75     		strb	r3, [r7, #23]
  61:print.c       **** 
  62:print.c       ****   for (; i < digits; i++) {
 269              		.loc 1 62 0
 270 004e 0CE0     		b	.L12
 271              	.L13:
  63:print.c       ****       buf[i] = n % 2 ;
 272              		.loc 1 63 0 discriminator 2
 273 0050 FB7D     		ldrb	r3, [r7, #23]	@ zero_extendqisi2
 274 0052 FA79     		ldrb	r2, [r7, #7]
 275 0054 02F00102 		and	r2, r2, #1
 276 0058 D1B2     		uxtb	r1, r2
 277 005a FA68     		ldr	r2, [r7, #12]
 278 005c D154     		strb	r1, [r2, r3]
  64:print.c       ****       n /= 2;
ARM GAS  C:\Users\barto\AppData\Local\Temp\cctvgFCF.s 			page 7


 279              		.loc 1 64 0 discriminator 2
 280 005e FB79     		ldrb	r3, [r7, #7]	@ zero_extendqisi2
 281 0060 5B08     		lsrs	r3, r3, #1
 282 0062 FB71     		strb	r3, [r7, #7]
  62:print.c       ****       buf[i] = n % 2 ;
 283              		.loc 1 62 0 discriminator 2
 284 0064 FB7D     		ldrb	r3, [r7, #23]	@ zero_extendqisi2
 285 0066 0133     		adds	r3, r3, #1
 286 0068 FB75     		strb	r3, [r7, #23]
 287              	.L12:
  62:print.c       ****       buf[i] = n % 2 ;
 288              		.loc 1 62 0 is_stmt 0 discriminator 1
 289 006a FA7D     		ldrb	r2, [r7, #23]	@ zero_extendqisi2
 290 006c BB79     		ldrb	r3, [r7, #6]	@ zero_extendqisi2
 291 006e 9A42     		cmp	r2, r3
 292 0070 EED3     		bcc	.L13
  65:print.c       ****   }
  66:print.c       **** 
  67:print.c       ****   for (; i > 0; i--)
 293              		.loc 1 67 0 is_stmt 1
 294 0072 0BE0     		b	.L14
 295              	.L15:
  68:print.c       ****       serial_write('0' + buf[i - 1]);
 296              		.loc 1 68 0 discriminator 2
 297 0074 FB7D     		ldrb	r3, [r7, #23]	@ zero_extendqisi2
 298 0076 013B     		subs	r3, r3, #1
 299 0078 FA68     		ldr	r2, [r7, #12]
 300 007a D35C     		ldrb	r3, [r2, r3]	@ zero_extendqisi2
 301 007c 3033     		adds	r3, r3, #48
 302 007e DBB2     		uxtb	r3, r3
 303 0080 1846     		mov	r0, r3
 304 0082 FFF7FEFF 		bl	serial_write
  67:print.c       ****       serial_write('0' + buf[i - 1]);
 305              		.loc 1 67 0 discriminator 2
 306 0086 FB7D     		ldrb	r3, [r7, #23]	@ zero_extendqisi2
 307 0088 013B     		subs	r3, r3, #1
 308 008a FB75     		strb	r3, [r7, #23]
 309              	.L14:
  67:print.c       ****       serial_write('0' + buf[i - 1]);
 310              		.loc 1 67 0 is_stmt 0 discriminator 1
 311 008c FB7D     		ldrb	r3, [r7, #23]	@ zero_extendqisi2
 312 008e 002B     		cmp	r3, #0
 313 0090 F0D1     		bne	.L15
 314 0092 C546     		mov	sp, r8
  69:print.c       **** }
 315              		.loc 1 69 0 is_stmt 1
 316 0094 00BF     		nop
 317 0096 1837     		adds	r7, r7, #24
 318              		.cfi_def_cfa_offset 24
 319 0098 BD46     		mov	sp, r7
 320              		.cfi_def_cfa_register 13
 321              		@ sp needed
 322 009a BDE8F081 		pop	{r4, r5, r6, r7, r8, pc}
 323              		.cfi_endproc
 324              	.LFE67:
 325              		.size	print_uint8_base2_ndigit, .-print_uint8_base2_ndigit
 326 009e 00BF     		.section	.text.print_uint32_base10,"ax",%progbits
ARM GAS  C:\Users\barto\AppData\Local\Temp\cctvgFCF.s 			page 8


 327              		.align	2
 328              		.global	print_uint32_base10
 329              		.thumb
 330              		.thumb_func
 331              		.type	print_uint32_base10, %function
 332              	print_uint32_base10:
 333              	.LFB68:
  70:print.c       **** 
  71:print.c       **** 
  72:print.c       **** void print_uint32_base10(uint32_t n)
  73:print.c       **** {
 334              		.loc 1 73 0
 335              		.cfi_startproc
 336              		@ args = 0, pretend = 0, frame = 24
 337              		@ frame_needed = 1, uses_anonymous_args = 0
 338 0000 80B5     		push	{r7, lr}
 339              		.cfi_def_cfa_offset 8
 340              		.cfi_offset 7, -8
 341              		.cfi_offset 14, -4
 342 0002 86B0     		sub	sp, sp, #24
 343              		.cfi_def_cfa_offset 32
 344 0004 00AF     		add	r7, sp, #0
 345              		.cfi_def_cfa_register 7
 346 0006 7860     		str	r0, [r7, #4]
  74:print.c       ****   if (n == 0) {
 347              		.loc 1 74 0
 348 0008 7B68     		ldr	r3, [r7, #4]
 349 000a 002B     		cmp	r3, #0
 350 000c 03D1     		bne	.L17
  75:print.c       ****     serial_write('0');
 351              		.loc 1 75 0
 352 000e 3020     		movs	r0, #48
 353 0010 FFF7FEFF 		bl	serial_write
 354 0014 32E0     		b	.L16
 355              	.L17:
  76:print.c       ****     return;
  77:print.c       ****   }
  78:print.c       **** 
  79:print.c       ****   unsigned char buf[10];
  80:print.c       ****   uint8_t i = 0;
 356              		.loc 1 80 0
 357 0016 0023     		movs	r3, #0
 358 0018 FB75     		strb	r3, [r7, #23]
  81:print.c       **** 
  82:print.c       ****   while (n > 0) {
 359              		.loc 1 82 0
 360 001a 19E0     		b	.L19
 361              	.L20:
  83:print.c       ****     buf[i++] = n % 10;
 362              		.loc 1 83 0
 363 001c FB7D     		ldrb	r3, [r7, #23]	@ zero_extendqisi2
 364 001e 5A1C     		adds	r2, r3, #1
 365 0020 FA75     		strb	r2, [r7, #23]
 366 0022 1846     		mov	r0, r3
 367 0024 7968     		ldr	r1, [r7, #4]
 368 0026 174B     		ldr	r3, .L23
 369 0028 A3FB0123 		umull	r2, r3, r3, r1
ARM GAS  C:\Users\barto\AppData\Local\Temp\cctvgFCF.s 			page 9


 370 002c DA08     		lsrs	r2, r3, #3
 371 002e 1346     		mov	r3, r2
 372 0030 9B00     		lsls	r3, r3, #2
 373 0032 1344     		add	r3, r3, r2
 374 0034 5B00     		lsls	r3, r3, #1
 375 0036 CA1A     		subs	r2, r1, r3
 376 0038 D2B2     		uxtb	r2, r2
 377 003a 07F11803 		add	r3, r7, #24
 378 003e 0344     		add	r3, r3, r0
 379 0040 03F80C2C 		strb	r2, [r3, #-12]
  84:print.c       ****     n /= 10;
 380              		.loc 1 84 0
 381 0044 7B68     		ldr	r3, [r7, #4]
 382 0046 0F4A     		ldr	r2, .L23
 383 0048 A2FB0323 		umull	r2, r3, r2, r3
 384 004c DB08     		lsrs	r3, r3, #3
 385 004e 7B60     		str	r3, [r7, #4]
 386              	.L19:
  82:print.c       ****     buf[i++] = n % 10;
 387              		.loc 1 82 0
 388 0050 7B68     		ldr	r3, [r7, #4]
 389 0052 002B     		cmp	r3, #0
 390 0054 E2D1     		bne	.L20
  85:print.c       ****   }
  86:print.c       **** 
  87:print.c       ****   for (; i > 0; i--)
 391              		.loc 1 87 0
 392 0056 0EE0     		b	.L21
 393              	.L22:
  88:print.c       ****     serial_write('0' + buf[i-1]);
 394              		.loc 1 88 0 discriminator 2
 395 0058 FB7D     		ldrb	r3, [r7, #23]	@ zero_extendqisi2
 396 005a 013B     		subs	r3, r3, #1
 397 005c 07F11802 		add	r2, r7, #24
 398 0060 1344     		add	r3, r3, r2
 399 0062 13F80C3C 		ldrb	r3, [r3, #-12]	@ zero_extendqisi2
 400 0066 3033     		adds	r3, r3, #48
 401 0068 DBB2     		uxtb	r3, r3
 402 006a 1846     		mov	r0, r3
 403 006c FFF7FEFF 		bl	serial_write
  87:print.c       ****     serial_write('0' + buf[i-1]);
 404              		.loc 1 87 0 discriminator 2
 405 0070 FB7D     		ldrb	r3, [r7, #23]	@ zero_extendqisi2
 406 0072 013B     		subs	r3, r3, #1
 407 0074 FB75     		strb	r3, [r7, #23]
 408              	.L21:
  87:print.c       ****     serial_write('0' + buf[i-1]);
 409              		.loc 1 87 0 is_stmt 0 discriminator 1
 410 0076 FB7D     		ldrb	r3, [r7, #23]	@ zero_extendqisi2
 411 0078 002B     		cmp	r3, #0
 412 007a EDD1     		bne	.L22
 413              	.L16:
  89:print.c       **** }
 414              		.loc 1 89 0 is_stmt 1
 415 007c 1837     		adds	r7, r7, #24
 416              		.cfi_def_cfa_offset 8
 417 007e BD46     		mov	sp, r7
ARM GAS  C:\Users\barto\AppData\Local\Temp\cctvgFCF.s 			page 10


 418              		.cfi_def_cfa_register 13
 419              		@ sp needed
 420 0080 80BD     		pop	{r7, pc}
 421              	.L24:
 422 0082 00BF     		.align	2
 423              	.L23:
 424 0084 CDCCCCCC 		.word	-858993459
 425              		.cfi_endproc
 426              	.LFE68:
 427              		.size	print_uint32_base10, .-print_uint32_base10
 428              		.section	.text.printInteger,"ax",%progbits
 429              		.align	2
 430              		.global	printInteger
 431              		.thumb
 432              		.thumb_func
 433              		.type	printInteger, %function
 434              	printInteger:
 435              	.LFB69:
  90:print.c       **** 
  91:print.c       **** 
  92:print.c       **** void printInteger(long n)
  93:print.c       **** {
 436              		.loc 1 93 0
 437              		.cfi_startproc
 438              		@ args = 0, pretend = 0, frame = 8
 439              		@ frame_needed = 1, uses_anonymous_args = 0
 440 0000 80B5     		push	{r7, lr}
 441              		.cfi_def_cfa_offset 8
 442              		.cfi_offset 7, -8
 443              		.cfi_offset 14, -4
 444 0002 82B0     		sub	sp, sp, #8
 445              		.cfi_def_cfa_offset 16
 446 0004 00AF     		add	r7, sp, #0
 447              		.cfi_def_cfa_register 7
 448 0006 7860     		str	r0, [r7, #4]
  94:print.c       ****   if (n < 0) {
 449              		.loc 1 94 0
 450 0008 7B68     		ldr	r3, [r7, #4]
 451 000a 002B     		cmp	r3, #0
 452 000c 08DA     		bge	.L26
  95:print.c       ****     serial_write('-');
 453              		.loc 1 95 0
 454 000e 2D20     		movs	r0, #45
 455 0010 FFF7FEFF 		bl	serial_write
  96:print.c       ****     print_uint32_base10(-n);
 456              		.loc 1 96 0
 457 0014 7B68     		ldr	r3, [r7, #4]
 458 0016 5B42     		negs	r3, r3
 459 0018 1846     		mov	r0, r3
 460 001a FFF7FEFF 		bl	print_uint32_base10
  97:print.c       ****   } else {
  98:print.c       ****     print_uint32_base10(n);
  99:print.c       ****   }
 100:print.c       **** }
 461              		.loc 1 100 0
 462 001e 03E0     		b	.L28
 463              	.L26:
ARM GAS  C:\Users\barto\AppData\Local\Temp\cctvgFCF.s 			page 11


  98:print.c       ****   }
 464              		.loc 1 98 0
 465 0020 7B68     		ldr	r3, [r7, #4]
 466 0022 1846     		mov	r0, r3
 467 0024 FFF7FEFF 		bl	print_uint32_base10
 468              	.L28:
 469              		.loc 1 100 0
 470 0028 00BF     		nop
 471 002a 0837     		adds	r7, r7, #8
 472              		.cfi_def_cfa_offset 8
 473 002c BD46     		mov	sp, r7
 474              		.cfi_def_cfa_register 13
 475              		@ sp needed
 476 002e 80BD     		pop	{r7, pc}
 477              		.cfi_endproc
 478              	.LFE69:
 479              		.size	printInteger, .-printInteger
 480              		.global	__aeabi_fcmplt
 481              		.global	__aeabi_fmul
 482              		.global	__aeabi_fadd
 483              		.global	__aeabi_f2iz
 484              		.section	.text.printFloat,"ax",%progbits
 485              		.align	2
 486              		.global	printFloat
 487              		.thumb
 488              		.thumb_func
 489              		.type	printFloat, %function
 490              	printFloat:
 491              	.LFB70:
 101:print.c       **** 
 102:print.c       **** 
 103:print.c       **** // Convert float to string by immediately converting to a long integer, which contains
 104:print.c       **** // more digits than a float. Number of decimal places, which are tracked by a counter,
 105:print.c       **** // may be set by the user. The integer is then efficiently converted to a string.
 106:print.c       **** // NOTE: AVR '%' and '/' integer operations are very efficient. Bitshifting speed-up
 107:print.c       **** // techniques are actually just slightly slower. Found this out the hard way.
 108:print.c       **** void printFloat(float n, uint8_t decimal_places)
 109:print.c       **** {
 492              		.loc 1 109 0
 493              		.cfi_startproc
 494              		@ args = 0, pretend = 0, frame = 32
 495              		@ frame_needed = 1, uses_anonymous_args = 0
 496 0000 80B5     		push	{r7, lr}
 497              		.cfi_def_cfa_offset 8
 498              		.cfi_offset 7, -8
 499              		.cfi_offset 14, -4
 500 0002 88B0     		sub	sp, sp, #32
 501              		.cfi_def_cfa_offset 40
 502 0004 00AF     		add	r7, sp, #0
 503              		.cfi_def_cfa_register 7
 504 0006 7860     		str	r0, [r7, #4]	@ float
 505 0008 0B46     		mov	r3, r1
 506 000a FB70     		strb	r3, [r7, #3]
 110:print.c       ****   if (n < 0) {
 507              		.loc 1 110 0
 508 000c 4FF00001 		mov	r1, #0
 509 0010 7868     		ldr	r0, [r7, #4]	@ float
ARM GAS  C:\Users\barto\AppData\Local\Temp\cctvgFCF.s 			page 12


 510 0012 FFF7FEFF 		bl	__aeabi_fcmplt
 511 0016 0346     		mov	r3, r0
 512 0018 002B     		cmp	r3, #0
 513 001a 06D0     		beq	.L30
 111:print.c       ****     serial_write('-');
 514              		.loc 1 111 0
 515 001c 2D20     		movs	r0, #45
 516 001e FFF7FEFF 		bl	serial_write
 112:print.c       ****     n = -n;
 517              		.loc 1 112 0
 518 0022 7B68     		ldr	r3, [r7, #4]
 519 0024 83F00043 		eor	r3, r3, #-2147483648
 520 0028 7B60     		str	r3, [r7, #4]	@ float
 521              	.L30:
 113:print.c       ****   }
 114:print.c       **** 
 115:print.c       ****   uint8_t decimals = decimal_places;
 522              		.loc 1 115 0
 523 002a FB78     		ldrb	r3, [r7, #3]
 524 002c FB77     		strb	r3, [r7, #31]
 116:print.c       ****   while (decimals >= 2) { // Quickly convert values expected to be E0 to E-4.
 525              		.loc 1 116 0
 526 002e 08E0     		b	.L32
 527              	.L33:
 117:print.c       ****     n *= 100;
 528              		.loc 1 117 0
 529 0030 3C49     		ldr	r1, .L44
 530 0032 7868     		ldr	r0, [r7, #4]	@ float
 531 0034 FFF7FEFF 		bl	__aeabi_fmul
 532 0038 0346     		mov	r3, r0
 533 003a 7B60     		str	r3, [r7, #4]	@ float
 118:print.c       ****     decimals -= 2;
 534              		.loc 1 118 0
 535 003c FB7F     		ldrb	r3, [r7, #31]
 536 003e 023B     		subs	r3, r3, #2
 537 0040 FB77     		strb	r3, [r7, #31]
 538              	.L32:
 116:print.c       ****   while (decimals >= 2) { // Quickly convert values expected to be E0 to E-4.
 539              		.loc 1 116 0
 540 0042 FB7F     		ldrb	r3, [r7, #31]	@ zero_extendqisi2
 541 0044 012B     		cmp	r3, #1
 542 0046 F3D8     		bhi	.L33
 119:print.c       ****   }
 120:print.c       ****   if (decimals) { n *= 10; }
 543              		.loc 1 120 0
 544 0048 FB7F     		ldrb	r3, [r7, #31]	@ zero_extendqisi2
 545 004a 002B     		cmp	r3, #0
 546 004c 05D0     		beq	.L34
 547              		.loc 1 120 0 is_stmt 0 discriminator 1
 548 004e 3649     		ldr	r1, .L44+4
 549 0050 7868     		ldr	r0, [r7, #4]	@ float
 550 0052 FFF7FEFF 		bl	__aeabi_fmul
 551 0056 0346     		mov	r3, r0
 552 0058 7B60     		str	r3, [r7, #4]	@ float
 553              	.L34:
 121:print.c       ****   n += 0.5; // Add rounding factor. Ensures carryover through entire value.
 554              		.loc 1 121 0 is_stmt 1
ARM GAS  C:\Users\barto\AppData\Local\Temp\cctvgFCF.s 			page 13


 555 005a 4FF07C51 		mov	r1, #1056964608
 556 005e 7868     		ldr	r0, [r7, #4]	@ float
 557 0060 FFF7FEFF 		bl	__aeabi_fadd
 558 0064 0346     		mov	r3, r0
 559 0066 7B60     		str	r3, [r7, #4]	@ float
 122:print.c       **** 
 123:print.c       ****   // Generate digits backwards and store in string.
 124:print.c       ****   unsigned char buf[13];
 125:print.c       ****   uint8_t i = 0;
 560              		.loc 1 125 0
 561 0068 0023     		movs	r3, #0
 562 006a BB77     		strb	r3, [r7, #30]
 126:print.c       ****   uint32_t a = (long)n;
 563              		.loc 1 126 0
 564 006c 7868     		ldr	r0, [r7, #4]	@ float
 565 006e FFF7FEFF 		bl	__aeabi_f2iz
 566 0072 0346     		mov	r3, r0
 567 0074 BB61     		str	r3, [r7, #24]
 127:print.c       ****   while(a > 0) {
 568              		.loc 1 127 0
 569 0076 1BE0     		b	.L35
 570              	.L36:
 128:print.c       ****     buf[i++] = (a % 10) + '0'; // Get digit
 571              		.loc 1 128 0
 572 0078 BB7F     		ldrb	r3, [r7, #30]	@ zero_extendqisi2
 573 007a 5A1C     		adds	r2, r3, #1
 574 007c BA77     		strb	r2, [r7, #30]
 575 007e 1846     		mov	r0, r3
 576 0080 B969     		ldr	r1, [r7, #24]
 577 0082 2A4B     		ldr	r3, .L44+8
 578 0084 A3FB0123 		umull	r2, r3, r3, r1
 579 0088 DA08     		lsrs	r2, r3, #3
 580 008a 1346     		mov	r3, r2
 581 008c 9B00     		lsls	r3, r3, #2
 582 008e 1344     		add	r3, r3, r2
 583 0090 5B00     		lsls	r3, r3, #1
 584 0092 CA1A     		subs	r2, r1, r3
 585 0094 D3B2     		uxtb	r3, r2
 586 0096 3033     		adds	r3, r3, #48
 587 0098 DAB2     		uxtb	r2, r3
 588 009a 07F12003 		add	r3, r7, #32
 589 009e 0344     		add	r3, r3, r0
 590 00a0 03F8182C 		strb	r2, [r3, #-24]
 129:print.c       ****     a /= 10;
 591              		.loc 1 129 0
 592 00a4 BB69     		ldr	r3, [r7, #24]
 593 00a6 214A     		ldr	r2, .L44+8
 594 00a8 A2FB0323 		umull	r2, r3, r2, r3
 595 00ac DB08     		lsrs	r3, r3, #3
 596 00ae BB61     		str	r3, [r7, #24]
 597              	.L35:
 127:print.c       ****   while(a > 0) {
 598              		.loc 1 127 0
 599 00b0 BB69     		ldr	r3, [r7, #24]
 600 00b2 002B     		cmp	r3, #0
 601 00b4 E0D1     		bne	.L36
 130:print.c       ****   }
ARM GAS  C:\Users\barto\AppData\Local\Temp\cctvgFCF.s 			page 14


 131:print.c       ****   while (i < decimal_places) {
 602              		.loc 1 131 0
 603 00b6 08E0     		b	.L37
 604              	.L38:
 132:print.c       ****      buf[i++] = '0'; // Fill in zeros to decimal point for (n < 1)
 605              		.loc 1 132 0
 606 00b8 BB7F     		ldrb	r3, [r7, #30]	@ zero_extendqisi2
 607 00ba 5A1C     		adds	r2, r3, #1
 608 00bc BA77     		strb	r2, [r7, #30]
 609 00be 07F12002 		add	r2, r7, #32
 610 00c2 1344     		add	r3, r3, r2
 611 00c4 3022     		movs	r2, #48
 612 00c6 03F8182C 		strb	r2, [r3, #-24]
 613              	.L37:
 131:print.c       ****      buf[i++] = '0'; // Fill in zeros to decimal point for (n < 1)
 614              		.loc 1 131 0
 615 00ca BA7F     		ldrb	r2, [r7, #30]	@ zero_extendqisi2
 616 00cc FB78     		ldrb	r3, [r7, #3]	@ zero_extendqisi2
 617 00ce 9A42     		cmp	r2, r3
 618 00d0 F2D3     		bcc	.L38
 133:print.c       ****   }
 134:print.c       ****   if (i == decimal_places) { // Fill in leading zero, if needed.
 619              		.loc 1 134 0
 620 00d2 BA7F     		ldrb	r2, [r7, #30]	@ zero_extendqisi2
 621 00d4 FB78     		ldrb	r3, [r7, #3]	@ zero_extendqisi2
 622 00d6 9A42     		cmp	r2, r3
 623 00d8 1DD1     		bne	.L40
 135:print.c       ****     buf[i++] = '0';
 624              		.loc 1 135 0
 625 00da BB7F     		ldrb	r3, [r7, #30]	@ zero_extendqisi2
 626 00dc 5A1C     		adds	r2, r3, #1
 627 00de BA77     		strb	r2, [r7, #30]
 628 00e0 07F12002 		add	r2, r7, #32
 629 00e4 1344     		add	r3, r3, r2
 630 00e6 3022     		movs	r2, #48
 631 00e8 03F8182C 		strb	r2, [r3, #-24]
 136:print.c       ****   }
 137:print.c       **** 
 138:print.c       ****   // Print the generated string.
 139:print.c       ****   for (; i > 0; i--) {
 632              		.loc 1 139 0
 633 00ec 13E0     		b	.L40
 634              	.L42:
 140:print.c       ****     if (i == decimal_places) { serial_write('.'); } // Insert decimal point in right place.
 635              		.loc 1 140 0
 636 00ee BA7F     		ldrb	r2, [r7, #30]	@ zero_extendqisi2
 637 00f0 FB78     		ldrb	r3, [r7, #3]	@ zero_extendqisi2
 638 00f2 9A42     		cmp	r2, r3
 639 00f4 02D1     		bne	.L41
 640              		.loc 1 140 0 is_stmt 0 discriminator 1
 641 00f6 2E20     		movs	r0, #46
 642 00f8 FFF7FEFF 		bl	serial_write
 643              	.L41:
 141:print.c       ****     serial_write(buf[i-1]);
 644              		.loc 1 141 0 is_stmt 1
 645 00fc BB7F     		ldrb	r3, [r7, #30]	@ zero_extendqisi2
 646 00fe 013B     		subs	r3, r3, #1
ARM GAS  C:\Users\barto\AppData\Local\Temp\cctvgFCF.s 			page 15


 647 0100 07F12002 		add	r2, r7, #32
 648 0104 1344     		add	r3, r3, r2
 649 0106 13F8183C 		ldrb	r3, [r3, #-24]	@ zero_extendqisi2
 650 010a 1846     		mov	r0, r3
 651 010c FFF7FEFF 		bl	serial_write
 139:print.c       ****     if (i == decimal_places) { serial_write('.'); } // Insert decimal point in right place.
 652              		.loc 1 139 0
 653 0110 BB7F     		ldrb	r3, [r7, #30]	@ zero_extendqisi2
 654 0112 013B     		subs	r3, r3, #1
 655 0114 BB77     		strb	r3, [r7, #30]
 656              	.L40:
 139:print.c       ****     if (i == decimal_places) { serial_write('.'); } // Insert decimal point in right place.
 657              		.loc 1 139 0 is_stmt 0 discriminator 1
 658 0116 BB7F     		ldrb	r3, [r7, #30]	@ zero_extendqisi2
 659 0118 002B     		cmp	r3, #0
 660 011a E8D1     		bne	.L42
 142:print.c       ****   }
 143:print.c       **** }
 661              		.loc 1 143 0 is_stmt 1
 662 011c 00BF     		nop
 663 011e 2037     		adds	r7, r7, #32
 664              		.cfi_def_cfa_offset 8
 665 0120 BD46     		mov	sp, r7
 666              		.cfi_def_cfa_register 13
 667              		@ sp needed
 668 0122 80BD     		pop	{r7, pc}
 669              	.L45:
 670              		.align	2
 671              	.L44:
 672 0124 0000C842 		.word	1120403456
 673 0128 00002041 		.word	1092616192
 674 012c CDCCCCCC 		.word	-858993459
 675              		.cfi_endproc
 676              	.LFE70:
 677              		.size	printFloat, .-printFloat
 678              		.global	__aeabi_f2d
 679              		.global	__aeabi_dmul
 680              		.global	__aeabi_d2f
 681              		.section	.text.printFloat_CoordValue,"ax",%progbits
 682              		.align	2
 683              		.global	printFloat_CoordValue
 684              		.thumb
 685              		.thumb_func
 686              		.type	printFloat_CoordValue, %function
 687              	printFloat_CoordValue:
 688              	.LFB71:
 144:print.c       **** 
 145:print.c       **** 
 146:print.c       **** // Floating value printing handlers for special variables types used in Grbl and are defined
 147:print.c       **** // in the config.h.
 148:print.c       **** //  - CoordValue: Handles all position or coordinate values in inches or mm reporting.
 149:print.c       **** //  - RateValue: Handles feed rate and current velocity in inches or mm reporting.
 150:print.c       **** void printFloat_CoordValue(float n) {
 689              		.loc 1 150 0
 690              		.cfi_startproc
 691              		@ args = 0, pretend = 0, frame = 8
 692              		@ frame_needed = 1, uses_anonymous_args = 0
ARM GAS  C:\Users\barto\AppData\Local\Temp\cctvgFCF.s 			page 16


 693 0000 90B5     		push	{r4, r7, lr}
 694              		.cfi_def_cfa_offset 12
 695              		.cfi_offset 4, -12
 696              		.cfi_offset 7, -8
 697              		.cfi_offset 14, -4
 698 0002 83B0     		sub	sp, sp, #12
 699              		.cfi_def_cfa_offset 24
 700 0004 00AF     		add	r7, sp, #0
 701              		.cfi_def_cfa_register 7
 702 0006 7860     		str	r0, [r7, #4]	@ float
 151:print.c       ****   if (bit_istrue(settings.flags,BITFLAG_REPORT_INCHES)) {
 703              		.loc 1 151 0
 704 0008 134B     		ldr	r3, .L50+8
 705 000a 93F84830 		ldrb	r3, [r3, #72]	@ zero_extendqisi2
 706 000e 03F00103 		and	r3, r3, #1
 707 0012 002B     		cmp	r3, #0
 708 0014 13D0     		beq	.L47
 152:print.c       ****     printFloat(n*INCH_PER_MM,N_DECIMAL_COORDVALUE_INCH);
 709              		.loc 1 152 0
 710 0016 7868     		ldr	r0, [r7, #4]	@ float
 711 0018 FFF7FEFF 		bl	__aeabi_f2d
 712 001c 0CA3     		adr	r3, .L50
 713 001e D3E90023 		ldrd	r2, [r3]
 714 0022 FFF7FEFF 		bl	__aeabi_dmul
 715 0026 0346     		mov	r3, r0
 716 0028 0C46     		mov	r4, r1
 717 002a 1846     		mov	r0, r3
 718 002c 2146     		mov	r1, r4
 719 002e FFF7FEFF 		bl	__aeabi_d2f
 720 0032 0346     		mov	r3, r0
 721 0034 0421     		movs	r1, #4
 722 0036 1846     		mov	r0, r3
 723 0038 FFF7FEFF 		bl	printFloat
 153:print.c       ****   } else {
 154:print.c       ****     printFloat(n,N_DECIMAL_COORDVALUE_MM);
 155:print.c       ****   }
 156:print.c       **** }
 724              		.loc 1 156 0
 725 003c 03E0     		b	.L49
 726              	.L47:
 154:print.c       ****   }
 727              		.loc 1 154 0
 728 003e 0321     		movs	r1, #3
 729 0040 7868     		ldr	r0, [r7, #4]	@ float
 730 0042 FFF7FEFF 		bl	printFloat
 731              	.L49:
 732              		.loc 1 156 0
 733 0046 00BF     		nop
 734 0048 0C37     		adds	r7, r7, #12
 735              		.cfi_def_cfa_offset 12
 736 004a BD46     		mov	sp, r7
 737              		.cfi_def_cfa_register 13
 738              		@ sp needed
 739 004c 90BD     		pop	{r4, r7, pc}
 740              	.L51:
 741 004e 00BF     		.align	3
 742              	.L50:
ARM GAS  C:\Users\barto\AppData\Local\Temp\cctvgFCF.s 			page 17


 743 0050 6568E157 		.word	1474390117
 744 0054 5128A43F 		.word	1067722833
 745 0058 00000000 		.word	settings
 746              		.cfi_endproc
 747              	.LFE71:
 748              		.size	printFloat_CoordValue, .-printFloat_CoordValue
 749              		.section	.text.printFloat_RateValue,"ax",%progbits
 750              		.align	2
 751              		.global	printFloat_RateValue
 752              		.thumb
 753              		.thumb_func
 754              		.type	printFloat_RateValue, %function
 755              	printFloat_RateValue:
 756              	.LFB72:
 157:print.c       **** 
 158:print.c       **** void printFloat_RateValue(float n) {
 757              		.loc 1 158 0
 758              		.cfi_startproc
 759              		@ args = 0, pretend = 0, frame = 8
 760              		@ frame_needed = 1, uses_anonymous_args = 0
 761 0000 90B5     		push	{r4, r7, lr}
 762              		.cfi_def_cfa_offset 12
 763              		.cfi_offset 4, -12
 764              		.cfi_offset 7, -8
 765              		.cfi_offset 14, -4
 766 0002 83B0     		sub	sp, sp, #12
 767              		.cfi_def_cfa_offset 24
 768 0004 00AF     		add	r7, sp, #0
 769              		.cfi_def_cfa_register 7
 770 0006 7860     		str	r0, [r7, #4]	@ float
 159:print.c       ****   if (bit_istrue(settings.flags,BITFLAG_REPORT_INCHES)) {
 771              		.loc 1 159 0
 772 0008 134B     		ldr	r3, .L56+8
 773 000a 93F84830 		ldrb	r3, [r3, #72]	@ zero_extendqisi2
 774 000e 03F00103 		and	r3, r3, #1
 775 0012 002B     		cmp	r3, #0
 776 0014 13D0     		beq	.L53
 160:print.c       ****     printFloat(n*INCH_PER_MM,N_DECIMAL_RATEVALUE_INCH);
 777              		.loc 1 160 0
 778 0016 7868     		ldr	r0, [r7, #4]	@ float
 779 0018 FFF7FEFF 		bl	__aeabi_f2d
 780 001c 0CA3     		adr	r3, .L56
 781 001e D3E90023 		ldrd	r2, [r3]
 782 0022 FFF7FEFF 		bl	__aeabi_dmul
 783 0026 0346     		mov	r3, r0
 784 0028 0C46     		mov	r4, r1
 785 002a 1846     		mov	r0, r3
 786 002c 2146     		mov	r1, r4
 787 002e FFF7FEFF 		bl	__aeabi_d2f
 788 0032 0346     		mov	r3, r0
 789 0034 0121     		movs	r1, #1
 790 0036 1846     		mov	r0, r3
 791 0038 FFF7FEFF 		bl	printFloat
 161:print.c       ****   } else {
 162:print.c       ****     printFloat(n,N_DECIMAL_RATEVALUE_MM);
 163:print.c       ****   }
 164:print.c       **** }
ARM GAS  C:\Users\barto\AppData\Local\Temp\cctvgFCF.s 			page 18


 792              		.loc 1 164 0
 793 003c 03E0     		b	.L55
 794              	.L53:
 162:print.c       ****   }
 795              		.loc 1 162 0
 796 003e 0021     		movs	r1, #0
 797 0040 7868     		ldr	r0, [r7, #4]	@ float
 798 0042 FFF7FEFF 		bl	printFloat
 799              	.L55:
 800              		.loc 1 164 0
 801 0046 00BF     		nop
 802 0048 0C37     		adds	r7, r7, #12
 803              		.cfi_def_cfa_offset 12
 804 004a BD46     		mov	sp, r7
 805              		.cfi_def_cfa_register 13
 806              		@ sp needed
 807 004c 90BD     		pop	{r4, r7, pc}
 808              	.L57:
 809 004e 00BF     		.align	3
 810              	.L56:
 811 0050 6568E157 		.word	1474390117
 812 0054 5128A43F 		.word	1067722833
 813 0058 00000000 		.word	settings
 814              		.cfi_endproc
 815              	.LFE72:
 816              		.size	printFloat_RateValue, .-printFloat_RateValue
 817              		.text
 818              	.Letext0:
 819              		.file 2 "c:\\program files (x86)\\cypress\\psoc creator\\4.2\\psoc creator\\import\\gnu\\arm\\5.4.
 820              		.file 3 "c:\\program files (x86)\\cypress\\psoc creator\\4.2\\psoc creator\\import\\gnu\\arm\\5.4.
 821              		.file 4 "settings.h"
 822              		.file 5 "Generated_Source\\PSoC5/core_cm3.h"
 823              		.file 6 "system.h"