ARM GAS  C:\Users\barto\AppData\Local\Temp\ccJlQmpS.s 			page 1


   1              		.syntax unified
   2              		.cpu cortex-m3
   3              		.fpu softvfp
   4              		.eabi_attribute 20, 1
   5              		.eabi_attribute 21, 1
   6              		.eabi_attribute 23, 3
   7              		.eabi_attribute 24, 1
   8              		.eabi_attribute 25, 1
   9              		.eabi_attribute 26, 1
  10              		.eabi_attribute 30, 6
  11              		.eabi_attribute 34, 1
  12              		.eabi_attribute 18, 4
  13              		.thumb
  14              		.syntax unified
  15              		.file	"probe.c"
  16              		.text
  17              	.Ltext0:
  18              		.cfi_sections	.debug_frame
  19              		.comm	sys_position,12,4
  20              		.comm	sys_probe_position,12,4
  21              		.comm	sys_probe_state,1,1
  22              		.comm	sys_rt_exec_state,1,1
  23              		.comm	sys_rt_exec_alarm,1,1
  24              		.comm	sys_rt_exec_motion_override,1,1
  25              		.comm	sys_rt_exec_accessory_override,1,1
  26              		.comm	probe_invert_mask,1,1
  27              		.section	.text.probe_init,"ax",%progbits
  28              		.align	2
  29              		.global	probe_init
  30              		.thumb
  31              		.thumb_func
  32              		.type	probe_init, %function
  33              	probe_init:
  34              	.LFB64:
  35              		.file 1 "probe.c"
   1:probe.c       **** /*
   2:probe.c       ****   probe.c - code pertaining to probing methods
   3:probe.c       ****   Part of Grbl
   4:probe.c       **** 
   5:probe.c       ****   Copyright (c) 2014-2016 Sungeun K. Jeon for Gnea Research LLC
   6:probe.c       ****       Updated For PSOC BJD 2017
   7:probe.c       **** 
   8:probe.c       ****   Grbl is free software: you can redistribute it and/or modify
   9:probe.c       ****   it under the terms of the GNU General Public License as published by
  10:probe.c       ****   the Free Software Foundation, either version 3 of the License, or
  11:probe.c       ****   (at your option) any later version.
  12:probe.c       **** 
  13:probe.c       ****   Grbl is distributed in the hope that it will be useful,
  14:probe.c       ****   but WITHOUT ANY WARRANTY; without even the implied warranty of
  15:probe.c       ****   MERCHANTABILITY or FITNESS FOR A PARTICULAR PURPOSE.  See the
  16:probe.c       ****   GNU General Public License for more details.
  17:probe.c       **** 
  18:probe.c       ****   You should have received a copy of the GNU General Public License
  19:probe.c       ****   along with Grbl.  If not, see <http://www.gnu.org/licenses/>.
  20:probe.c       **** */
  21:probe.c       **** 
  22:probe.c       **** #include "grbl.h"
ARM GAS  C:\Users\barto\AppData\Local\Temp\ccJlQmpS.s 			page 2


  23:probe.c       **** 
  24:probe.c       **** 
  25:probe.c       **** // Inverts the probe pin state depending on user settings and probing cycle mode.
  26:probe.c       **** uint8_t probe_invert_mask;
  27:probe.c       **** 
  28:probe.c       **** 
  29:probe.c       **** // Probe pin initialization routine.
  30:probe.c       **** // PSoC not required, but leave in for compatibility.
  31:probe.c       **** void probe_init()
  32:probe.c       **** {
  36              		.loc 1 32 0
  37              		.cfi_startproc
  38              		@ args = 0, pretend = 0, frame = 0
  39              		@ frame_needed = 1, uses_anonymous_args = 0
  40              		@ link register save eliminated.
  41 0000 80B4     		push	{r7}
  42              		.cfi_def_cfa_offset 4
  43              		.cfi_offset 7, -4
  44 0002 00AF     		add	r7, sp, #0
  45              		.cfi_def_cfa_register 7
  33:probe.c       ****  
  34:probe.c       **** }
  46              		.loc 1 34 0
  47 0004 00BF     		nop
  48 0006 BD46     		mov	sp, r7
  49              		.cfi_def_cfa_register 13
  50              		@ sp needed
  51 0008 80BC     		pop	{r7}
  52              		.cfi_restore 7
  53              		.cfi_def_cfa_offset 0
  54 000a 7047     		bx	lr
  55              		.cfi_endproc
  56              	.LFE64:
  57              		.size	probe_init, .-probe_init
  58              		.section	.text.probe_configure_invert_mask,"ax",%progbits
  59              		.align	2
  60              		.global	probe_configure_invert_mask
  61              		.thumb
  62              		.thumb_func
  63              		.type	probe_configure_invert_mask, %function
  64              	probe_configure_invert_mask:
  65              	.LFB65:
  35:probe.c       **** 
  36:probe.c       **** 
  37:probe.c       **** // Called by probe_init() and the mc_probe() routines. Sets up the probe pin invert mask to
  38:probe.c       **** // appropriately set the pin logic according to setting for normal-high/normal-low operation
  39:probe.c       **** // and the probing cycle modes for toward-workpiece/away-from-workpiece.
  40:probe.c       **** void probe_configure_invert_mask(uint8_t is_probe_away)
  41:probe.c       **** {
  66              		.loc 1 41 0
  67              		.cfi_startproc
  68              		@ args = 0, pretend = 0, frame = 8
  69              		@ frame_needed = 1, uses_anonymous_args = 0
  70              		@ link register save eliminated.
  71 0000 80B4     		push	{r7}
  72              		.cfi_def_cfa_offset 4
  73              		.cfi_offset 7, -4
ARM GAS  C:\Users\barto\AppData\Local\Temp\ccJlQmpS.s 			page 3


  74 0002 83B0     		sub	sp, sp, #12
  75              		.cfi_def_cfa_offset 16
  76 0004 00AF     		add	r7, sp, #0
  77              		.cfi_def_cfa_register 7
  78 0006 0346     		mov	r3, r0
  79 0008 FB71     		strb	r3, [r7, #7]
  42:probe.c       ****  // PSoC Not required
  43:probe.c       **** }
  80              		.loc 1 43 0
  81 000a 00BF     		nop
  82 000c 0C37     		adds	r7, r7, #12
  83              		.cfi_def_cfa_offset 4
  84 000e BD46     		mov	sp, r7
  85              		.cfi_def_cfa_register 13
  86              		@ sp needed
  87 0010 80BC     		pop	{r7}
  88              		.cfi_restore 7
  89              		.cfi_def_cfa_offset 0
  90 0012 7047     		bx	lr
  91              		.cfi_endproc
  92              	.LFE65:
  93              		.size	probe_configure_invert_mask, .-probe_configure_invert_mask
  94              		.section	.text.probe_get_state,"ax",%progbits
  95              		.align	2
  96              		.global	probe_get_state
  97              		.thumb
  98              		.thumb_func
  99              		.type	probe_get_state, %function
 100              	probe_get_state:
 101              	.LFB66:
  44:probe.c       **** 
  45:probe.c       **** 
  46:probe.c       **** // Returns the probe pin state. Triggered = true. Called by gcode parser and probe state monitor.
  47:probe.c       **** // PSoC Rewrite
  48:probe.c       **** uint8_t probe_get_state() { return Status_Probe_Read(); }
 102              		.loc 1 48 0
 103              		.cfi_startproc
 104              		@ args = 0, pretend = 0, frame = 0
 105              		@ frame_needed = 1, uses_anonymous_args = 0
 106 0000 80B5     		push	{r7, lr}
 107              		.cfi_def_cfa_offset 8
 108              		.cfi_offset 7, -8
 109              		.cfi_offset 14, -4
 110 0002 00AF     		add	r7, sp, #0
 111              		.cfi_def_cfa_register 7
 112              		.loc 1 48 0
 113 0004 FFF7FEFF 		bl	Status_Probe_Read
 114 0008 0346     		mov	r3, r0
 115 000a 1846     		mov	r0, r3
 116 000c 80BD     		pop	{r7, pc}
 117              		.cfi_endproc
 118              	.LFE66:
 119              		.size	probe_get_state, .-probe_get_state
 120 000e 00BF     		.section	.text.probe_state_monitor,"ax",%progbits
 121              		.align	2
 122              		.global	probe_state_monitor
 123              		.thumb
ARM GAS  C:\Users\barto\AppData\Local\Temp\ccJlQmpS.s 			page 4


 124              		.thumb_func
 125              		.type	probe_state_monitor, %function
 126              	probe_state_monitor:
 127              	.LFB67:
  49:probe.c       **** 
  50:probe.c       **** 
  51:probe.c       **** // Monitors probe pin state and records the system position when detected. Called by the
  52:probe.c       **** // stepper ISR per ISR tick.
  53:probe.c       **** // NOTE: This function must be extremely efficient as to not bog down the stepper ISR.
  54:probe.c       **** void probe_state_monitor()
  55:probe.c       **** {
 128              		.loc 1 55 0
 129              		.cfi_startproc
 130              		@ args = 0, pretend = 0, frame = 0
 131              		@ frame_needed = 1, uses_anonymous_args = 0
 132 0000 80B5     		push	{r7, lr}
 133              		.cfi_def_cfa_offset 8
 134              		.cfi_offset 7, -8
 135              		.cfi_offset 14, -4
 136 0002 00AF     		add	r7, sp, #0
 137              		.cfi_def_cfa_register 7
  56:probe.c       ****   if (probe_get_state()) {
 138              		.loc 1 56 0
 139 0004 FFF7FEFF 		bl	probe_get_state
 140 0008 0346     		mov	r3, r0
 141 000a 002B     		cmp	r3, #0
 142 000c 0FD0     		beq	.L7
  57:probe.c       ****     sys_probe_state = PROBE_OFF;
 143              		.loc 1 57 0
 144 000e 094B     		ldr	r3, .L8
 145 0010 0022     		movs	r2, #0
 146 0012 1A70     		strb	r2, [r3]
  58:probe.c       ****     memcpy(sys_probe_position, sys_position, sizeof(sys_position));
 147              		.loc 1 58 0
 148 0014 084B     		ldr	r3, .L8+4
 149 0016 094A     		ldr	r2, .L8+8
 150 0018 07CA     		ldmia	r2, {r0, r1, r2}
 151 001a 83E80700 		stmia	r3, {r0, r1, r2}
  59:probe.c       ****     bit_true(sys_rt_exec_state, EXEC_MOTION_CANCEL);
 152              		.loc 1 59 0
 153 001e 084B     		ldr	r3, .L8+12
 154 0020 1B78     		ldrb	r3, [r3]
 155 0022 DBB2     		uxtb	r3, r3
 156 0024 43F04003 		orr	r3, r3, #64
 157 0028 DAB2     		uxtb	r2, r3
 158 002a 054B     		ldr	r3, .L8+12
 159 002c 1A70     		strb	r2, [r3]
 160              	.L7:
  60:probe.c       ****   }
  61:probe.c       **** }
 161              		.loc 1 61 0
 162 002e 00BF     		nop
 163 0030 80BD     		pop	{r7, pc}
 164              	.L9:
 165 0032 00BF     		.align	2
 166              	.L8:
 167 0034 00000000 		.word	sys_probe_state
ARM GAS  C:\Users\barto\AppData\Local\Temp\ccJlQmpS.s 			page 5


 168 0038 00000000 		.word	sys_probe_position
 169 003c 00000000 		.word	sys_position
 170 0040 00000000 		.word	sys_rt_exec_state
 171              		.cfi_endproc
 172              	.LFE67:
 173              		.size	probe_state_monitor, .-probe_state_monitor
 174              		.text
 175              	.Letext0:
 176              		.file 2 "c:\\program files (x86)\\cypress\\psoc creator\\4.2\\psoc creator\\import\\gnu\\arm\\5.4.
 177              		.file 3 "c:\\program files (x86)\\cypress\\psoc creator\\4.2\\psoc creator\\import\\gnu\\arm\\5.4.
 178              		.file 4 "Generated_Source\\PSoC5/core_cm3.h"
 179              		.file 5 "system.h"