ARM GAS  C:\Users\barto\AppData\Local\Temp\ccvWJHma.s 			page 1


   1              		.syntax unified
   2              		.cpu cortex-m3
   3              		.fpu softvfp
   4              		.eabi_attribute 20, 1
   5              		.eabi_attribute 21, 1
   6              		.eabi_attribute 23, 3
   7              		.eabi_attribute 24, 1
   8              		.eabi_attribute 25, 1
   9              		.eabi_attribute 26, 1
  10              		.eabi_attribute 30, 6
  11              		.eabi_attribute 34, 1
  12              		.eabi_attribute 18, 4
  13              		.thumb
  14              		.syntax unified
  15              		.file	"protocol.c"
  16              		.text
  17              	.Ltext0:
  18              		.cfi_sections	.debug_frame
  19              		.comm	sys_position,12,4
  20              		.comm	sys_probe_position,12,4
  21              		.comm	sys_probe_state,1,1
  22              		.comm	sys_rt_exec_state,1,1
  23              		.comm	sys_rt_exec_alarm,1,1
  24              		.comm	sys_rt_exec_motion_override,1,1
  25              		.comm	sys_rt_exec_accessory_override,1,1
  26              		.bss
  27              		.align	2
  28              	line:
  29 0000 00000000 		.space	80
  29      00000000 
  29      00000000 
  29      00000000 
  29      00000000 
  30              		.section	.text.protocol_main_loop,"ax",%progbits
  31              		.align	2
  32              		.global	protocol_main_loop
  33              		.thumb
  34              		.thumb_func
  35              		.type	protocol_main_loop, %function
  36              	protocol_main_loop:
  37              	.LFB64:
  38              		.file 1 "protocol.c"
   1:protocol.c    **** /*
   2:protocol.c    ****   protocol.c - controls Grbl execution protocol and procedures
   3:protocol.c    ****   Part of Grbl
   4:protocol.c    **** 
   5:protocol.c    ****   Copyright (c) 2011-2016 Sungeun K. Jeon for Gnea Research LLC
   6:protocol.c    ****   Copyright (c) 2009-2011 Simen Svale Skogsrud
   7:protocol.c    ****       Updated For PSOC BJD 2017
   8:protocol.c    **** 
   9:protocol.c    ****   Grbl is free software: you can redistribute it and/or modify
  10:protocol.c    ****   it under the terms of the GNU General Public License as published by
  11:protocol.c    ****   the Free Software Foundation, either version 3 of the License, or
  12:protocol.c    ****   (at your option) any later version.
  13:protocol.c    **** 
  14:protocol.c    ****   Grbl is distributed in the hope that it will be useful,
  15:protocol.c    ****   but WITHOUT ANY WARRANTY; without even the implied warranty of
ARM GAS  C:\Users\barto\AppData\Local\Temp\ccvWJHma.s 			page 2


  16:protocol.c    ****   MERCHANTABILITY or FITNESS FOR A PARTICULAR PURPOSE.  See the
  17:protocol.c    ****   GNU General Public License for more details.
  18:protocol.c    **** 
  19:protocol.c    ****   You should have received a copy of the GNU General Public License
  20:protocol.c    ****   along with Grbl.  If not, see <http://www.gnu.org/licenses/>.
  21:protocol.c    **** */
  22:protocol.c    **** 
  23:protocol.c    **** #include "grbl.h"
  24:protocol.c    **** 
  25:protocol.c    **** // Define line flags. Includes comment type tracking and line overflow detection.
  26:protocol.c    **** #define LINE_FLAG_OVERFLOW bit(0)
  27:protocol.c    **** #define LINE_FLAG_COMMENT_PARENTHESES bit(1)
  28:protocol.c    **** #define LINE_FLAG_COMMENT_SEMICOLON bit(2)
  29:protocol.c    **** 
  30:protocol.c    **** 
  31:protocol.c    **** static char line[LINE_BUFFER_SIZE]; // Line to be executed. Zero-terminated.
  32:protocol.c    **** 
  33:protocol.c    **** static void protocol_exec_rt_suspend();
  34:protocol.c    **** 
  35:protocol.c    **** 
  36:protocol.c    **** /*
  37:protocol.c    ****   GRBL PRIMARY LOOP:
  38:protocol.c    **** */
  39:protocol.c    **** void protocol_main_loop()
  40:protocol.c    **** {
  39              		.loc 1 40 0
  40              		.cfi_startproc
  41              		@ args = 0, pretend = 0, frame = 8
  42              		@ frame_needed = 1, uses_anonymous_args = 0
  43 0000 80B5     		push	{r7, lr}
  44              		.cfi_def_cfa_offset 8
  45              		.cfi_offset 7, -8
  46              		.cfi_offset 14, -4
  47 0002 82B0     		sub	sp, sp, #8
  48              		.cfi_def_cfa_offset 16
  49 0004 00AF     		add	r7, sp, #0
  50              		.cfi_def_cfa_register 7
  41:protocol.c    ****   // Perform some machine checks to make sure everything is good to go.
  42:protocol.c    ****   #ifdef CHECK_LIMITS_AT_INIT
  43:protocol.c    ****     if (bit_istrue(settings.flags, BITFLAG_HARD_LIMIT_ENABLE)) {
  51              		.loc 1 43 0
  52 0006 6D4B     		ldr	r3, .L27
  53 0008 93F84830 		ldrb	r3, [r3, #72]	@ zero_extendqisi2
  54 000c 03F00803 		and	r3, r3, #8
  55 0010 002B     		cmp	r3, #0
  56 0012 0AD0     		beq	.L2
  44:protocol.c    ****       if (limits_get_state()) {
  57              		.loc 1 44 0
  58 0014 FFF7FEFF 		bl	limits_get_state
  59 0018 0346     		mov	r3, r0
  60 001a 002B     		cmp	r3, #0
  61 001c 05D0     		beq	.L2
  45:protocol.c    ****         sys.state = STATE_ALARM; // Ensure alarm state is active.
  62              		.loc 1 45 0
  63 001e 684B     		ldr	r3, .L27+4
  64 0020 0122     		movs	r2, #1
  65 0022 1A70     		strb	r2, [r3]
ARM GAS  C:\Users\barto\AppData\Local\Temp\ccvWJHma.s 			page 3


  46:protocol.c    ****         report_feedback_message(MESSAGE_CHECK_LIMITS);
  66              		.loc 1 46 0
  67 0024 0720     		movs	r0, #7
  68 0026 FFF7FEFF 		bl	report_feedback_message
  69              	.L2:
  47:protocol.c    ****       }
  48:protocol.c    ****     }
  49:protocol.c    ****   #endif
  50:protocol.c    ****   // Check for and report alarm state after a reset, error, or an initial power up.
  51:protocol.c    ****   // NOTE: Sleep mode disables the stepper drivers and position can't be guaranteed.
  52:protocol.c    ****   // Re-initialize the sleep state as an ALARM mode to ensure user homes or acknowledges.
  53:protocol.c    ****   if (sys.state & (STATE_ALARM | STATE_SLEEP)) {
  70              		.loc 1 53 0
  71 002a 654B     		ldr	r3, .L27+4
  72 002c 1B78     		ldrb	r3, [r3]	@ zero_extendqisi2
  73 002e 03F08103 		and	r3, r3, #129
  74 0032 002B     		cmp	r3, #0
  75 0034 06D0     		beq	.L3
  54:protocol.c    ****     report_feedback_message(MESSAGE_ALARM_LOCK);
  76              		.loc 1 54 0
  77 0036 0220     		movs	r0, #2
  78 0038 FFF7FEFF 		bl	report_feedback_message
  55:protocol.c    ****     sys.state = STATE_ALARM; // Ensure alarm state is set.
  79              		.loc 1 55 0
  80 003c 604B     		ldr	r3, .L27+4
  81 003e 0122     		movs	r2, #1
  82 0040 1A70     		strb	r2, [r3]
  83 0042 14E0     		b	.L4
  84              	.L3:
  56:protocol.c    ****   } else {
  57:protocol.c    ****     // Check if the safety door is open.
  58:protocol.c    ****     sys.state = STATE_IDLE;
  85              		.loc 1 58 0
  86 0044 5E4B     		ldr	r3, .L27+4
  87 0046 0022     		movs	r2, #0
  88 0048 1A70     		strb	r2, [r3]
  59:protocol.c    ****     if (system_check_safety_door_ajar()) {
  89              		.loc 1 59 0
  90 004a FFF7FEFF 		bl	system_check_safety_door_ajar
  91 004e 0346     		mov	r3, r0
  92 0050 002B     		cmp	r3, #0
  93 0052 09D0     		beq	.L5
  60:protocol.c    ****       bit_true(sys_rt_exec_state, EXEC_SAFETY_DOOR);
  94              		.loc 1 60 0
  95 0054 5B4B     		ldr	r3, .L27+8
  96 0056 1B78     		ldrb	r3, [r3]
  97 0058 DBB2     		uxtb	r3, r3
  98 005a 43F02003 		orr	r3, r3, #32
  99 005e DAB2     		uxtb	r2, r3
 100 0060 584B     		ldr	r3, .L27+8
 101 0062 1A70     		strb	r2, [r3]
  61:protocol.c    ****       protocol_execute_realtime(); // Enter safety door mode. Should return as IDLE state.
 102              		.loc 1 61 0
 103 0064 FFF7FEFF 		bl	protocol_execute_realtime
 104              	.L5:
  62:protocol.c    ****     }
  63:protocol.c    ****     // All systems go!
ARM GAS  C:\Users\barto\AppData\Local\Temp\ccvWJHma.s 			page 4


  64:protocol.c    ****     system_execute_startup(line); // Execute startup script.
 105              		.loc 1 64 0
 106 0068 5748     		ldr	r0, .L27+12
 107 006a FFF7FEFF 		bl	system_execute_startup
 108              	.L4:
  65:protocol.c    ****   }
  66:protocol.c    **** 
  67:protocol.c    ****   // ---------------------------------------------------------------------------------
  68:protocol.c    ****   // Primary loop! Upon a system abort, this exits back to main() to reset the system.
  69:protocol.c    ****   // This is also where Grbl idles while waiting for something to do.
  70:protocol.c    ****   // ---------------------------------------------------------------------------------
  71:protocol.c    **** 
  72:protocol.c    ****   uint8_t line_flags = 0;
 109              		.loc 1 72 0
 110 006e 0023     		movs	r3, #0
 111 0070 FB71     		strb	r3, [r7, #7]
  73:protocol.c    ****   uint8_t char_counter = 0;
 112              		.loc 1 73 0
 113 0072 0023     		movs	r3, #0
 114 0074 BB71     		strb	r3, [r7, #6]
 115              	.L24:
  74:protocol.c    ****   uint8_t c;
  75:protocol.c    ****   for (;;) {
  76:protocol.c    **** 
  77:protocol.c    ****     usb_uart_check();
 116              		.loc 1 77 0
 117 0076 FFF7FEFF 		bl	usb_uart_check
  78:protocol.c    ****     
  79:protocol.c    ****     // Process one line of incoming serial data, as the data becomes available. Performs an
  80:protocol.c    ****     // initial filtering by removing spaces and comments and capitalizing all letters.
  81:protocol.c    ****     while((c = serial_read()) != SERIAL_NO_DATA) {
 118              		.loc 1 81 0
 119 007a 88E0     		b	.L6
 120              	.L22:
  82:protocol.c    ****       if ((c == '\n') || (c == '\r')) { // End of line reached
 121              		.loc 1 82 0
 122 007c 7B79     		ldrb	r3, [r7, #5]	@ zero_extendqisi2
 123 007e 0A2B     		cmp	r3, #10
 124 0080 02D0     		beq	.L7
 125              		.loc 1 82 0 is_stmt 0 discriminator 1
 126 0082 7B79     		ldrb	r3, [r7, #5]	@ zero_extendqisi2
 127 0084 0D2B     		cmp	r3, #13
 128 0086 3DD1     		bne	.L8
 129              	.L7:
  83:protocol.c    **** 
  84:protocol.c    ****         protocol_execute_realtime(); // Runtime command check point.
 130              		.loc 1 84 0 is_stmt 1
 131 0088 FFF7FEFF 		bl	protocol_execute_realtime
  85:protocol.c    ****         if (sys.abort) { return; } // Bail to calling function upon system abort
 132              		.loc 1 85 0
 133 008c 4C4B     		ldr	r3, .L27+4
 134 008e 5B78     		ldrb	r3, [r3, #1]	@ zero_extendqisi2
 135 0090 002B     		cmp	r3, #0
 136 0092 40F08D80 		bne	.L25
  86:protocol.c    **** 
  87:protocol.c    ****         line[char_counter] = 0; // Set string termination character.
 137              		.loc 1 87 0
ARM GAS  C:\Users\barto\AppData\Local\Temp\ccvWJHma.s 			page 5


 138 0096 BB79     		ldrb	r3, [r7, #6]	@ zero_extendqisi2
 139 0098 4B4A     		ldr	r2, .L27+12
 140 009a 0021     		movs	r1, #0
 141 009c D154     		strb	r1, [r2, r3]
  88:protocol.c    ****         #ifdef REPORT_ECHO_LINE_RECEIVED
  89:protocol.c    ****           report_echo_line_received(line);
  90:protocol.c    ****         #endif
  91:protocol.c    **** 
  92:protocol.c    ****         // Direct and execute one line of formatted input, and report status of execution.
  93:protocol.c    ****         if (line_flags & LINE_FLAG_OVERFLOW) {
 142              		.loc 1 93 0
 143 009e FB79     		ldrb	r3, [r7, #7]	@ zero_extendqisi2
 144 00a0 03F00103 		and	r3, r3, #1
 145 00a4 002B     		cmp	r3, #0
 146 00a6 03D0     		beq	.L11
  94:protocol.c    ****           // Report line overflow error.
  95:protocol.c    ****           report_status_message(STATUS_OVERFLOW);
 147              		.loc 1 95 0
 148 00a8 0B20     		movs	r0, #11
 149 00aa FFF7FEFF 		bl	report_status_message
 150 00ae 24E0     		b	.L12
 151              	.L11:
  96:protocol.c    ****         } else if (line[0] == 0) {
 152              		.loc 1 96 0
 153 00b0 454B     		ldr	r3, .L27+12
 154 00b2 1B78     		ldrb	r3, [r3]	@ zero_extendqisi2
 155 00b4 002B     		cmp	r3, #0
 156 00b6 03D1     		bne	.L13
  97:protocol.c    ****           // Empty or comment line. For syncing purposes.
  98:protocol.c    ****           report_status_message(STATUS_OK);
 157              		.loc 1 98 0
 158 00b8 0020     		movs	r0, #0
 159 00ba FFF7FEFF 		bl	report_status_message
 160 00be 1CE0     		b	.L12
 161              	.L13:
  99:protocol.c    ****         } else if (line[0] == '$') {
 162              		.loc 1 99 0
 163 00c0 414B     		ldr	r3, .L27+12
 164 00c2 1B78     		ldrb	r3, [r3]	@ zero_extendqisi2
 165 00c4 242B     		cmp	r3, #36
 166 00c6 07D1     		bne	.L14
 100:protocol.c    ****           // Grbl '$' system command
 101:protocol.c    ****           report_status_message(system_execute_line(line));
 167              		.loc 1 101 0
 168 00c8 3F48     		ldr	r0, .L27+12
 169 00ca FFF7FEFF 		bl	system_execute_line
 170 00ce 0346     		mov	r3, r0
 171 00d0 1846     		mov	r0, r3
 172 00d2 FFF7FEFF 		bl	report_status_message
 173 00d6 10E0     		b	.L12
 174              	.L14:
 102:protocol.c    ****         } else if (sys.state & (STATE_ALARM | STATE_JOG)) {
 175              		.loc 1 102 0
 176 00d8 394B     		ldr	r3, .L27+4
 177 00da 1B78     		ldrb	r3, [r3]	@ zero_extendqisi2
 178 00dc 03F02103 		and	r3, r3, #33
 179 00e0 002B     		cmp	r3, #0
ARM GAS  C:\Users\barto\AppData\Local\Temp\ccvWJHma.s 			page 6


 180 00e2 03D0     		beq	.L15
 103:protocol.c    ****           // Everything else is gcode. Block if in alarm or jog mode.
 104:protocol.c    ****           report_status_message(STATUS_SYSTEM_GC_LOCK);
 181              		.loc 1 104 0
 182 00e4 0920     		movs	r0, #9
 183 00e6 FFF7FEFF 		bl	report_status_message
 184 00ea 06E0     		b	.L12
 185              	.L15:
 105:protocol.c    ****         } else {
 106:protocol.c    ****           // Parse and execute g-code block.
 107:protocol.c    ****           report_status_message(gc_execute_line(line));
 186              		.loc 1 107 0
 187 00ec 3648     		ldr	r0, .L27+12
 188 00ee FFF7FEFF 		bl	gc_execute_line
 189 00f2 0346     		mov	r3, r0
 190 00f4 1846     		mov	r0, r3
 191 00f6 FFF7FEFF 		bl	report_status_message
 192              	.L12:
 108:protocol.c    ****         }
 109:protocol.c    **** 
 110:protocol.c    ****         // Reset tracking data for next line.
 111:protocol.c    ****         line_flags = 0;
 193              		.loc 1 111 0
 194 00fa 0023     		movs	r3, #0
 195 00fc FB71     		strb	r3, [r7, #7]
 112:protocol.c    ****         char_counter = 0;
 196              		.loc 1 112 0
 197 00fe 0023     		movs	r3, #0
 198 0100 BB71     		strb	r3, [r7, #6]
 199 0102 44E0     		b	.L6
 200              	.L8:
 113:protocol.c    **** 
 114:protocol.c    ****       } else {
 115:protocol.c    **** 
 116:protocol.c    ****         if (line_flags) {
 201              		.loc 1 116 0
 202 0104 FB79     		ldrb	r3, [r7, #7]	@ zero_extendqisi2
 203 0106 002B     		cmp	r3, #0
 204 0108 0CD0     		beq	.L16
 117:protocol.c    ****           // Throw away all (except EOL) comment characters and overflow characters.
 118:protocol.c    ****           if (c == ')') {
 205              		.loc 1 118 0
 206 010a 7B79     		ldrb	r3, [r7, #5]	@ zero_extendqisi2
 207 010c 292B     		cmp	r3, #41
 208 010e 3ED1     		bne	.L6
 119:protocol.c    ****             // End of '()' comment. Resume line allowed.
 120:protocol.c    ****             if (line_flags & LINE_FLAG_COMMENT_PARENTHESES) { line_flags &= ~(LINE_FLAG_COMMENT_PAR
 209              		.loc 1 120 0
 210 0110 FB79     		ldrb	r3, [r7, #7]	@ zero_extendqisi2
 211 0112 03F00203 		and	r3, r3, #2
 212 0116 002B     		cmp	r3, #0
 213 0118 39D0     		beq	.L6
 214              		.loc 1 120 0 is_stmt 0 discriminator 1
 215 011a FB79     		ldrb	r3, [r7, #7]
 216 011c 23F00203 		bic	r3, r3, #2
 217 0120 FB71     		strb	r3, [r7, #7]
 218 0122 34E0     		b	.L6
ARM GAS  C:\Users\barto\AppData\Local\Temp\ccvWJHma.s 			page 7


 219              	.L16:
 121:protocol.c    ****           }
 122:protocol.c    ****         } else {
 123:protocol.c    ****           if (c <= ' ') {
 220              		.loc 1 123 0 is_stmt 1
 221 0124 7B79     		ldrb	r3, [r7, #5]	@ zero_extendqisi2
 222 0126 202B     		cmp	r3, #32
 223 0128 31D9     		bls	.L6
 124:protocol.c    ****             // Throw away whitepace and control characters
 125:protocol.c    ****           } else if (c == '/') {
 224              		.loc 1 125 0
 225 012a 7B79     		ldrb	r3, [r7, #5]	@ zero_extendqisi2
 226 012c 2F2B     		cmp	r3, #47
 227 012e 2ED0     		beq	.L6
 126:protocol.c    ****             // Block delete NOT SUPPORTED. Ignore character.
 127:protocol.c    ****             // NOTE: If supported, would simply need to check the system if block delete is enabled
 128:protocol.c    ****           } else if (c == '(') {
 228              		.loc 1 128 0
 229 0130 7B79     		ldrb	r3, [r7, #5]	@ zero_extendqisi2
 230 0132 282B     		cmp	r3, #40
 231 0134 04D1     		bne	.L18
 129:protocol.c    ****             // Enable comments flag and ignore all characters until ')' or EOL.
 130:protocol.c    ****             // NOTE: This doesn't follow the NIST definition exactly, but is good enough for now.
 131:protocol.c    ****             // In the future, we could simply remove the items within the comments, but retain the
 132:protocol.c    ****             // comment control characters, so that the g-code parser can error-check it.
 133:protocol.c    ****             line_flags |= LINE_FLAG_COMMENT_PARENTHESES;
 232              		.loc 1 133 0
 233 0136 FB79     		ldrb	r3, [r7, #7]
 234 0138 43F00203 		orr	r3, r3, #2
 235 013c FB71     		strb	r3, [r7, #7]
 236 013e 26E0     		b	.L6
 237              	.L18:
 134:protocol.c    ****           } else if (c == ';') {
 238              		.loc 1 134 0
 239 0140 7B79     		ldrb	r3, [r7, #5]	@ zero_extendqisi2
 240 0142 3B2B     		cmp	r3, #59
 241 0144 04D1     		bne	.L19
 135:protocol.c    ****             // NOTE: ';' comment to EOL is a LinuxCNC definition. Not NIST.
 136:protocol.c    ****             line_flags |= LINE_FLAG_COMMENT_SEMICOLON;
 242              		.loc 1 136 0
 243 0146 FB79     		ldrb	r3, [r7, #7]
 244 0148 43F00403 		orr	r3, r3, #4
 245 014c FB71     		strb	r3, [r7, #7]
 246 014e 1EE0     		b	.L6
 247              	.L19:
 137:protocol.c    ****           // TODO: Install '%' feature
 138:protocol.c    ****           // } else if (c == '%') {
 139:protocol.c    ****             // Program start-end percent sign NOT SUPPORTED.
 140:protocol.c    ****             // NOTE: This maybe installed to tell Grbl when a program is running vs manual input,
 141:protocol.c    ****             // where, during a program, the system auto-cycle start will continue to execute
 142:protocol.c    ****             // everything until the next '%' sign. This will help fix resuming issues with certain
 143:protocol.c    ****             // functions that empty the planner buffer to execute its task on-time.
 144:protocol.c    ****           } else if (char_counter >= (LINE_BUFFER_SIZE-1)) {
 248              		.loc 1 144 0
 249 0150 BB79     		ldrb	r3, [r7, #6]	@ zero_extendqisi2
 250 0152 4E2B     		cmp	r3, #78
 251 0154 04D9     		bls	.L20
ARM GAS  C:\Users\barto\AppData\Local\Temp\ccvWJHma.s 			page 8


 145:protocol.c    ****             // Detect line buffer overflow and set flag.
 146:protocol.c    ****             line_flags |= LINE_FLAG_OVERFLOW;
 252              		.loc 1 146 0
 253 0156 FB79     		ldrb	r3, [r7, #7]
 254 0158 43F00103 		orr	r3, r3, #1
 255 015c FB71     		strb	r3, [r7, #7]
 256 015e 16E0     		b	.L6
 257              	.L20:
 147:protocol.c    ****           } else if (c >= 'a' && c <= 'z') { // Upcase lowercase
 258              		.loc 1 147 0
 259 0160 7B79     		ldrb	r3, [r7, #5]	@ zero_extendqisi2
 260 0162 602B     		cmp	r3, #96
 261 0164 0CD9     		bls	.L21
 262              		.loc 1 147 0 is_stmt 0 discriminator 1
 263 0166 7B79     		ldrb	r3, [r7, #5]	@ zero_extendqisi2
 264 0168 7A2B     		cmp	r3, #122
 265 016a 09D8     		bhi	.L21
 148:protocol.c    ****             line[char_counter++] = c-'a'+'A';
 266              		.loc 1 148 0 is_stmt 1
 267 016c BB79     		ldrb	r3, [r7, #6]	@ zero_extendqisi2
 268 016e 5A1C     		adds	r2, r3, #1
 269 0170 BA71     		strb	r2, [r7, #6]
 270 0172 1A46     		mov	r2, r3
 271 0174 7B79     		ldrb	r3, [r7, #5]
 272 0176 203B     		subs	r3, r3, #32
 273 0178 D9B2     		uxtb	r1, r3
 274 017a 134B     		ldr	r3, .L27+12
 275 017c 9954     		strb	r1, [r3, r2]
 276 017e 06E0     		b	.L6
 277              	.L21:
 149:protocol.c    ****           } else {
 150:protocol.c    ****             line[char_counter++] = c;
 278              		.loc 1 150 0
 279 0180 BB79     		ldrb	r3, [r7, #6]	@ zero_extendqisi2
 280 0182 5A1C     		adds	r2, r3, #1
 281 0184 BA71     		strb	r2, [r7, #6]
 282 0186 1946     		mov	r1, r3
 283 0188 0F4A     		ldr	r2, .L27+12
 284 018a 7B79     		ldrb	r3, [r7, #5]
 285 018c 5354     		strb	r3, [r2, r1]
 286              	.L6:
  81:protocol.c    ****       if ((c == '\n') || (c == '\r')) { // End of line reached
 287              		.loc 1 81 0
 288 018e FFF7FEFF 		bl	serial_read
 289 0192 0346     		mov	r3, r0
 290 0194 7B71     		strb	r3, [r7, #5]
 291 0196 7B79     		ldrb	r3, [r7, #5]	@ zero_extendqisi2
 292 0198 FF2B     		cmp	r3, #255
 293 019a 7FF46FAF 		bne	.L22
 151:protocol.c    ****           }
 152:protocol.c    ****         }
 153:protocol.c    **** 
 154:protocol.c    ****       }
 155:protocol.c    ****       
 156:protocol.c    ****     
 157:protocol.c    ****       
 158:protocol.c    ****     }
ARM GAS  C:\Users\barto\AppData\Local\Temp\ccvWJHma.s 			page 9


 159:protocol.c    **** 
 160:protocol.c    ****     // If there are no more characters in the serial read buffer to be processed and executed,
 161:protocol.c    ****     // this indicates that g-code streaming has either filled the planner buffer or has
 162:protocol.c    ****     // completed. In either case, auto-cycle start, if enabled, any queued moves.
 163:protocol.c    ****     protocol_auto_cycle_start();
 294              		.loc 1 163 0
 295 019e FFF7FEFF 		bl	protocol_auto_cycle_start
 164:protocol.c    **** 
 165:protocol.c    ****     protocol_execute_realtime();  // Runtime command check point.
 296              		.loc 1 165 0
 297 01a2 FFF7FEFF 		bl	protocol_execute_realtime
 166:protocol.c    ****     if (sys.abort) { return; } // Bail to main() program loop to reset system.
 298              		.loc 1 166 0
 299 01a6 064B     		ldr	r3, .L27+4
 300 01a8 5B78     		ldrb	r3, [r3, #1]	@ zero_extendqisi2
 301 01aa 002B     		cmp	r3, #0
 302 01ac 02D1     		bne	.L26
 167:protocol.c    ****   }
 303              		.loc 1 167 0
 304 01ae 62E7     		b	.L24
 305              	.L25:
  85:protocol.c    **** 
 306              		.loc 1 85 0
 307 01b0 00BF     		nop
 308 01b2 00E0     		b	.L1
 309              	.L26:
 166:protocol.c    ****     if (sys.abort) { return; } // Bail to main() program loop to reset system.
 310              		.loc 1 166 0
 311 01b4 00BF     		nop
 312              	.L1:
 168:protocol.c    **** 
 169:protocol.c    ****   return; /* Never reached */
 170:protocol.c    **** }
 313              		.loc 1 170 0
 314 01b6 0837     		adds	r7, r7, #8
 315              		.cfi_def_cfa_offset 8
 316 01b8 BD46     		mov	sp, r7
 317              		.cfi_def_cfa_register 13
 318              		@ sp needed
 319 01ba 80BD     		pop	{r7, pc}
 320              	.L28:
 321              		.align	2
 322              	.L27:
 323 01bc 00000000 		.word	settings
 324 01c0 00000000 		.word	sys
 325 01c4 00000000 		.word	sys_rt_exec_state
 326 01c8 00000000 		.word	line
 327              		.cfi_endproc
 328              	.LFE64:
 329              		.size	protocol_main_loop, .-protocol_main_loop
 330              		.section	.text.protocol_buffer_synchronize,"ax",%progbits
 331              		.align	2
 332              		.global	protocol_buffer_synchronize
 333              		.thumb
 334              		.thumb_func
 335              		.type	protocol_buffer_synchronize, %function
 336              	protocol_buffer_synchronize:
ARM GAS  C:\Users\barto\AppData\Local\Temp\ccvWJHma.s 			page 10


 337              	.LFB65:
 171:protocol.c    **** 
 172:protocol.c    **** 
 173:protocol.c    **** // Block until all buffered steps are executed or in a cycle state. Works with feed hold
 174:protocol.c    **** // during a synchronize call, if it should happen. Also, waits for clean cycle end.
 175:protocol.c    **** void protocol_buffer_synchronize()
 176:protocol.c    **** {
 338              		.loc 1 176 0
 339              		.cfi_startproc
 340              		@ args = 0, pretend = 0, frame = 0
 341              		@ frame_needed = 1, uses_anonymous_args = 0
 342 0000 80B5     		push	{r7, lr}
 343              		.cfi_def_cfa_offset 8
 344              		.cfi_offset 7, -8
 345              		.cfi_offset 14, -4
 346 0002 00AF     		add	r7, sp, #0
 347              		.cfi_def_cfa_register 7
 177:protocol.c    ****   // If system is queued, ensure cycle resumes if the auto start flag is present.
 178:protocol.c    ****   protocol_auto_cycle_start();
 348              		.loc 1 178 0
 349 0004 FFF7FEFF 		bl	protocol_auto_cycle_start
 350              	.L32:
 179:protocol.c    ****   do {
 180:protocol.c    ****     protocol_execute_realtime();   // Check and execute run-time commands
 351              		.loc 1 180 0
 352 0008 FFF7FEFF 		bl	protocol_execute_realtime
 181:protocol.c    ****     if (sys.abort) { return; } // Check for system abort
 353              		.loc 1 181 0
 354 000c 074B     		ldr	r3, .L34
 355 000e 5B78     		ldrb	r3, [r3, #1]	@ zero_extendqisi2
 356 0010 002B     		cmp	r3, #0
 357 0012 09D1     		bne	.L33
 182:protocol.c    ****   } while (plan_get_current_block() || (sys.state == STATE_CYCLE));
 358              		.loc 1 182 0
 359 0014 FFF7FEFF 		bl	plan_get_current_block
 360 0018 0346     		mov	r3, r0
 361 001a 002B     		cmp	r3, #0
 362 001c F4D1     		bne	.L32
 363              		.loc 1 182 0 is_stmt 0 discriminator 1
 364 001e 034B     		ldr	r3, .L34
 365 0020 1B78     		ldrb	r3, [r3]	@ zero_extendqisi2
 366 0022 082B     		cmp	r3, #8
 367 0024 F0D0     		beq	.L32
 368 0026 00E0     		b	.L29
 369              	.L33:
 181:protocol.c    ****     if (sys.abort) { return; } // Check for system abort
 370              		.loc 1 181 0 is_stmt 1
 371 0028 00BF     		nop
 372              	.L29:
 183:protocol.c    **** }
 373              		.loc 1 183 0
 374 002a 80BD     		pop	{r7, pc}
 375              	.L35:
 376              		.align	2
 377              	.L34:
 378 002c 00000000 		.word	sys
 379              		.cfi_endproc
ARM GAS  C:\Users\barto\AppData\Local\Temp\ccvWJHma.s 			page 11


 380              	.LFE65:
 381              		.size	protocol_buffer_synchronize, .-protocol_buffer_synchronize
 382              		.section	.text.protocol_auto_cycle_start,"ax",%progbits
 383              		.align	2
 384              		.global	protocol_auto_cycle_start
 385              		.thumb
 386              		.thumb_func
 387              		.type	protocol_auto_cycle_start, %function
 388              	protocol_auto_cycle_start:
 389              	.LFB66:
 184:protocol.c    **** 
 185:protocol.c    **** 
 186:protocol.c    **** // Auto-cycle start triggers when there is a motion ready to execute and if the main program is not
 187:protocol.c    **** // actively parsing commands.
 188:protocol.c    **** // NOTE: This function is called from the main loop, buffer sync, and mc_line() only and executes
 189:protocol.c    **** // when one of these conditions exist respectively: There are no more blocks sent (i.e. streaming
 190:protocol.c    **** // is finished, single commands), a command that needs to wait for the motions in the buffer to
 191:protocol.c    **** // execute calls a buffer sync, or the planner buffer is full and ready to go.
 192:protocol.c    **** void protocol_auto_cycle_start()
 193:protocol.c    **** {
 390              		.loc 1 193 0
 391              		.cfi_startproc
 392              		@ args = 0, pretend = 0, frame = 0
 393              		@ frame_needed = 1, uses_anonymous_args = 0
 394 0000 80B5     		push	{r7, lr}
 395              		.cfi_def_cfa_offset 8
 396              		.cfi_offset 7, -8
 397              		.cfi_offset 14, -4
 398 0002 00AF     		add	r7, sp, #0
 399              		.cfi_def_cfa_register 7
 194:protocol.c    ****   if (plan_get_current_block() != NULL) { // Check if there are any blocks in the buffer.
 400              		.loc 1 194 0
 401 0004 FFF7FEFF 		bl	plan_get_current_block
 402 0008 0346     		mov	r3, r0
 403 000a 002B     		cmp	r3, #0
 404 000c 02D0     		beq	.L38
 195:protocol.c    ****     system_set_exec_state_flag(EXEC_CYCLE_START); // If so, execute them!
 405              		.loc 1 195 0
 406 000e 0220     		movs	r0, #2
 407 0010 FFF7FEFF 		bl	system_set_exec_state_flag
 408              	.L38:
 196:protocol.c    ****   }
 197:protocol.c    **** }
 409              		.loc 1 197 0
 410 0014 00BF     		nop
 411 0016 80BD     		pop	{r7, pc}
 412              		.cfi_endproc
 413              	.LFE66:
 414              		.size	protocol_auto_cycle_start, .-protocol_auto_cycle_start
 415              		.section	.text.protocol_execute_realtime,"ax",%progbits
 416              		.align	2
 417              		.global	protocol_execute_realtime
 418              		.thumb
 419              		.thumb_func
 420              		.type	protocol_execute_realtime, %function
 421              	protocol_execute_realtime:
 422              	.LFB67:
ARM GAS  C:\Users\barto\AppData\Local\Temp\ccvWJHma.s 			page 12


 198:protocol.c    **** 
 199:protocol.c    **** 
 200:protocol.c    **** // This function is the general interface to Grbl's real-time command execution system. It is calle
 201:protocol.c    **** // from various check points in the main program, primarily where there may be a while loop waiting
 202:protocol.c    **** // for a buffer to clear space or any point where the execution time from the last check point may
 203:protocol.c    **** // be more than a fraction of a second. This is a way to execute realtime commands asynchronously
 204:protocol.c    **** // (aka multitasking) with grbl's g-code parsing and planning functions. This function also serves
 205:protocol.c    **** // as an interface for the interrupts to set the system realtime flags, where only the main program
 206:protocol.c    **** // handles them, removing the need to define more computationally-expensive volatile variables. Thi
 207:protocol.c    **** // also provides a controlled way to execute certain tasks without having two or more instances of
 208:protocol.c    **** // the same task, such as the planner recalculating the buffer upon a feedhold or overrides.
 209:protocol.c    **** // NOTE: The sys_rt_exec_state variable flags are set by any process, step or serial interrupts, pi
 210:protocol.c    **** // limit switches, or the main program.
 211:protocol.c    **** void protocol_execute_realtime()
 212:protocol.c    **** {
 423              		.loc 1 212 0
 424              		.cfi_startproc
 425              		@ args = 0, pretend = 0, frame = 0
 426              		@ frame_needed = 1, uses_anonymous_args = 0
 427 0000 80B5     		push	{r7, lr}
 428              		.cfi_def_cfa_offset 8
 429              		.cfi_offset 7, -8
 430              		.cfi_offset 14, -4
 431 0002 00AF     		add	r7, sp, #0
 432              		.cfi_def_cfa_register 7
 213:protocol.c    ****   protocol_exec_rt_system();
 433              		.loc 1 213 0
 434 0004 FFF7FEFF 		bl	protocol_exec_rt_system
 214:protocol.c    ****   if (sys.suspend) { protocol_exec_rt_suspend(); }
 435              		.loc 1 214 0
 436 0008 034B     		ldr	r3, .L42
 437 000a 9B78     		ldrb	r3, [r3, #2]	@ zero_extendqisi2
 438 000c 002B     		cmp	r3, #0
 439 000e 01D0     		beq	.L41
 440              		.loc 1 214 0 is_stmt 0 discriminator 1
 441 0010 FFF7FEFF 		bl	protocol_exec_rt_suspend
 442              	.L41:
 215:protocol.c    ****   
 216:protocol.c    ****    
 217:protocol.c    ****   
 218:protocol.c    **** }
 443              		.loc 1 218 0 is_stmt 1
 444 0014 00BF     		nop
 445 0016 80BD     		pop	{r7, pc}
 446              	.L43:
 447              		.align	2
 448              	.L42:
 449 0018 00000000 		.word	sys
 450              		.cfi_endproc
 451              	.LFE67:
 452              		.size	protocol_execute_realtime, .-protocol_execute_realtime
 453              		.section	.text.protocol_exec_rt_system,"ax",%progbits
 454              		.align	2
 455              		.global	protocol_exec_rt_system
 456              		.thumb
 457              		.thumb_func
 458              		.type	protocol_exec_rt_system, %function
ARM GAS  C:\Users\barto\AppData\Local\Temp\ccvWJHma.s 			page 13


 459              	protocol_exec_rt_system:
 460              	.LFB68:
 219:protocol.c    **** 
 220:protocol.c    **** 
 221:protocol.c    **** // Executes run-time commands, when required. This function primarily operates as Grbl's state
 222:protocol.c    **** // machine and controls the various real-time features Grbl has to offer.
 223:protocol.c    **** // NOTE: Do not alter this unless you know exactly what you are doing!
 224:protocol.c    **** void protocol_exec_rt_system()
 225:protocol.c    **** {
 461              		.loc 1 225 0
 462              		.cfi_startproc
 463              		@ args = 0, pretend = 0, frame = 8
 464              		@ frame_needed = 1, uses_anonymous_args = 0
 465 0000 80B5     		push	{r7, lr}
 466              		.cfi_def_cfa_offset 8
 467              		.cfi_offset 7, -8
 468              		.cfi_offset 14, -4
 469 0002 82B0     		sub	sp, sp, #8
 470              		.cfi_def_cfa_offset 16
 471 0004 00AF     		add	r7, sp, #0
 472              		.cfi_def_cfa_register 7
 226:protocol.c    ****   uint8_t rt_exec; // Temp variable to avoid calling volatile multiple times.
 227:protocol.c    ****   rt_exec = sys_rt_exec_alarm; // Copy volatile sys_rt_exec_alarm.
 473              		.loc 1 227 0
 474 0006 9E4B     		ldr	r3, .L99
 475 0008 1B78     		ldrb	r3, [r3]
 476 000a FB70     		strb	r3, [r7, #3]
 228:protocol.c    ****   if (rt_exec) { // Enter only if any bit flag is true
 477              		.loc 1 228 0
 478 000c FB78     		ldrb	r3, [r7, #3]	@ zero_extendqisi2
 479 000e 002B     		cmp	r3, #0
 480 0010 1CD0     		beq	.L45
 229:protocol.c    ****     // System alarm. Everything has shutdown by something that has gone severely wrong. Report
 230:protocol.c    ****     // the source of the error to the user. If critical, Grbl disables by entering an infinite
 231:protocol.c    ****     // loop until system reset/abort.
 232:protocol.c    ****     sys.state = STATE_ALARM; // Set system alarm state
 481              		.loc 1 232 0
 482 0012 9C4B     		ldr	r3, .L99+4
 483 0014 0122     		movs	r2, #1
 484 0016 1A70     		strb	r2, [r3]
 233:protocol.c    ****     report_alarm_message(rt_exec);
 485              		.loc 1 233 0
 486 0018 97F90330 		ldrsb	r3, [r7, #3]
 487 001c 1846     		mov	r0, r3
 488 001e FFF7FEFF 		bl	report_alarm_message
 234:protocol.c    ****     // Halt everything upon a critical event flag. Currently hard and soft limits flag this.
 235:protocol.c    ****     if ((rt_exec == EXEC_ALARM_HARD_LIMIT) || (rt_exec == EXEC_ALARM_SOFT_LIMIT)) {
 489              		.loc 1 235 0
 490 0022 FB78     		ldrb	r3, [r7, #3]	@ zero_extendqisi2
 491 0024 012B     		cmp	r3, #1
 492 0026 02D0     		beq	.L46
 493              		.loc 1 235 0 is_stmt 0 discriminator 1
 494 0028 FB78     		ldrb	r3, [r7, #3]	@ zero_extendqisi2
 495 002a 022B     		cmp	r3, #2
 496 002c 0CD1     		bne	.L47
 497              	.L46:
 236:protocol.c    ****       report_feedback_message(MESSAGE_CRITICAL_EVENT);
ARM GAS  C:\Users\barto\AppData\Local\Temp\ccvWJHma.s 			page 14


 498              		.loc 1 236 0 is_stmt 1
 499 002e 0120     		movs	r0, #1
 500 0030 FFF7FEFF 		bl	report_feedback_message
 237:protocol.c    ****       system_clear_exec_state_flag(EXEC_RESET); // Disable any existing reset
 501              		.loc 1 237 0
 502 0034 1020     		movs	r0, #16
 503 0036 FFF7FEFF 		bl	system_clear_exec_state_flag
 504              	.L48:
 238:protocol.c    ****       do {
 239:protocol.c    ****         // Block everything, except reset and status reports, until user issues reset or power
 240:protocol.c    ****         // cycles. Hard limits typically occur while unattended or not paying attention. Gives
 241:protocol.c    ****         // the user and a GUI time to do what is needed before resetting, like killing the
 242:protocol.c    ****         // incoming stream. The same could be said about soft limits. While the position is not
 243:protocol.c    ****         // lost, continued streaming could cause a serious crash if by chance it gets executed.
 244:protocol.c    ****       } while (bit_isfalse(sys_rt_exec_state,EXEC_RESET));
 505              		.loc 1 244 0 discriminator 1
 506 003a 934B     		ldr	r3, .L99+8
 507 003c 1B78     		ldrb	r3, [r3]
 508 003e DBB2     		uxtb	r3, r3
 509 0040 03F01003 		and	r3, r3, #16
 510 0044 002B     		cmp	r3, #0
 511 0046 F8D0     		beq	.L48
 512              	.L47:
 245:protocol.c    ****     }
 246:protocol.c    ****     system_clear_exec_alarm(); // Clear alarm
 513              		.loc 1 246 0
 514 0048 FFF7FEFF 		bl	system_clear_exec_alarm
 515              	.L45:
 247:protocol.c    ****   }
 248:protocol.c    **** 
 249:protocol.c    ****   rt_exec = sys_rt_exec_state; // Copy volatile sys_rt_exec_state.
 516              		.loc 1 249 0
 517 004c 8E4B     		ldr	r3, .L99+8
 518 004e 1B78     		ldrb	r3, [r3]
 519 0050 FB70     		strb	r3, [r7, #3]
 250:protocol.c    ****   if (rt_exec) {
 520              		.loc 1 250 0
 521 0052 FB78     		ldrb	r3, [r7, #3]	@ zero_extendqisi2
 522 0054 002B     		cmp	r3, #0
 523 0056 00F07E81 		beq	.L49
 251:protocol.c    **** 
 252:protocol.c    ****     // Execute system abort.
 253:protocol.c    ****     if (rt_exec & EXEC_RESET) {
 524              		.loc 1 253 0
 525 005a FB78     		ldrb	r3, [r7, #3]	@ zero_extendqisi2
 526 005c 03F01003 		and	r3, r3, #16
 527 0060 002B     		cmp	r3, #0
 528 0062 03D0     		beq	.L50
 254:protocol.c    ****       sys.abort = true;  // Only place this is set true.
 529              		.loc 1 254 0
 530 0064 874B     		ldr	r3, .L99+4
 531 0066 0122     		movs	r2, #1
 532 0068 5A70     		strb	r2, [r3, #1]
 255:protocol.c    ****       return; // Nothing else to do but exit.
 533              		.loc 1 255 0
 534 006a 98E2     		b	.L44
 535              	.L50:
ARM GAS  C:\Users\barto\AppData\Local\Temp\ccvWJHma.s 			page 15


 256:protocol.c    ****     }
 257:protocol.c    **** 
 258:protocol.c    ****     // Execute and serial print status
 259:protocol.c    ****     if (rt_exec & EXEC_STATUS_REPORT) {
 536              		.loc 1 259 0
 537 006c FB78     		ldrb	r3, [r7, #3]	@ zero_extendqisi2
 538 006e 03F00103 		and	r3, r3, #1
 539 0072 002B     		cmp	r3, #0
 540 0074 04D0     		beq	.L52
 260:protocol.c    ****       report_realtime_status();
 541              		.loc 1 260 0
 542 0076 FFF7FEFF 		bl	report_realtime_status
 261:protocol.c    ****       system_clear_exec_state_flag(EXEC_STATUS_REPORT);
 543              		.loc 1 261 0
 544 007a 0120     		movs	r0, #1
 545 007c FFF7FEFF 		bl	system_clear_exec_state_flag
 546              	.L52:
 262:protocol.c    ****     }
 263:protocol.c    ****     
 264:protocol.c    ****     
 265:protocol.c    **** 
 266:protocol.c    ****     // NOTE: Once hold is initiated, the system immediately enters a suspend state to block all
 267:protocol.c    ****     // main program processes until either reset or resumed. This ensures a hold completes safely.
 268:protocol.c    ****     if (rt_exec & (EXEC_MOTION_CANCEL | EXEC_FEED_HOLD | EXEC_SAFETY_DOOR | EXEC_SLEEP)) {
 547              		.loc 1 268 0
 548 0080 FB78     		ldrb	r3, [r7, #3]	@ zero_extendqisi2
 549 0082 03F0E803 		and	r3, r3, #232
 550 0086 002B     		cmp	r3, #0
 551 0088 00F09580 		beq	.L53
 269:protocol.c    **** 
 270:protocol.c    ****       // State check for allowable states for hold methods.
 271:protocol.c    ****       if (!(sys.state & (STATE_ALARM | STATE_CHECK_MODE))) {
 552              		.loc 1 271 0
 553 008c 7D4B     		ldr	r3, .L99+4
 554 008e 1B78     		ldrb	r3, [r3]	@ zero_extendqisi2
 555 0090 03F00303 		and	r3, r3, #3
 556 0094 002B     		cmp	r3, #0
 557 0096 79D1     		bne	.L54
 272:protocol.c    ****       
 273:protocol.c    ****         // If in CYCLE or JOG states, immediately initiate a motion HOLD.
 274:protocol.c    ****         if (sys.state & (STATE_CYCLE | STATE_JOG)) {
 558              		.loc 1 274 0
 559 0098 7A4B     		ldr	r3, .L99+4
 560 009a 1B78     		ldrb	r3, [r3]	@ zero_extendqisi2
 561 009c 03F02803 		and	r3, r3, #40
 562 00a0 002B     		cmp	r3, #0
 563 00a2 19D0     		beq	.L55
 275:protocol.c    ****           if (!(sys.suspend & (SUSPEND_MOTION_CANCEL | SUSPEND_JOG_CANCEL))) { // Block, if already
 564              		.loc 1 275 0
 565 00a4 774B     		ldr	r3, .L99+4
 566 00a6 9B78     		ldrb	r3, [r3, #2]	@ zero_extendqisi2
 567 00a8 03F0C003 		and	r3, r3, #192
 568 00ac 002B     		cmp	r3, #0
 569 00ae 13D1     		bne	.L55
 276:protocol.c    ****             st_update_plan_block_parameters(); // Notify stepper module to recompute for hold decel
 570              		.loc 1 276 0
 571 00b0 FFF7FEFF 		bl	st_update_plan_block_parameters
ARM GAS  C:\Users\barto\AppData\Local\Temp\ccvWJHma.s 			page 16


 277:protocol.c    ****             sys.step_control = STEP_CONTROL_EXECUTE_HOLD; // Initiate suspend state with active fla
 572              		.loc 1 277 0
 573 00b4 734B     		ldr	r3, .L99+4
 574 00b6 0222     		movs	r2, #2
 575 00b8 1A71     		strb	r2, [r3, #4]
 278:protocol.c    ****             if (sys.state == STATE_JOG) { // Jog cancelled upon any hold event, except for sleeping
 576              		.loc 1 278 0
 577 00ba 724B     		ldr	r3, .L99+4
 578 00bc 1B78     		ldrb	r3, [r3]	@ zero_extendqisi2
 579 00be 202B     		cmp	r3, #32
 580 00c0 0AD1     		bne	.L55
 279:protocol.c    ****               if (!(rt_exec & EXEC_SLEEP)) { sys.suspend |= SUSPEND_JOG_CANCEL; } 
 581              		.loc 1 279 0
 582 00c2 97F90330 		ldrsb	r3, [r7, #3]
 583 00c6 002B     		cmp	r3, #0
 584 00c8 06DB     		blt	.L55
 585              		.loc 1 279 0 is_stmt 0 discriminator 1
 586 00ca 6E4B     		ldr	r3, .L99+4
 587 00cc 9B78     		ldrb	r3, [r3, #2]	@ zero_extendqisi2
 588 00ce 63F07F03 		orn	r3, r3, #127
 589 00d2 DAB2     		uxtb	r2, r3
 590 00d4 6B4B     		ldr	r3, .L99+4
 591 00d6 9A70     		strb	r2, [r3, #2]
 592              	.L55:
 280:protocol.c    ****             }
 281:protocol.c    ****           }
 282:protocol.c    ****         }
 283:protocol.c    ****         // If IDLE, Grbl is not in motion. Simply indicate suspend state and hold is complete.
 284:protocol.c    ****         if (sys.state == STATE_IDLE) { sys.suspend = SUSPEND_HOLD_COMPLETE; }
 593              		.loc 1 284 0 is_stmt 1
 594 00d8 6A4B     		ldr	r3, .L99+4
 595 00da 1B78     		ldrb	r3, [r3]	@ zero_extendqisi2
 596 00dc 002B     		cmp	r3, #0
 597 00de 02D1     		bne	.L56
 598              		.loc 1 284 0 is_stmt 0 discriminator 1
 599 00e0 684B     		ldr	r3, .L99+4
 600 00e2 0122     		movs	r2, #1
 601 00e4 9A70     		strb	r2, [r3, #2]
 602              	.L56:
 285:protocol.c    **** 
 286:protocol.c    ****         // Execute and flag a motion cancel with deceleration and return to idle. Used primarily by
 287:protocol.c    ****         // to halt and cancel the remainder of the motion.
 288:protocol.c    ****         if (rt_exec & EXEC_MOTION_CANCEL) {
 603              		.loc 1 288 0 is_stmt 1
 604 00e6 FB78     		ldrb	r3, [r7, #3]	@ zero_extendqisi2
 605 00e8 03F04003 		and	r3, r3, #64
 606 00ec 002B     		cmp	r3, #0
 607 00ee 0CD0     		beq	.L57
 289:protocol.c    ****           // MOTION_CANCEL only occurs during a CYCLE, but a HOLD and SAFETY_DOOR may been initiate
 290:protocol.c    ****           // to hold the CYCLE. Motion cancel is valid for a single planner block motion only, whil
 291:protocol.c    ****           // will handle and clear multiple planner block motions.
 292:protocol.c    ****           if (!(sys.state & STATE_JOG)) { sys.suspend |= SUSPEND_MOTION_CANCEL; } // NOTE: State is
 608              		.loc 1 292 0
 609 00f0 644B     		ldr	r3, .L99+4
 610 00f2 1B78     		ldrb	r3, [r3]	@ zero_extendqisi2
 611 00f4 03F02003 		and	r3, r3, #32
 612 00f8 002B     		cmp	r3, #0
ARM GAS  C:\Users\barto\AppData\Local\Temp\ccvWJHma.s 			page 17


 613 00fa 06D1     		bne	.L57
 614              		.loc 1 292 0 is_stmt 0 discriminator 1
 615 00fc 614B     		ldr	r3, .L99+4
 616 00fe 9B78     		ldrb	r3, [r3, #2]	@ zero_extendqisi2
 617 0100 43F04003 		orr	r3, r3, #64
 618 0104 DAB2     		uxtb	r2, r3
 619 0106 5F4B     		ldr	r3, .L99+4
 620 0108 9A70     		strb	r2, [r3, #2]
 621              	.L57:
 293:protocol.c    ****         }
 294:protocol.c    **** 
 295:protocol.c    ****         // Execute a feed hold with deceleration, if required. Then, suspend system.
 296:protocol.c    ****         if (rt_exec & EXEC_FEED_HOLD) {
 622              		.loc 1 296 0 is_stmt 1
 623 010a FB78     		ldrb	r3, [r7, #3]	@ zero_extendqisi2
 624 010c 03F00803 		and	r3, r3, #8
 625 0110 002B     		cmp	r3, #0
 626 0112 08D0     		beq	.L58
 297:protocol.c    ****           // Block SAFETY_DOOR, JOG, and SLEEP states from changing to HOLD state.
 298:protocol.c    ****           if (!(sys.state & (STATE_SAFETY_DOOR | STATE_JOG | STATE_SLEEP))) { sys.state = STATE_HOL
 627              		.loc 1 298 0
 628 0114 5B4B     		ldr	r3, .L99+4
 629 0116 1B78     		ldrb	r3, [r3]	@ zero_extendqisi2
 630 0118 03F0E003 		and	r3, r3, #224
 631 011c 002B     		cmp	r3, #0
 632 011e 02D1     		bne	.L58
 633              		.loc 1 298 0 is_stmt 0 discriminator 1
 634 0120 584B     		ldr	r3, .L99+4
 635 0122 1022     		movs	r2, #16
 636 0124 1A70     		strb	r2, [r3]
 637              	.L58:
 299:protocol.c    ****         }
 300:protocol.c    **** 
 301:protocol.c    ****         // Execute a safety door stop with a feed hold and disable spindle/coolant.
 302:protocol.c    ****         // NOTE: Safety door differs from feed holds by stopping everything no matter state, disabl
 303:protocol.c    ****         // devices (spindle/coolant), and blocks resuming until switch is re-engaged.
 304:protocol.c    ****         if (rt_exec & EXEC_SAFETY_DOOR) {
 638              		.loc 1 304 0 is_stmt 1
 639 0126 FB78     		ldrb	r3, [r7, #3]	@ zero_extendqisi2
 640 0128 03F02003 		and	r3, r3, #32
 641 012c 002B     		cmp	r3, #0
 642 012e 2DD0     		beq	.L54
 305:protocol.c    ****           report_feedback_message(MESSAGE_SAFETY_DOOR_AJAR);
 643              		.loc 1 305 0
 644 0130 0620     		movs	r0, #6
 645 0132 FFF7FEFF 		bl	report_feedback_message
 306:protocol.c    ****           // If jogging, block safety door methods until jog cancel is complete. Just flag that it 
 307:protocol.c    ****           if (!(sys.suspend & SUSPEND_JOG_CANCEL)) {
 646              		.loc 1 307 0
 647 0136 534B     		ldr	r3, .L99+4
 648 0138 9B78     		ldrb	r3, [r3, #2]	@ zero_extendqisi2
 649 013a 5BB2     		sxtb	r3, r3
 650 013c 002B     		cmp	r3, #0
 651 013e 1EDB     		blt	.L59
 308:protocol.c    ****             // Check if the safety re-opened during a restore parking motion only. Ignore if
 309:protocol.c    ****             // already retracting, parked or in sleep state.
 310:protocol.c    ****             if (sys.state == STATE_SAFETY_DOOR) {
ARM GAS  C:\Users\barto\AppData\Local\Temp\ccvWJHma.s 			page 18


 652              		.loc 1 310 0
 653 0140 504B     		ldr	r3, .L99+4
 654 0142 1B78     		ldrb	r3, [r3]	@ zero_extendqisi2
 655 0144 402B     		cmp	r3, #64
 656 0146 13D1     		bne	.L60
 311:protocol.c    ****               if (sys.suspend & SUSPEND_INITIATE_RESTORE) { // Actively restoring
 657              		.loc 1 311 0
 658 0148 4E4B     		ldr	r3, .L99+4
 659 014a 9B78     		ldrb	r3, [r3, #2]	@ zero_extendqisi2
 660 014c 03F00803 		and	r3, r3, #8
 661 0150 002B     		cmp	r3, #0
 662 0152 0DD0     		beq	.L60
 312:protocol.c    ****                 #ifdef PARKING_ENABLE
 313:protocol.c    ****                   // Set hold and reset appropriate control flags to restart parking sequence.
 314:protocol.c    ****                   if (sys.step_control & STEP_CONTROL_EXECUTE_SYS_MOTION) {
 315:protocol.c    ****                     st_update_plan_block_parameters(); // Notify stepper module to recompute for ho
 316:protocol.c    ****                     sys.step_control = (STEP_CONTROL_EXECUTE_HOLD | STEP_CONTROL_EXECUTE_SYS_MOTION
 317:protocol.c    ****                     sys.suspend &= ~(SUSPEND_HOLD_COMPLETE);
 318:protocol.c    ****                   } // else NO_MOTION is active.
 319:protocol.c    ****                 #endif
 320:protocol.c    ****                 sys.suspend &= ~(SUSPEND_RETRACT_COMPLETE | SUSPEND_INITIATE_RESTORE | SUSPEND_REST
 663              		.loc 1 320 0
 664 0154 4B4B     		ldr	r3, .L99+4
 665 0156 9B78     		ldrb	r3, [r3, #2]	@ zero_extendqisi2
 666 0158 23F01C03 		bic	r3, r3, #28
 667 015c DAB2     		uxtb	r2, r3
 668 015e 494B     		ldr	r3, .L99+4
 669 0160 9A70     		strb	r2, [r3, #2]
 321:protocol.c    ****                 sys.suspend |= SUSPEND_RESTART_RETRACT;
 670              		.loc 1 321 0
 671 0162 484B     		ldr	r3, .L99+4
 672 0164 9B78     		ldrb	r3, [r3, #2]	@ zero_extendqisi2
 673 0166 43F00203 		orr	r3, r3, #2
 674 016a DAB2     		uxtb	r2, r3
 675 016c 454B     		ldr	r3, .L99+4
 676 016e 9A70     		strb	r2, [r3, #2]
 677              	.L60:
 322:protocol.c    ****               }
 323:protocol.c    ****             }
 324:protocol.c    ****             if (sys.state != STATE_SLEEP) { sys.state = STATE_SAFETY_DOOR; }
 678              		.loc 1 324 0
 679 0170 444B     		ldr	r3, .L99+4
 680 0172 1B78     		ldrb	r3, [r3]	@ zero_extendqisi2
 681 0174 802B     		cmp	r3, #128
 682 0176 02D0     		beq	.L59
 683              		.loc 1 324 0 is_stmt 0 discriminator 1
 684 0178 424B     		ldr	r3, .L99+4
 685 017a 4022     		movs	r2, #64
 686 017c 1A70     		strb	r2, [r3]
 687              	.L59:
 325:protocol.c    ****           }
 326:protocol.c    ****           // NOTE: This flag doesn't change when the door closes, unlike sys.state. Ensures any par
 327:protocol.c    ****           // are executed if the door switch closes and the state returns to HOLD.
 328:protocol.c    ****           sys.suspend |= SUSPEND_SAFETY_DOOR_AJAR;
 688              		.loc 1 328 0 is_stmt 1
 689 017e 414B     		ldr	r3, .L99+4
 690 0180 9B78     		ldrb	r3, [r3, #2]	@ zero_extendqisi2
ARM GAS  C:\Users\barto\AppData\Local\Temp\ccvWJHma.s 			page 19


 691 0182 43F02003 		orr	r3, r3, #32
 692 0186 DAB2     		uxtb	r2, r3
 693 0188 3E4B     		ldr	r3, .L99+4
 694 018a 9A70     		strb	r2, [r3, #2]
 695              	.L54:
 329:protocol.c    ****         }
 330:protocol.c    ****         
 331:protocol.c    ****       }
 332:protocol.c    **** 
 333:protocol.c    ****       if (rt_exec & EXEC_SLEEP) {
 696              		.loc 1 333 0
 697 018c 97F90330 		ldrsb	r3, [r7, #3]
 698 0190 002B     		cmp	r3, #0
 699 0192 0DDA     		bge	.L61
 334:protocol.c    ****         if (sys.state == STATE_ALARM) { sys.suspend |= (SUSPEND_RETRACT_COMPLETE|SUSPEND_HOLD_COMPL
 700              		.loc 1 334 0
 701 0194 3B4B     		ldr	r3, .L99+4
 702 0196 1B78     		ldrb	r3, [r3]	@ zero_extendqisi2
 703 0198 012B     		cmp	r3, #1
 704 019a 06D1     		bne	.L62
 705              		.loc 1 334 0 is_stmt 0 discriminator 1
 706 019c 394B     		ldr	r3, .L99+4
 707 019e 9B78     		ldrb	r3, [r3, #2]	@ zero_extendqisi2
 708 01a0 43F00503 		orr	r3, r3, #5
 709 01a4 DAB2     		uxtb	r2, r3
 710 01a6 374B     		ldr	r3, .L99+4
 711 01a8 9A70     		strb	r2, [r3, #2]
 712              	.L62:
 335:protocol.c    ****         sys.state = STATE_SLEEP; 
 713              		.loc 1 335 0 is_stmt 1
 714 01aa 364B     		ldr	r3, .L99+4
 715 01ac 8022     		movs	r2, #128
 716 01ae 1A70     		strb	r2, [r3]
 717              	.L61:
 336:protocol.c    ****       }
 337:protocol.c    **** 
 338:protocol.c    ****       system_clear_exec_state_flag((EXEC_MOTION_CANCEL | EXEC_FEED_HOLD | EXEC_SAFETY_DOOR | EXEC_S
 718              		.loc 1 338 0
 719 01b0 E820     		movs	r0, #232
 720 01b2 FFF7FEFF 		bl	system_clear_exec_state_flag
 721              	.L53:
 339:protocol.c    ****     }
 340:protocol.c    **** 
 341:protocol.c    ****     // Execute a cycle start by starting the stepper interrupt to begin executing the blocks in que
 342:protocol.c    ****     if (rt_exec & EXEC_CYCLE_START) {
 722              		.loc 1 342 0
 723 01b6 FB78     		ldrb	r3, [r7, #3]	@ zero_extendqisi2
 724 01b8 03F00203 		and	r3, r3, #2
 725 01bc 002B     		cmp	r3, #0
 726 01be 6ED0     		beq	.L63
 343:protocol.c    ****       // Block if called at same time as the hold commands: feed hold, motion cancel, and safety do
 344:protocol.c    ****       // Ensures auto-cycle-start doesn't resume a hold without an explicit user-input.
 345:protocol.c    ****       if (!(rt_exec & (EXEC_FEED_HOLD | EXEC_MOTION_CANCEL | EXEC_SAFETY_DOOR))) {
 727              		.loc 1 345 0
 728 01c0 FB78     		ldrb	r3, [r7, #3]	@ zero_extendqisi2
 729 01c2 03F06803 		and	r3, r3, #104
 730 01c6 002B     		cmp	r3, #0
ARM GAS  C:\Users\barto\AppData\Local\Temp\ccvWJHma.s 			page 20


 731 01c8 66D1     		bne	.L64
 346:protocol.c    ****         // Resume door state when parking motion has retracted and door has been closed.
 347:protocol.c    ****         if ((sys.state == STATE_SAFETY_DOOR) && !(sys.suspend & SUSPEND_SAFETY_DOOR_AJAR)) {
 732              		.loc 1 347 0
 733 01ca 2E4B     		ldr	r3, .L99+4
 734 01cc 1B78     		ldrb	r3, [r3]	@ zero_extendqisi2
 735 01ce 402B     		cmp	r3, #64
 736 01d0 1CD1     		bne	.L65
 737              		.loc 1 347 0 is_stmt 0 discriminator 1
 738 01d2 2C4B     		ldr	r3, .L99+4
 739 01d4 9B78     		ldrb	r3, [r3, #2]	@ zero_extendqisi2
 740 01d6 03F02003 		and	r3, r3, #32
 741 01da 002B     		cmp	r3, #0
 742 01dc 16D1     		bne	.L65
 348:protocol.c    ****           if (sys.suspend & SUSPEND_RESTORE_COMPLETE) {
 743              		.loc 1 348 0 is_stmt 1
 744 01de 294B     		ldr	r3, .L99+4
 745 01e0 9B78     		ldrb	r3, [r3, #2]	@ zero_extendqisi2
 746 01e2 03F01003 		and	r3, r3, #16
 747 01e6 002B     		cmp	r3, #0
 748 01e8 03D0     		beq	.L66
 349:protocol.c    ****             sys.state = STATE_IDLE; // Set to IDLE to immediately resume the cycle.
 749              		.loc 1 349 0
 750 01ea 264B     		ldr	r3, .L99+4
 751 01ec 0022     		movs	r2, #0
 752 01ee 1A70     		strb	r2, [r3]
 753 01f0 0CE0     		b	.L65
 754              	.L66:
 350:protocol.c    ****           } else if (sys.suspend & SUSPEND_RETRACT_COMPLETE) {
 755              		.loc 1 350 0
 756 01f2 244B     		ldr	r3, .L99+4
 757 01f4 9B78     		ldrb	r3, [r3, #2]	@ zero_extendqisi2
 758 01f6 03F00403 		and	r3, r3, #4
 759 01fa 002B     		cmp	r3, #0
 760 01fc 06D0     		beq	.L65
 351:protocol.c    ****             // Flag to re-energize powered components and restore original position, if disabled by
 352:protocol.c    ****             // NOTE: For a safety door to resume, the switch must be closed, as indicated by HOLD s
 353:protocol.c    ****             // the retraction execution is complete, which implies the initial feed hold is not act
 354:protocol.c    ****             // restore normal operation, the restore procedures must be initiated by the following 
 355:protocol.c    ****             // they are complete, it will call CYCLE_START automatically to resume and exit the sus
 356:protocol.c    ****             sys.suspend |= SUSPEND_INITIATE_RESTORE;
 761              		.loc 1 356 0
 762 01fe 214B     		ldr	r3, .L99+4
 763 0200 9B78     		ldrb	r3, [r3, #2]	@ zero_extendqisi2
 764 0202 43F00803 		orr	r3, r3, #8
 765 0206 DAB2     		uxtb	r2, r3
 766 0208 1E4B     		ldr	r3, .L99+4
 767 020a 9A70     		strb	r2, [r3, #2]
 768              	.L65:
 357:protocol.c    ****           }
 358:protocol.c    ****         }
 359:protocol.c    ****         // Cycle start only when IDLE or when a hold is complete and ready to resume.
 360:protocol.c    ****         if ((sys.state == STATE_IDLE) || ((sys.state & STATE_HOLD) && (sys.suspend & SUSPEND_HOLD_C
 769              		.loc 1 360 0
 770 020c 1D4B     		ldr	r3, .L99+4
 771 020e 1B78     		ldrb	r3, [r3]	@ zero_extendqisi2
 772 0210 002B     		cmp	r3, #0
ARM GAS  C:\Users\barto\AppData\Local\Temp\ccvWJHma.s 			page 21


 773 0212 0BD0     		beq	.L67
 774              		.loc 1 360 0 is_stmt 0 discriminator 1
 775 0214 1B4B     		ldr	r3, .L99+4
 776 0216 1B78     		ldrb	r3, [r3]	@ zero_extendqisi2
 777 0218 03F01003 		and	r3, r3, #16
 778 021c 002B     		cmp	r3, #0
 779 021e 3BD0     		beq	.L64
 780              		.loc 1 360 0 discriminator 2
 781 0220 184B     		ldr	r3, .L99+4
 782 0222 9B78     		ldrb	r3, [r3, #2]	@ zero_extendqisi2
 783 0224 03F00103 		and	r3, r3, #1
 784 0228 002B     		cmp	r3, #0
 785 022a 35D0     		beq	.L64
 786              	.L67:
 361:protocol.c    ****           if (sys.state == STATE_HOLD && sys.spindle_stop_ovr) {
 787              		.loc 1 361 0 is_stmt 1
 788 022c 154B     		ldr	r3, .L99+4
 789 022e 1B78     		ldrb	r3, [r3]	@ zero_extendqisi2
 790 0230 102B     		cmp	r3, #16
 791 0232 0BD1     		bne	.L68
 792              		.loc 1 361 0 is_stmt 0 discriminator 1
 793 0234 134B     		ldr	r3, .L99+4
 794 0236 9B7A     		ldrb	r3, [r3, #10]	@ zero_extendqisi2
 795 0238 002B     		cmp	r3, #0
 796 023a 07D0     		beq	.L68
 362:protocol.c    ****             sys.spindle_stop_ovr |= SPINDLE_STOP_OVR_RESTORE_CYCLE; // Set to restore in suspend ro
 797              		.loc 1 362 0 is_stmt 1
 798 023c 114B     		ldr	r3, .L99+4
 799 023e 9B7A     		ldrb	r3, [r3, #10]	@ zero_extendqisi2
 800 0240 43F00803 		orr	r3, r3, #8
 801 0244 DAB2     		uxtb	r2, r3
 802 0246 0F4B     		ldr	r3, .L99+4
 803 0248 9A72     		strb	r2, [r3, #10]
 804 024a 25E0     		b	.L64
 805              	.L68:
 363:protocol.c    ****           } else {
 364:protocol.c    ****             // Start cycle only if queued motions exist in planner buffer and the motion is not can
 365:protocol.c    ****             sys.step_control = STEP_CONTROL_NORMAL_OP; // Restore step control to normal operation
 806              		.loc 1 365 0
 807 024c 0D4B     		ldr	r3, .L99+4
 808 024e 0022     		movs	r2, #0
 809 0250 1A71     		strb	r2, [r3, #4]
 366:protocol.c    ****             if (plan_get_current_block() && bit_isfalse(sys.suspend,SUSPEND_MOTION_CANCEL)) {
 810              		.loc 1 366 0
 811 0252 FFF7FEFF 		bl	plan_get_current_block
 812 0256 0346     		mov	r3, r0
 813 0258 002B     		cmp	r3, #0
 814 025a 17D0     		beq	.L69
 815              		.loc 1 366 0 is_stmt 0 discriminator 1
 816 025c 094B     		ldr	r3, .L99+4
 817 025e 9B78     		ldrb	r3, [r3, #2]	@ zero_extendqisi2
 818 0260 03F04003 		and	r3, r3, #64
 819 0264 002B     		cmp	r3, #0
 820 0266 11D1     		bne	.L69
 367:protocol.c    ****               sys.suspend = SUSPEND_DISABLE; // Break suspend state.
 821              		.loc 1 367 0 is_stmt 1
 822 0268 064B     		ldr	r3, .L99+4
ARM GAS  C:\Users\barto\AppData\Local\Temp\ccvWJHma.s 			page 22


 823 026a 0022     		movs	r2, #0
 824 026c 9A70     		strb	r2, [r3, #2]
 368:protocol.c    ****               sys.state = STATE_CYCLE;
 825              		.loc 1 368 0
 826 026e 054B     		ldr	r3, .L99+4
 827 0270 0822     		movs	r2, #8
 828 0272 1A70     		strb	r2, [r3]
 369:protocol.c    ****               st_prep_buffer(); // Initialize step segment buffer before beginning cycle.
 829              		.loc 1 369 0
 830 0274 FFF7FEFF 		bl	st_prep_buffer
 370:protocol.c    ****               st_wake_up();
 831              		.loc 1 370 0
 832 0278 FFF7FEFF 		bl	st_wake_up
 833 027c 0CE0     		b	.L64
 834              	.L100:
 835 027e 00BF     		.align	2
 836              	.L99:
 837 0280 00000000 		.word	sys_rt_exec_alarm
 838 0284 00000000 		.word	sys
 839 0288 00000000 		.word	sys_rt_exec_state
 840              	.L69:
 371:protocol.c    ****             } else { // Otherwise, do nothing. Set and resume IDLE state.
 372:protocol.c    ****               sys.suspend = SUSPEND_DISABLE; // Break suspend state.
 841              		.loc 1 372 0
 842 028c B64B     		ldr	r3, .L101
 843 028e 0022     		movs	r2, #0
 844 0290 9A70     		strb	r2, [r3, #2]
 373:protocol.c    ****               sys.state = STATE_IDLE;
 845              		.loc 1 373 0
 846 0292 B54B     		ldr	r3, .L101
 847 0294 0022     		movs	r2, #0
 848 0296 1A70     		strb	r2, [r3]
 849              	.L64:
 374:protocol.c    ****             }
 375:protocol.c    ****           }
 376:protocol.c    ****         }
 377:protocol.c    ****       }
 378:protocol.c    ****       system_clear_exec_state_flag(EXEC_CYCLE_START);
 850              		.loc 1 378 0
 851 0298 0220     		movs	r0, #2
 852 029a FFF7FEFF 		bl	system_clear_exec_state_flag
 853              	.L63:
 379:protocol.c    ****     }
 380:protocol.c    **** 
 381:protocol.c    ****     if (rt_exec & EXEC_CYCLE_STOP) {
 854              		.loc 1 381 0
 855 029e FB78     		ldrb	r3, [r7, #3]	@ zero_extendqisi2
 856 02a0 03F00403 		and	r3, r3, #4
 857 02a4 002B     		cmp	r3, #0
 858 02a6 56D0     		beq	.L49
 382:protocol.c    ****       // Reinitializes the cycle plan and stepper system after a feed hold for a resume. Called by
 383:protocol.c    ****       // realtime command execution in the main program, ensuring that the planner re-plans safely.
 384:protocol.c    ****       // NOTE: Bresenham algorithm variables are still maintained through both the planner and step
 385:protocol.c    ****       // cycle reinitializations. The stepper path should continue exactly as if nothing has happen
 386:protocol.c    ****       // NOTE: EXEC_CYCLE_STOP is set by the stepper subsystem when a cycle or feed hold completes.
 387:protocol.c    ****       if ((sys.state & (STATE_HOLD|STATE_SAFETY_DOOR|STATE_SLEEP)) && !(sys.soft_limit) && !(sys.su
 859              		.loc 1 387 0
ARM GAS  C:\Users\barto\AppData\Local\Temp\ccvWJHma.s 			page 23


 860 02a8 AF4B     		ldr	r3, .L101
 861 02aa 1B78     		ldrb	r3, [r3]	@ zero_extendqisi2
 862 02ac 03F0D003 		and	r3, r3, #208
 863 02b0 002B     		cmp	r3, #0
 864 02b2 1FD0     		beq	.L70
 865              		.loc 1 387 0 is_stmt 0 discriminator 1
 866 02b4 AC4B     		ldr	r3, .L101
 867 02b6 DB78     		ldrb	r3, [r3, #3]	@ zero_extendqisi2
 868 02b8 002B     		cmp	r3, #0
 869 02ba 1BD1     		bne	.L70
 870              		.loc 1 387 0 discriminator 2
 871 02bc AA4B     		ldr	r3, .L101
 872 02be 9B78     		ldrb	r3, [r3, #2]	@ zero_extendqisi2
 873 02c0 5BB2     		sxtb	r3, r3
 874 02c2 002B     		cmp	r3, #0
 875 02c4 16DB     		blt	.L70
 388:protocol.c    ****         // Hold complete. Set to indicate ready to resume.  Remain in HOLD or DOOR states until use
 389:protocol.c    ****         // has issued a resume command or reset.
 390:protocol.c    ****         plan_cycle_reinitialize();
 876              		.loc 1 390 0 is_stmt 1
 877 02c6 FFF7FEFF 		bl	plan_cycle_reinitialize
 391:protocol.c    ****         if (sys.step_control & STEP_CONTROL_EXECUTE_HOLD) { sys.suspend |= SUSPEND_HOLD_COMPLETE; }
 878              		.loc 1 391 0
 879 02ca A74B     		ldr	r3, .L101
 880 02cc 1B79     		ldrb	r3, [r3, #4]	@ zero_extendqisi2
 881 02ce 03F00203 		and	r3, r3, #2
 882 02d2 002B     		cmp	r3, #0
 883 02d4 06D0     		beq	.L71
 884              		.loc 1 391 0 is_stmt 0 discriminator 1
 885 02d6 A44B     		ldr	r3, .L101
 886 02d8 9B78     		ldrb	r3, [r3, #2]	@ zero_extendqisi2
 887 02da 43F00103 		orr	r3, r3, #1
 888 02de DAB2     		uxtb	r2, r3
 889 02e0 A14B     		ldr	r3, .L101
 890 02e2 9A70     		strb	r2, [r3, #2]
 891              	.L71:
 392:protocol.c    ****         bit_false(sys.step_control,(STEP_CONTROL_EXECUTE_HOLD | STEP_CONTROL_EXECUTE_SYS_MOTION));
 892              		.loc 1 392 0 is_stmt 1
 893 02e4 A04B     		ldr	r3, .L101
 894 02e6 1B79     		ldrb	r3, [r3, #4]	@ zero_extendqisi2
 895 02e8 23F00603 		bic	r3, r3, #6
 896 02ec DAB2     		uxtb	r2, r3
 897 02ee 9E4B     		ldr	r3, .L101
 898 02f0 1A71     		strb	r2, [r3, #4]
 899 02f2 2DE0     		b	.L72
 900              	.L70:
 393:protocol.c    ****       } else {
 394:protocol.c    ****         // Motion complete. Includes CYCLE/JOG/HOMING states and jog cancel/motion cancel/soft limi
 395:protocol.c    ****         // NOTE: Motion and jog cancel both immediately return to idle after the hold completes.
 396:protocol.c    ****         if (sys.suspend & SUSPEND_JOG_CANCEL) {   // For jog cancel, flush buffers and sync positio
 901              		.loc 1 396 0
 902 02f4 9C4B     		ldr	r3, .L101
 903 02f6 9B78     		ldrb	r3, [r3, #2]	@ zero_extendqisi2
 904 02f8 5BB2     		sxtb	r3, r3
 905 02fa 002B     		cmp	r3, #0
 906 02fc 0ADA     		bge	.L73
 397:protocol.c    ****           sys.step_control = STEP_CONTROL_NORMAL_OP;
ARM GAS  C:\Users\barto\AppData\Local\Temp\ccvWJHma.s 			page 24


 907              		.loc 1 397 0
 908 02fe 9A4B     		ldr	r3, .L101
 909 0300 0022     		movs	r2, #0
 910 0302 1A71     		strb	r2, [r3, #4]
 398:protocol.c    ****           plan_reset();
 911              		.loc 1 398 0
 912 0304 FFF7FEFF 		bl	plan_reset
 399:protocol.c    ****           st_reset();
 913              		.loc 1 399 0
 914 0308 FFF7FEFF 		bl	st_reset
 400:protocol.c    ****           gc_sync_position();
 915              		.loc 1 400 0
 916 030c FFF7FEFF 		bl	gc_sync_position
 401:protocol.c    ****           plan_sync_position();
 917              		.loc 1 401 0
 918 0310 FFF7FEFF 		bl	plan_sync_position
 919              	.L73:
 402:protocol.c    ****         }
 403:protocol.c    ****         if (sys.suspend & SUSPEND_SAFETY_DOOR_AJAR) { // Only occurs when safety door opens during 
 920              		.loc 1 403 0
 921 0314 944B     		ldr	r3, .L101
 922 0316 9B78     		ldrb	r3, [r3, #2]	@ zero_extendqisi2
 923 0318 03F02003 		and	r3, r3, #32
 924 031c 002B     		cmp	r3, #0
 925 031e 11D0     		beq	.L74
 404:protocol.c    ****           sys.suspend &= ~(SUSPEND_JOG_CANCEL);
 926              		.loc 1 404 0
 927 0320 914B     		ldr	r3, .L101
 928 0322 9B78     		ldrb	r3, [r3, #2]	@ zero_extendqisi2
 929 0324 03F07F03 		and	r3, r3, #127
 930 0328 DAB2     		uxtb	r2, r3
 931 032a 8F4B     		ldr	r3, .L101
 932 032c 9A70     		strb	r2, [r3, #2]
 405:protocol.c    ****           sys.suspend |= SUSPEND_HOLD_COMPLETE;
 933              		.loc 1 405 0
 934 032e 8E4B     		ldr	r3, .L101
 935 0330 9B78     		ldrb	r3, [r3, #2]	@ zero_extendqisi2
 936 0332 43F00103 		orr	r3, r3, #1
 937 0336 DAB2     		uxtb	r2, r3
 938 0338 8B4B     		ldr	r3, .L101
 939 033a 9A70     		strb	r2, [r3, #2]
 406:protocol.c    ****           sys.state = STATE_SAFETY_DOOR;
 940              		.loc 1 406 0
 941 033c 8A4B     		ldr	r3, .L101
 942 033e 4022     		movs	r2, #64
 943 0340 1A70     		strb	r2, [r3]
 944 0342 05E0     		b	.L72
 945              	.L74:
 407:protocol.c    ****         } else {
 408:protocol.c    ****           sys.suspend = SUSPEND_DISABLE;
 946              		.loc 1 408 0
 947 0344 884B     		ldr	r3, .L101
 948 0346 0022     		movs	r2, #0
 949 0348 9A70     		strb	r2, [r3, #2]
 409:protocol.c    ****           sys.state = STATE_IDLE;
 950              		.loc 1 409 0
 951 034a 874B     		ldr	r3, .L101
ARM GAS  C:\Users\barto\AppData\Local\Temp\ccvWJHma.s 			page 25


 952 034c 0022     		movs	r2, #0
 953 034e 1A70     		strb	r2, [r3]
 954              	.L72:
 410:protocol.c    ****         }
 411:protocol.c    ****       }
 412:protocol.c    ****       system_clear_exec_state_flag(EXEC_CYCLE_STOP);
 955              		.loc 1 412 0
 956 0350 0420     		movs	r0, #4
 957 0352 FFF7FEFF 		bl	system_clear_exec_state_flag
 958              	.L49:
 413:protocol.c    ****     }
 414:protocol.c    ****   }
 415:protocol.c    **** 
 416:protocol.c    ****   // Execute overrides.
 417:protocol.c    ****   rt_exec = sys_rt_exec_motion_override; // Copy volatile sys_rt_exec_motion_override
 959              		.loc 1 417 0
 960 0356 854B     		ldr	r3, .L101+4
 961 0358 1B78     		ldrb	r3, [r3]
 962 035a FB70     		strb	r3, [r7, #3]
 418:protocol.c    ****   if (rt_exec) {
 963              		.loc 1 418 0
 964 035c FB78     		ldrb	r3, [r7, #3]	@ zero_extendqisi2
 965 035e 002B     		cmp	r3, #0
 966 0360 63D0     		beq	.L75
 967              	.LBB2:
 419:protocol.c    ****     system_clear_exec_motion_overrides(); // Clear all motion override flags.
 968              		.loc 1 419 0
 969 0362 FFF7FEFF 		bl	system_clear_exec_motion_overrides
 420:protocol.c    **** 
 421:protocol.c    ****     uint8_t new_f_override =  sys.f_override;
 970              		.loc 1 421 0
 971 0366 804B     		ldr	r3, .L101
 972 0368 DB79     		ldrb	r3, [r3, #7]
 973 036a FB71     		strb	r3, [r7, #7]
 422:protocol.c    ****     if (rt_exec & EXEC_FEED_OVR_RESET) { new_f_override = DEFAULT_FEED_OVERRIDE; }
 974              		.loc 1 422 0
 975 036c FB78     		ldrb	r3, [r7, #3]	@ zero_extendqisi2
 976 036e 03F00103 		and	r3, r3, #1
 977 0372 002B     		cmp	r3, #0
 978 0374 01D0     		beq	.L76
 979              		.loc 1 422 0 is_stmt 0 discriminator 1
 980 0376 6423     		movs	r3, #100
 981 0378 FB71     		strb	r3, [r7, #7]
 982              	.L76:
 423:protocol.c    ****     if (rt_exec & EXEC_FEED_OVR_COARSE_PLUS) { new_f_override += FEED_OVERRIDE_COARSE_INCREMENT; }
 983              		.loc 1 423 0 is_stmt 1
 984 037a FB78     		ldrb	r3, [r7, #3]	@ zero_extendqisi2
 985 037c 03F00203 		and	r3, r3, #2
 986 0380 002B     		cmp	r3, #0
 987 0382 02D0     		beq	.L77
 988              		.loc 1 423 0 is_stmt 0 discriminator 1
 989 0384 FB79     		ldrb	r3, [r7, #7]
 990 0386 0A33     		adds	r3, r3, #10
 991 0388 FB71     		strb	r3, [r7, #7]
 992              	.L77:
 424:protocol.c    ****     if (rt_exec & EXEC_FEED_OVR_COARSE_MINUS) { new_f_override -= FEED_OVERRIDE_COARSE_INCREMENT; }
 993              		.loc 1 424 0 is_stmt 1
ARM GAS  C:\Users\barto\AppData\Local\Temp\ccvWJHma.s 			page 26


 994 038a FB78     		ldrb	r3, [r7, #3]	@ zero_extendqisi2
 995 038c 03F00403 		and	r3, r3, #4
 996 0390 002B     		cmp	r3, #0
 997 0392 02D0     		beq	.L78
 998              		.loc 1 424 0 is_stmt 0 discriminator 1
 999 0394 FB79     		ldrb	r3, [r7, #7]
 1000 0396 0A3B     		subs	r3, r3, #10
 1001 0398 FB71     		strb	r3, [r7, #7]
 1002              	.L78:
 425:protocol.c    ****     if (rt_exec & EXEC_FEED_OVR_FINE_PLUS) { new_f_override += FEED_OVERRIDE_FINE_INCREMENT; }
 1003              		.loc 1 425 0 is_stmt 1
 1004 039a FB78     		ldrb	r3, [r7, #3]	@ zero_extendqisi2
 1005 039c 03F00803 		and	r3, r3, #8
 1006 03a0 002B     		cmp	r3, #0
 1007 03a2 02D0     		beq	.L79
 1008              		.loc 1 425 0 is_stmt 0 discriminator 1
 1009 03a4 FB79     		ldrb	r3, [r7, #7]
 1010 03a6 0133     		adds	r3, r3, #1
 1011 03a8 FB71     		strb	r3, [r7, #7]
 1012              	.L79:
 426:protocol.c    ****     if (rt_exec & EXEC_FEED_OVR_FINE_MINUS) { new_f_override -= FEED_OVERRIDE_FINE_INCREMENT; }
 1013              		.loc 1 426 0 is_stmt 1
 1014 03aa FB78     		ldrb	r3, [r7, #3]	@ zero_extendqisi2
 1015 03ac 03F01003 		and	r3, r3, #16
 1016 03b0 002B     		cmp	r3, #0
 1017 03b2 02D0     		beq	.L80
 1018              		.loc 1 426 0 is_stmt 0 discriminator 1
 1019 03b4 FB79     		ldrb	r3, [r7, #7]
 1020 03b6 013B     		subs	r3, r3, #1
 1021 03b8 FB71     		strb	r3, [r7, #7]
 1022              	.L80:
 427:protocol.c    ****     new_f_override = min(new_f_override,MAX_FEED_RATE_OVERRIDE);
 1023              		.loc 1 427 0 is_stmt 1
 1024 03ba FB79     		ldrb	r3, [r7, #7]	@ zero_extendqisi2
 1025 03bc C82B     		cmp	r3, #200
 1026 03be 28BF     		it	cs
 1027 03c0 C823     		movcs	r3, #200
 1028 03c2 FB71     		strb	r3, [r7, #7]
 428:protocol.c    ****     new_f_override = max(new_f_override,MIN_FEED_RATE_OVERRIDE);
 1029              		.loc 1 428 0
 1030 03c4 FB79     		ldrb	r3, [r7, #7]	@ zero_extendqisi2
 1031 03c6 0A2B     		cmp	r3, #10
 1032 03c8 38BF     		it	cc
 1033 03ca 0A23     		movcc	r3, #10
 1034 03cc FB71     		strb	r3, [r7, #7]
 429:protocol.c    **** 
 430:protocol.c    ****     uint8_t new_r_override = sys.r_override;
 1035              		.loc 1 430 0
 1036 03ce 664B     		ldr	r3, .L101
 1037 03d0 1B7A     		ldrb	r3, [r3, #8]
 1038 03d2 BB71     		strb	r3, [r7, #6]
 431:protocol.c    ****     if (rt_exec & EXEC_RAPID_OVR_RESET) { new_r_override = DEFAULT_RAPID_OVERRIDE; }
 1039              		.loc 1 431 0
 1040 03d4 FB78     		ldrb	r3, [r7, #3]	@ zero_extendqisi2
 1041 03d6 03F02003 		and	r3, r3, #32
 1042 03da 002B     		cmp	r3, #0
 1043 03dc 01D0     		beq	.L81
ARM GAS  C:\Users\barto\AppData\Local\Temp\ccvWJHma.s 			page 27


 1044              		.loc 1 431 0 is_stmt 0 discriminator 1
 1045 03de 6423     		movs	r3, #100
 1046 03e0 BB71     		strb	r3, [r7, #6]
 1047              	.L81:
 432:protocol.c    ****     if (rt_exec & EXEC_RAPID_OVR_MEDIUM) { new_r_override = RAPID_OVERRIDE_MEDIUM; }
 1048              		.loc 1 432 0 is_stmt 1
 1049 03e2 FB78     		ldrb	r3, [r7, #3]	@ zero_extendqisi2
 1050 03e4 03F04003 		and	r3, r3, #64
 1051 03e8 002B     		cmp	r3, #0
 1052 03ea 01D0     		beq	.L82
 1053              		.loc 1 432 0 is_stmt 0 discriminator 1
 1054 03ec 3223     		movs	r3, #50
 1055 03ee BB71     		strb	r3, [r7, #6]
 1056              	.L82:
 433:protocol.c    ****     if (rt_exec & EXEC_RAPID_OVR_LOW) { new_r_override = RAPID_OVERRIDE_LOW; }
 1057              		.loc 1 433 0 is_stmt 1
 1058 03f0 97F90330 		ldrsb	r3, [r7, #3]
 1059 03f4 002B     		cmp	r3, #0
 1060 03f6 01DA     		bge	.L83
 1061              		.loc 1 433 0 is_stmt 0 discriminator 1
 1062 03f8 1923     		movs	r3, #25
 1063 03fa BB71     		strb	r3, [r7, #6]
 1064              	.L83:
 434:protocol.c    **** 
 435:protocol.c    ****     if ((new_f_override != sys.f_override) || (new_r_override != sys.r_override)) {
 1065              		.loc 1 435 0 is_stmt 1
 1066 03fc 5A4B     		ldr	r3, .L101
 1067 03fe DB79     		ldrb	r3, [r3, #7]	@ zero_extendqisi2
 1068 0400 FA79     		ldrb	r2, [r7, #7]	@ zero_extendqisi2
 1069 0402 9A42     		cmp	r2, r3
 1070 0404 04D1     		bne	.L84
 1071              		.loc 1 435 0 is_stmt 0 discriminator 1
 1072 0406 584B     		ldr	r3, .L101
 1073 0408 1B7A     		ldrb	r3, [r3, #8]	@ zero_extendqisi2
 1074 040a BA79     		ldrb	r2, [r7, #6]	@ zero_extendqisi2
 1075 040c 9A42     		cmp	r2, r3
 1076 040e 0CD0     		beq	.L75
 1077              	.L84:
 436:protocol.c    ****       sys.f_override = new_f_override;
 1078              		.loc 1 436 0 is_stmt 1
 1079 0410 554A     		ldr	r2, .L101
 1080 0412 FB79     		ldrb	r3, [r7, #7]
 1081 0414 D371     		strb	r3, [r2, #7]
 437:protocol.c    ****       sys.r_override = new_r_override;
 1082              		.loc 1 437 0
 1083 0416 544A     		ldr	r2, .L101
 1084 0418 BB79     		ldrb	r3, [r7, #6]
 1085 041a 1372     		strb	r3, [r2, #8]
 438:protocol.c    ****       sys.report_ovr_counter = 0; // Set to report change immediately
 1086              		.loc 1 438 0
 1087 041c 524B     		ldr	r3, .L101
 1088 041e 0022     		movs	r2, #0
 1089 0420 DA72     		strb	r2, [r3, #11]
 439:protocol.c    ****       plan_update_velocity_profile_parameters();
 1090              		.loc 1 439 0
 1091 0422 FFF7FEFF 		bl	plan_update_velocity_profile_parameters
 440:protocol.c    ****       plan_cycle_reinitialize();
ARM GAS  C:\Users\barto\AppData\Local\Temp\ccvWJHma.s 			page 28


 1092              		.loc 1 440 0
 1093 0426 FFF7FEFF 		bl	plan_cycle_reinitialize
 1094              	.L75:
 1095              	.LBE2:
 441:protocol.c    ****     }
 442:protocol.c    ****   }
 443:protocol.c    **** 
 444:protocol.c    ****   rt_exec = sys_rt_exec_accessory_override;
 1096              		.loc 1 444 0
 1097 042a 514B     		ldr	r3, .L101+8
 1098 042c 1B78     		ldrb	r3, [r3]
 1099 042e FB70     		strb	r3, [r7, #3]
 445:protocol.c    ****   if (rt_exec) {
 1100              		.loc 1 445 0
 1101 0430 FB78     		ldrb	r3, [r7, #3]	@ zero_extendqisi2
 1102 0432 002B     		cmp	r3, #0
 1103 0434 00F0AB80 		beq	.L85
 1104              	.LBB3:
 446:protocol.c    ****     system_clear_exec_accessory_overrides(); // Clear all accessory override flags.
 1105              		.loc 1 446 0
 1106 0438 FFF7FEFF 		bl	system_clear_exec_accessory_overrides
 447:protocol.c    **** 
 448:protocol.c    ****     // NOTE: Unlike motion overrides, spindle overrides do not require a planner reinitialization.
 449:protocol.c    ****     uint8_t last_s_override =  sys.spindle_speed_ovr;
 1107              		.loc 1 449 0
 1108 043c 4A4B     		ldr	r3, .L101
 1109 043e 5B7A     		ldrb	r3, [r3, #9]
 1110 0440 7B71     		strb	r3, [r7, #5]
 450:protocol.c    ****     if (rt_exec & EXEC_SPINDLE_OVR_RESET) { last_s_override = DEFAULT_SPINDLE_SPEED_OVERRIDE; }
 1111              		.loc 1 450 0
 1112 0442 FB78     		ldrb	r3, [r7, #3]	@ zero_extendqisi2
 1113 0444 03F00103 		and	r3, r3, #1
 1114 0448 002B     		cmp	r3, #0
 1115 044a 01D0     		beq	.L86
 1116              		.loc 1 450 0 is_stmt 0 discriminator 1
 1117 044c 6423     		movs	r3, #100
 1118 044e 7B71     		strb	r3, [r7, #5]
 1119              	.L86:
 451:protocol.c    ****     if (rt_exec & EXEC_SPINDLE_OVR_COARSE_PLUS) { last_s_override += SPINDLE_OVERRIDE_COARSE_INCREM
 1120              		.loc 1 451 0 is_stmt 1
 1121 0450 FB78     		ldrb	r3, [r7, #3]	@ zero_extendqisi2
 1122 0452 03F00203 		and	r3, r3, #2
 1123 0456 002B     		cmp	r3, #0
 1124 0458 02D0     		beq	.L87
 1125              		.loc 1 451 0 is_stmt 0 discriminator 1
 1126 045a 7B79     		ldrb	r3, [r7, #5]
 1127 045c 0A33     		adds	r3, r3, #10
 1128 045e 7B71     		strb	r3, [r7, #5]
 1129              	.L87:
 452:protocol.c    ****     if (rt_exec & EXEC_SPINDLE_OVR_COARSE_MINUS) { last_s_override -= SPINDLE_OVERRIDE_COARSE_INCRE
 1130              		.loc 1 452 0 is_stmt 1
 1131 0460 FB78     		ldrb	r3, [r7, #3]	@ zero_extendqisi2
 1132 0462 03F00403 		and	r3, r3, #4
 1133 0466 002B     		cmp	r3, #0
 1134 0468 02D0     		beq	.L88
 1135              		.loc 1 452 0 is_stmt 0 discriminator 1
 1136 046a 7B79     		ldrb	r3, [r7, #5]
ARM GAS  C:\Users\barto\AppData\Local\Temp\ccvWJHma.s 			page 29


 1137 046c 0A3B     		subs	r3, r3, #10
 1138 046e 7B71     		strb	r3, [r7, #5]
 1139              	.L88:
 453:protocol.c    ****     if (rt_exec & EXEC_SPINDLE_OVR_FINE_PLUS) { last_s_override += SPINDLE_OVERRIDE_FINE_INCREMENT;
 1140              		.loc 1 453 0 is_stmt 1
 1141 0470 FB78     		ldrb	r3, [r7, #3]	@ zero_extendqisi2
 1142 0472 03F00803 		and	r3, r3, #8
 1143 0476 002B     		cmp	r3, #0
 1144 0478 02D0     		beq	.L89
 1145              		.loc 1 453 0 is_stmt 0 discriminator 1
 1146 047a 7B79     		ldrb	r3, [r7, #5]
 1147 047c 0133     		adds	r3, r3, #1
 1148 047e 7B71     		strb	r3, [r7, #5]
 1149              	.L89:
 454:protocol.c    ****     if (rt_exec & EXEC_SPINDLE_OVR_FINE_MINUS) { last_s_override -= SPINDLE_OVERRIDE_FINE_INCREMENT
 1150              		.loc 1 454 0 is_stmt 1
 1151 0480 FB78     		ldrb	r3, [r7, #3]	@ zero_extendqisi2
 1152 0482 03F01003 		and	r3, r3, #16
 1153 0486 002B     		cmp	r3, #0
 1154 0488 02D0     		beq	.L90
 1155              		.loc 1 454 0 is_stmt 0 discriminator 1
 1156 048a 7B79     		ldrb	r3, [r7, #5]
 1157 048c 013B     		subs	r3, r3, #1
 1158 048e 7B71     		strb	r3, [r7, #5]
 1159              	.L90:
 455:protocol.c    ****     last_s_override = min(last_s_override,MAX_SPINDLE_SPEED_OVERRIDE);
 1160              		.loc 1 455 0 is_stmt 1
 1161 0490 7B79     		ldrb	r3, [r7, #5]	@ zero_extendqisi2
 1162 0492 C82B     		cmp	r3, #200
 1163 0494 28BF     		it	cs
 1164 0496 C823     		movcs	r3, #200
 1165 0498 7B71     		strb	r3, [r7, #5]
 456:protocol.c    ****     last_s_override = max(last_s_override,MIN_SPINDLE_SPEED_OVERRIDE);
 1166              		.loc 1 456 0
 1167 049a 7B79     		ldrb	r3, [r7, #5]	@ zero_extendqisi2
 1168 049c 0A2B     		cmp	r3, #10
 1169 049e 38BF     		it	cc
 1170 04a0 0A23     		movcc	r3, #10
 1171 04a2 7B71     		strb	r3, [r7, #5]
 457:protocol.c    **** 
 458:protocol.c    ****     if (last_s_override != sys.spindle_speed_ovr) {
 1172              		.loc 1 458 0
 1173 04a4 304B     		ldr	r3, .L101
 1174 04a6 5B7A     		ldrb	r3, [r3, #9]	@ zero_extendqisi2
 1175 04a8 7A79     		ldrb	r2, [r7, #5]	@ zero_extendqisi2
 1176 04aa 9A42     		cmp	r2, r3
 1177 04ac 0CD0     		beq	.L91
 459:protocol.c    ****       bit_true(sys.step_control, STEP_CONTROL_UPDATE_SPINDLE_PWM);
 1178              		.loc 1 459 0
 1179 04ae 2E4B     		ldr	r3, .L101
 1180 04b0 1B79     		ldrb	r3, [r3, #4]	@ zero_extendqisi2
 1181 04b2 43F00803 		orr	r3, r3, #8
 1182 04b6 DAB2     		uxtb	r2, r3
 1183 04b8 2B4B     		ldr	r3, .L101
 1184 04ba 1A71     		strb	r2, [r3, #4]
 460:protocol.c    ****       sys.spindle_speed_ovr = last_s_override;
 1185              		.loc 1 460 0
ARM GAS  C:\Users\barto\AppData\Local\Temp\ccvWJHma.s 			page 30


 1186 04bc 2A4A     		ldr	r2, .L101
 1187 04be 7B79     		ldrb	r3, [r7, #5]
 1188 04c0 5372     		strb	r3, [r2, #9]
 461:protocol.c    ****       sys.report_ovr_counter = 0; // Set to report change immediately
 1189              		.loc 1 461 0
 1190 04c2 294B     		ldr	r3, .L101
 1191 04c4 0022     		movs	r2, #0
 1192 04c6 DA72     		strb	r2, [r3, #11]
 1193              	.L91:
 462:protocol.c    ****     }
 463:protocol.c    **** 
 464:protocol.c    ****     if (rt_exec & EXEC_SPINDLE_OVR_STOP) {
 1194              		.loc 1 464 0
 1195 04c8 FB78     		ldrb	r3, [r7, #3]	@ zero_extendqisi2
 1196 04ca 03F02003 		and	r3, r3, #32
 1197 04ce 002B     		cmp	r3, #0
 1198 04d0 18D0     		beq	.L92
 465:protocol.c    ****       // Spindle stop override allowed only while in HOLD state.
 466:protocol.c    ****       // NOTE: Report counters are set in spindle_set_state() when spindle stop is executed.
 467:protocol.c    ****       if (sys.state == STATE_HOLD) {
 1199              		.loc 1 467 0
 1200 04d2 254B     		ldr	r3, .L101
 1201 04d4 1B78     		ldrb	r3, [r3]	@ zero_extendqisi2
 1202 04d6 102B     		cmp	r3, #16
 1203 04d8 14D1     		bne	.L92
 468:protocol.c    ****         if (!(sys.spindle_stop_ovr)) { sys.spindle_stop_ovr = SPINDLE_STOP_OVR_INITIATE; }
 1204              		.loc 1 468 0
 1205 04da 234B     		ldr	r3, .L101
 1206 04dc 9B7A     		ldrb	r3, [r3, #10]	@ zero_extendqisi2
 1207 04de 002B     		cmp	r3, #0
 1208 04e0 03D1     		bne	.L93
 1209              		.loc 1 468 0 is_stmt 0 discriminator 1
 1210 04e2 214B     		ldr	r3, .L101
 1211 04e4 0222     		movs	r2, #2
 1212 04e6 9A72     		strb	r2, [r3, #10]
 1213 04e8 0CE0     		b	.L92
 1214              	.L93:
 469:protocol.c    ****         else if (sys.spindle_stop_ovr & SPINDLE_STOP_OVR_ENABLED) { sys.spindle_stop_ovr |= SPINDLE
 1215              		.loc 1 469 0 is_stmt 1
 1216 04ea 1F4B     		ldr	r3, .L101
 1217 04ec 9B7A     		ldrb	r3, [r3, #10]	@ zero_extendqisi2
 1218 04ee 03F00103 		and	r3, r3, #1
 1219 04f2 002B     		cmp	r3, #0
 1220 04f4 06D0     		beq	.L92
 1221              		.loc 1 469 0 is_stmt 0 discriminator 1
 1222 04f6 1C4B     		ldr	r3, .L101
 1223 04f8 9B7A     		ldrb	r3, [r3, #10]	@ zero_extendqisi2
 1224 04fa 43F00403 		orr	r3, r3, #4
 1225 04fe DAB2     		uxtb	r2, r3
 1226 0500 194B     		ldr	r3, .L101
 1227 0502 9A72     		strb	r2, [r3, #10]
 1228              	.L92:
 470:protocol.c    ****       }
 471:protocol.c    ****     }
 472:protocol.c    **** 
 473:protocol.c    ****     // NOTE: Since coolant state always performs a planner sync whenever it changes, the current
 474:protocol.c    ****     // run state can be determined by checking the parser state.
ARM GAS  C:\Users\barto\AppData\Local\Temp\ccvWJHma.s 			page 31


 475:protocol.c    ****     if (rt_exec & (EXEC_COOLANT_FLOOD_OVR_TOGGLE | EXEC_COOLANT_MIST_OVR_TOGGLE)) {
 1229              		.loc 1 475 0 is_stmt 1
 1230 0504 FB78     		ldrb	r3, [r7, #3]	@ zero_extendqisi2
 1231 0506 03F0C003 		and	r3, r3, #192
 1232 050a 002B     		cmp	r3, #0
 1233 050c 3FD0     		beq	.L85
 476:protocol.c    ****       if ((sys.state == STATE_IDLE) || (sys.state & (STATE_CYCLE | STATE_HOLD))) {
 1234              		.loc 1 476 0
 1235 050e 164B     		ldr	r3, .L101
 1236 0510 1B78     		ldrb	r3, [r3]	@ zero_extendqisi2
 1237 0512 002B     		cmp	r3, #0
 1238 0514 05D0     		beq	.L94
 1239              		.loc 1 476 0 is_stmt 0 discriminator 1
 1240 0516 144B     		ldr	r3, .L101
 1241 0518 1B78     		ldrb	r3, [r3]	@ zero_extendqisi2
 1242 051a 03F01803 		and	r3, r3, #24
 1243 051e 002B     		cmp	r3, #0
 1244 0520 35D0     		beq	.L85
 1245              	.L94:
 1246              	.LBB4:
 477:protocol.c    ****         uint8_t coolant_state = gc_state.modal.coolant;
 1247              		.loc 1 477 0 is_stmt 1
 1248 0522 144B     		ldr	r3, .L101+12
 1249 0524 1B7A     		ldrb	r3, [r3, #8]
 1250 0526 3B71     		strb	r3, [r7, #4]
 478:protocol.c    ****         #ifdef ENABLE_M7
 479:protocol.c    ****           if (rt_exec & EXEC_COOLANT_MIST_OVR_TOGGLE) {
 1251              		.loc 1 479 0
 1252 0528 97F90330 		ldrsb	r3, [r7, #3]
 1253 052c 002B     		cmp	r3, #0
 1254 052e 0CDA     		bge	.L95
 480:protocol.c    ****             if (coolant_state & COOLANT_MIST_ENABLE) { bit_false(coolant_state,COOLANT_MIST_ENABLE)
 1255              		.loc 1 480 0
 1256 0530 97F90430 		ldrsb	r3, [r7, #4]
 1257 0534 002B     		cmp	r3, #0
 1258 0536 04DA     		bge	.L96
 1259              		.loc 1 480 0 is_stmt 0 discriminator 1
 1260 0538 3B79     		ldrb	r3, [r7, #4]
 1261 053a 03F07F03 		and	r3, r3, #127
 1262 053e 3B71     		strb	r3, [r7, #4]
 1263 0540 03E0     		b	.L95
 1264              	.L96:
 481:protocol.c    ****             else { coolant_state |= COOLANT_MIST_ENABLE; }
 1265              		.loc 1 481 0 is_stmt 1
 1266 0542 3B79     		ldrb	r3, [r7, #4]
 1267 0544 63F07F03 		orn	r3, r3, #127
 1268 0548 3B71     		strb	r3, [r7, #4]
 1269              	.L95:
 482:protocol.c    ****           }
 483:protocol.c    ****           if (rt_exec & EXEC_COOLANT_FLOOD_OVR_TOGGLE) {
 1270              		.loc 1 483 0
 1271 054a FB78     		ldrb	r3, [r7, #3]	@ zero_extendqisi2
 1272 054c 03F04003 		and	r3, r3, #64
 1273 0550 002B     		cmp	r3, #0
 1274 0552 15D0     		beq	.L97
 484:protocol.c    ****             if (coolant_state & COOLANT_FLOOD_ENABLE) { bit_false(coolant_state,COOLANT_FLOOD_ENABL
 1275              		.loc 1 484 0
ARM GAS  C:\Users\barto\AppData\Local\Temp\ccvWJHma.s 			page 32


 1276 0554 3B79     		ldrb	r3, [r7, #4]	@ zero_extendqisi2
 1277 0556 03F04003 		and	r3, r3, #64
 1278 055a 002B     		cmp	r3, #0
 1279 055c 0CD0     		beq	.L98
 1280              		.loc 1 484 0 is_stmt 0 discriminator 1
 1281 055e 3B79     		ldrb	r3, [r7, #4]
 1282 0560 23F04003 		bic	r3, r3, #64
 1283 0564 3B71     		strb	r3, [r7, #4]
 1284 0566 0BE0     		b	.L97
 1285              	.L102:
 1286              		.align	2
 1287              	.L101:
 1288 0568 00000000 		.word	sys
 1289 056c 00000000 		.word	sys_rt_exec_motion_override
 1290 0570 00000000 		.word	sys_rt_exec_accessory_override
 1291 0574 00000000 		.word	gc_state
 1292              	.L98:
 485:protocol.c    ****             else { coolant_state |= COOLANT_FLOOD_ENABLE; }
 1293              		.loc 1 485 0 is_stmt 1
 1294 0578 3B79     		ldrb	r3, [r7, #4]
 1295 057a 43F04003 		orr	r3, r3, #64
 1296 057e 3B71     		strb	r3, [r7, #4]
 1297              	.L97:
 486:protocol.c    ****           }
 487:protocol.c    ****         #else
 488:protocol.c    ****           if (coolant_state & COOLANT_FLOOD_ENABLE) { bit_false(coolant_state,COOLANT_FLOOD_ENABLE)
 489:protocol.c    ****           else { coolant_state |= COOLANT_FLOOD_ENABLE; }
 490:protocol.c    ****         #endif
 491:protocol.c    ****         coolant_set_state(coolant_state); // Report counter set in coolant_set_state().
 1298              		.loc 1 491 0
 1299 0580 3B79     		ldrb	r3, [r7, #4]	@ zero_extendqisi2
 1300 0582 1846     		mov	r0, r3
 1301 0584 FFF7FEFF 		bl	coolant_set_state
 492:protocol.c    ****         gc_state.modal.coolant = coolant_state;
 1302              		.loc 1 492 0
 1303 0588 064A     		ldr	r2, .L103
 1304 058a 3B79     		ldrb	r3, [r7, #4]
 1305 058c 1372     		strb	r3, [r2, #8]
 1306              	.L85:
 1307              	.LBE4:
 1308              	.LBE3:
 493:protocol.c    ****       }
 494:protocol.c    ****     }
 495:protocol.c    ****     
 496:protocol.c    ****    
 497:protocol.c    ****     
 498:protocol.c    ****   }
 499:protocol.c    **** 
 500:protocol.c    ****   #ifdef DEBUG
 501:protocol.c    ****     if (sys_rt_exec_debug) {
 502:protocol.c    ****       report_realtime_debug();
 503:protocol.c    ****       sys_rt_exec_debug = 0;
 504:protocol.c    ****     }
 505:protocol.c    ****   #endif
 506:protocol.c    **** 
 507:protocol.c    ****   // Reload step segment buffer
 508:protocol.c    ****   if (sys.state & (STATE_CYCLE | STATE_HOLD | STATE_SAFETY_DOOR | STATE_HOMING | STATE_SLEEP| STATE
ARM GAS  C:\Users\barto\AppData\Local\Temp\ccvWJHma.s 			page 33


 1309              		.loc 1 508 0
 1310 058e 064B     		ldr	r3, .L103+4
 1311 0590 1B78     		ldrb	r3, [r3]	@ zero_extendqisi2
 1312 0592 03F0FC03 		and	r3, r3, #252
 1313 0596 002B     		cmp	r3, #0
 1314 0598 01D0     		beq	.L44
 509:protocol.c    ****     st_prep_buffer();
 1315              		.loc 1 509 0
 1316 059a FFF7FEFF 		bl	st_prep_buffer
 1317              	.L44:
 510:protocol.c    ****   }
 511:protocol.c    **** 
 512:protocol.c    **** }
 1318              		.loc 1 512 0
 1319 059e 0837     		adds	r7, r7, #8
 1320              		.cfi_def_cfa_offset 8
 1321 05a0 BD46     		mov	sp, r7
 1322              		.cfi_def_cfa_register 13
 1323              		@ sp needed
 1324 05a2 80BD     		pop	{r7, pc}
 1325              	.L104:
 1326              		.align	2
 1327              	.L103:
 1328 05a4 00000000 		.word	gc_state
 1329 05a8 00000000 		.word	sys
 1330              		.cfi_endproc
 1331              	.LFE68:
 1332              		.size	protocol_exec_rt_system, .-protocol_exec_rt_system
 1333              		.section	.text.protocol_exec_rt_suspend,"ax",%progbits
 1334              		.align	2
 1335              		.thumb
 1336              		.thumb_func
 1337              		.type	protocol_exec_rt_suspend, %function
 1338              	protocol_exec_rt_suspend:
 1339              	.LFB69:
 513:protocol.c    **** 
 514:protocol.c    **** 
 515:protocol.c    **** // Handles Grbl system suspend procedures, such as feed hold, safety door, and parking motion.
 516:protocol.c    **** // The system will enter this loop, create local variables for suspend tasks, and return to
 517:protocol.c    **** // whatever function that invoked the suspend, such that Grbl resumes normal operation.
 518:protocol.c    **** // This function is written in a way to promote custom parking motions. Simply use this as a
 519:protocol.c    **** // template
 520:protocol.c    **** static void protocol_exec_rt_suspend()
 521:protocol.c    **** {
 1340              		.loc 1 521 0
 1341              		.cfi_startproc
 1342              		@ args = 0, pretend = 0, frame = 16
 1343              		@ frame_needed = 1, uses_anonymous_args = 0
 1344 0000 80B5     		push	{r7, lr}
 1345              		.cfi_def_cfa_offset 8
 1346              		.cfi_offset 7, -8
 1347              		.cfi_offset 14, -4
 1348 0002 84B0     		sub	sp, sp, #16
 1349              		.cfi_def_cfa_offset 24
 1350 0004 00AF     		add	r7, sp, #0
 1351              		.cfi_def_cfa_register 7
 522:protocol.c    ****   #ifdef PARKING_ENABLE
ARM GAS  C:\Users\barto\AppData\Local\Temp\ccvWJHma.s 			page 34


 523:protocol.c    ****     // Declare and initialize parking local variables
 524:protocol.c    ****     float restore_target[N_AXIS];
 525:protocol.c    ****     float parking_target[N_AXIS];
 526:protocol.c    ****     float retract_waypoint = PARKING_PULLOUT_INCREMENT;
 527:protocol.c    ****     plan_line_data_t plan_data;
 528:protocol.c    ****     plan_line_data_t *pl_data = &plan_data;
 529:protocol.c    ****     memset(pl_data,0,sizeof(plan_line_data_t));
 530:protocol.c    ****     pl_data->condition = (PL_COND_FLAG_SYSTEM_MOTION|PL_COND_FLAG_NO_FEED_OVERRIDE);
 531:protocol.c    ****     #ifdef USE_LINE_NUMBERS
 532:protocol.c    ****       pl_data->line_number = PARKING_MOTION_LINE_NUMBER;
 533:protocol.c    ****     #endif
 534:protocol.c    ****   #endif
 535:protocol.c    **** 
 536:protocol.c    ****   plan_block_t *block = plan_get_current_block();
 1352              		.loc 1 536 0
 1353 0006 FFF7FEFF 		bl	plan_get_current_block
 1354 000a 7860     		str	r0, [r7, #4]
 537:protocol.c    ****   uint8_t restore_condition;
 538:protocol.c    ****   #ifdef VARIABLE_SPINDLE
 539:protocol.c    ****     float restore_spindle_speed;
 540:protocol.c    ****     if (block == NULL) {
 1355              		.loc 1 540 0
 1356 000c 7B68     		ldr	r3, [r7, #4]
 1357 000e 002B     		cmp	r3, #0
 1358 0010 09D1     		bne	.L106
 541:protocol.c    ****       restore_condition = (gc_state.modal.spindle | gc_state.modal.coolant);
 1359              		.loc 1 541 0
 1360 0012 9C4B     		ldr	r3, .L133
 1361 0014 5A7A     		ldrb	r2, [r3, #9]	@ zero_extendqisi2
 1362 0016 9B4B     		ldr	r3, .L133
 1363 0018 1B7A     		ldrb	r3, [r3, #8]	@ zero_extendqisi2
 1364 001a 1343     		orrs	r3, r3, r2
 1365 001c FB73     		strb	r3, [r7, #15]
 542:protocol.c    ****       restore_spindle_speed = gc_state.spindle_speed;
 1366              		.loc 1 542 0
 1367 001e 994B     		ldr	r3, .L133
 1368 0020 DB68     		ldr	r3, [r3, #12]	@ float
 1369 0022 BB60     		str	r3, [r7, #8]	@ float
 1370 0024 05E0     		b	.L107
 1371              	.L106:
 543:protocol.c    ****     } else {
 544:protocol.c    ****       restore_condition = block->condition;
 1372              		.loc 1 544 0
 1373 0026 7B68     		ldr	r3, [r7, #4]
 1374 0028 5B7C     		ldrb	r3, [r3, #17]
 1375 002a FB73     		strb	r3, [r7, #15]
 545:protocol.c    ****       restore_spindle_speed = block->spindle_speed;
 1376              		.loc 1 545 0
 1377 002c 7B68     		ldr	r3, [r7, #4]
 1378 002e 1B6B     		ldr	r3, [r3, #48]	@ float
 1379 0030 BB60     		str	r3, [r7, #8]	@ float
 1380              	.L107:
 546:protocol.c    ****     }
 547:protocol.c    ****     #ifdef DISABLE_LASER_DURING_HOLD
 548:protocol.c    ****       if (bit_istrue(settings.flags,BITFLAG_LASER_MODE)) { 
 1381              		.loc 1 548 0
 1382 0032 954B     		ldr	r3, .L133+4
ARM GAS  C:\Users\barto\AppData\Local\Temp\ccvWJHma.s 			page 35


 1383 0034 93F84830 		ldrb	r3, [r3, #72]	@ zero_extendqisi2
 1384 0038 03F00203 		and	r3, r3, #2
 1385 003c 002B     		cmp	r3, #0
 1386 003e 00F01781 		beq	.L109
 549:protocol.c    ****         system_set_exec_accessory_override_flag(EXEC_SPINDLE_OVR_STOP);
 1387              		.loc 1 549 0
 1388 0042 2020     		movs	r0, #32
 1389 0044 FFF7FEFF 		bl	system_set_exec_accessory_override_flag
 550:protocol.c    ****       }
 551:protocol.c    ****     #endif
 552:protocol.c    ****   #else
 553:protocol.c    ****     if (block == NULL) { restore_condition = (gc_state.modal.spindle | gc_state.modal.coolant); }
 554:protocol.c    ****     else { restore_condition = block->condition; }
 555:protocol.c    ****   #endif
 556:protocol.c    **** 
 557:protocol.c    ****   while (sys.suspend) {
 1390              		.loc 1 557 0
 1391 0048 12E1     		b	.L109
 1392              	.L131:
 558:protocol.c    **** 
 559:protocol.c    ****     if (sys.abort) { return; }
 1393              		.loc 1 559 0
 1394 004a 904B     		ldr	r3, .L133+8
 1395 004c 5B78     		ldrb	r3, [r3, #1]	@ zero_extendqisi2
 1396 004e 002B     		cmp	r3, #0
 1397 0050 40F01481 		bne	.L132
 560:protocol.c    **** 
 561:protocol.c    ****     // Block until initial hold is complete and the machine has stopped motion.
 562:protocol.c    ****     if (sys.suspend & SUSPEND_HOLD_COMPLETE) {
 1398              		.loc 1 562 0
 1399 0054 8D4B     		ldr	r3, .L133+8
 1400 0056 9B78     		ldrb	r3, [r3, #2]	@ zero_extendqisi2
 1401 0058 03F00103 		and	r3, r3, #1
 1402 005c 002B     		cmp	r3, #0
 1403 005e 00F00581 		beq	.L112
 563:protocol.c    **** 
 564:protocol.c    ****       // Parking manager. Handles de/re-energizing, switch state checks, and parking motions for 
 565:protocol.c    ****       // the safety door and sleep states.
 566:protocol.c    ****       if (sys.state & (STATE_SAFETY_DOOR | STATE_SLEEP)) {
 1404              		.loc 1 566 0
 1405 0062 8A4B     		ldr	r3, .L133+8
 1406 0064 1B78     		ldrb	r3, [r3]	@ zero_extendqisi2
 1407 0066 03F0C003 		and	r3, r3, #192
 1408 006a 002B     		cmp	r3, #0
 1409 006c 00F09D80 		beq	.L113
 567:protocol.c    ****       
 568:protocol.c    ****         // Handles retraction motions and de-energizing.
 569:protocol.c    ****         if (bit_isfalse(sys.suspend,SUSPEND_RETRACT_COMPLETE)) {
 1410              		.loc 1 569 0
 1411 0070 864B     		ldr	r3, .L133+8
 1412 0072 9B78     		ldrb	r3, [r3, #2]	@ zero_extendqisi2
 1413 0074 03F00403 		and	r3, r3, #4
 1414 0078 002B     		cmp	r3, #0
 1415 007a 19D1     		bne	.L114
 570:protocol.c    **** 
 571:protocol.c    ****           // Ensure any prior spindle stop override is disabled at start of safety door routine.
 572:protocol.c    ****           sys.spindle_stop_ovr = SPINDLE_STOP_OVR_DISABLED;
ARM GAS  C:\Users\barto\AppData\Local\Temp\ccvWJHma.s 			page 36


 1416              		.loc 1 572 0
 1417 007c 834B     		ldr	r3, .L133+8
 1418 007e 0022     		movs	r2, #0
 1419 0080 9A72     		strb	r2, [r3, #10]
 573:protocol.c    **** 
 574:protocol.c    ****           #ifndef PARKING_ENABLE
 575:protocol.c    **** 
 576:protocol.c    ****             spindle_set_state(SPINDLE_DISABLE,0.0); // De-energize
 1420              		.loc 1 576 0
 1421 0082 4FF00001 		mov	r1, #0
 1422 0086 0020     		movs	r0, #0
 1423 0088 FFF7FEFF 		bl	spindle_set_state
 577:protocol.c    ****             coolant_set_state(COOLANT_DISABLE);     // De-energize
 1424              		.loc 1 577 0
 1425 008c 0020     		movs	r0, #0
 1426 008e FFF7FEFF 		bl	coolant_set_state
 578:protocol.c    **** 
 579:protocol.c    ****           #else
 580:protocol.c    **** 					
 581:protocol.c    ****             // Get current position and store restore location and spindle retract waypoint.
 582:protocol.c    ****             system_convert_array_steps_to_mpos(parking_target,sys_position);
 583:protocol.c    ****             if (bit_isfalse(sys.suspend,SUSPEND_RESTART_RETRACT)) {
 584:protocol.c    ****               memcpy(restore_target,parking_target,sizeof(parking_target));
 585:protocol.c    ****               retract_waypoint += restore_target[PARKING_AXIS];
 586:protocol.c    ****               retract_waypoint = min(retract_waypoint,PARKING_TARGET);
 587:protocol.c    ****             }
 588:protocol.c    **** 
 589:protocol.c    ****             // Execute slow pull-out parking retract motion. Parking requires homing enabled, the
 590:protocol.c    ****             // current location not exceeding the parking target location, and laser mode disabled.
 591:protocol.c    ****             // NOTE: State is will remain DOOR, until the de-energizing and retract is complete.
 592:protocol.c    ****             if ((bit_istrue(settings.flags,BITFLAG_HOMING_ENABLE)) &&
 593:protocol.c    ****                             (parking_target[PARKING_AXIS] < PARKING_TARGET) &&
 594:protocol.c    ****                             bit_isfalse(settings.flags,BITFLAG_LASER_MODE)) {
 595:protocol.c    **** 
 596:protocol.c    ****               // Retract spindle by pullout distance. Ensure retraction motion moves away from
 597:protocol.c    ****               // the workpiece and waypoint motion doesn't exceed the parking target location.
 598:protocol.c    ****               if (parking_target[PARKING_AXIS] < retract_waypoint) {
 599:protocol.c    ****                 parking_target[PARKING_AXIS] = retract_waypoint;
 600:protocol.c    ****                 pl_data->feed_rate = PARKING_PULLOUT_RATE;
 601:protocol.c    ****                 pl_data->condition |= (restore_condition & PL_COND_ACCESSORY_MASK); // Retain acces
 602:protocol.c    ****                 pl_data->spindle_speed = restore_spindle_speed;
 603:protocol.c    ****                 mc_parking_motion(parking_target, pl_data);
 604:protocol.c    ****               }
 605:protocol.c    **** 
 606:protocol.c    ****               // NOTE: Clear accessory state after retract and after an aborted restore motion.
 607:protocol.c    ****               pl_data->condition = (PL_COND_FLAG_SYSTEM_MOTION|PL_COND_FLAG_NO_FEED_OVERRIDE);
 608:protocol.c    ****               pl_data->spindle_speed = 0.0;
 609:protocol.c    ****               spindle_set_state(SPINDLE_DISABLE,0.0); // De-energize
 610:protocol.c    ****               coolant_set_state(COOLANT_DISABLE); // De-energize
 611:protocol.c    **** 
 612:protocol.c    ****               // Execute fast parking retract motion to parking target location.
 613:protocol.c    ****               if (parking_target[PARKING_AXIS] < PARKING_TARGET) {
 614:protocol.c    ****                 parking_target[PARKING_AXIS] = PARKING_TARGET;
 615:protocol.c    ****                 pl_data->feed_rate = PARKING_RATE;
 616:protocol.c    ****                 mc_parking_motion(parking_target, pl_data);
 617:protocol.c    ****               }
 618:protocol.c    **** 
ARM GAS  C:\Users\barto\AppData\Local\Temp\ccvWJHma.s 			page 37


 619:protocol.c    ****             } else {
 620:protocol.c    **** 
 621:protocol.c    ****               // Parking motion not possible. Just disable the spindle and coolant.
 622:protocol.c    ****               // NOTE: Laser mode does not start a parking motion to ensure the laser stops immedia
 623:protocol.c    ****               spindle_set_state(SPINDLE_DISABLE,0.0); // De-energize
 624:protocol.c    ****               coolant_set_state(COOLANT_DISABLE);     // De-energize
 625:protocol.c    **** 
 626:protocol.c    ****             }
 627:protocol.c    **** 
 628:protocol.c    ****           #endif
 629:protocol.c    **** 
 630:protocol.c    ****           sys.suspend &= ~(SUSPEND_RESTART_RETRACT);
 1427              		.loc 1 630 0
 1428 0092 7E4B     		ldr	r3, .L133+8
 1429 0094 9B78     		ldrb	r3, [r3, #2]	@ zero_extendqisi2
 1430 0096 23F00203 		bic	r3, r3, #2
 1431 009a DAB2     		uxtb	r2, r3
 1432 009c 7B4B     		ldr	r3, .L133+8
 1433 009e 9A70     		strb	r2, [r3, #2]
 631:protocol.c    ****           sys.suspend |= SUSPEND_RETRACT_COMPLETE;
 1434              		.loc 1 631 0
 1435 00a0 7A4B     		ldr	r3, .L133+8
 1436 00a2 9B78     		ldrb	r3, [r3, #2]	@ zero_extendqisi2
 1437 00a4 43F00403 		orr	r3, r3, #4
 1438 00a8 DAB2     		uxtb	r2, r3
 1439 00aa 784B     		ldr	r3, .L133+8
 1440 00ac 9A70     		strb	r2, [r3, #2]
 1441 00ae DDE0     		b	.L112
 1442              	.L114:
 632:protocol.c    **** 
 633:protocol.c    ****         } else {
 634:protocol.c    **** 
 635:protocol.c    ****           
 636:protocol.c    ****           if (sys.state == STATE_SLEEP) {
 1443              		.loc 1 636 0
 1444 00b0 764B     		ldr	r3, .L133+8
 1445 00b2 1B78     		ldrb	r3, [r3]	@ zero_extendqisi2
 1446 00b4 802B     		cmp	r3, #128
 1447 00b6 14D1     		bne	.L116
 637:protocol.c    ****             report_feedback_message(MESSAGE_SLEEP_MODE);
 1448              		.loc 1 637 0
 1449 00b8 0B20     		movs	r0, #11
 1450 00ba FFF7FEFF 		bl	report_feedback_message
 638:protocol.c    ****             // Spindle and coolant should already be stopped, but do it again just to be sure.
 639:protocol.c    ****             spindle_set_state(SPINDLE_DISABLE,0.0); // De-energize
 1451              		.loc 1 639 0
 1452 00be 4FF00001 		mov	r1, #0
 1453 00c2 0020     		movs	r0, #0
 1454 00c4 FFF7FEFF 		bl	spindle_set_state
 640:protocol.c    ****             coolant_set_state(COOLANT_DISABLE); // De-energize
 1455              		.loc 1 640 0
 1456 00c8 0020     		movs	r0, #0
 1457 00ca FFF7FEFF 		bl	coolant_set_state
 641:protocol.c    ****             st_go_idle(); // Disable steppers
 1458              		.loc 1 641 0
 1459 00ce FFF7FEFF 		bl	st_go_idle
 642:protocol.c    ****             while (!(sys.abort)) { protocol_exec_rt_system(); } // Do nothing until reset.
ARM GAS  C:\Users\barto\AppData\Local\Temp\ccvWJHma.s 			page 38


 1460              		.loc 1 642 0
 1461 00d2 01E0     		b	.L117
 1462              	.L118:
 1463              		.loc 1 642 0 is_stmt 0 discriminator 2
 1464 00d4 FFF7FEFF 		bl	protocol_exec_rt_system
 1465              	.L117:
 1466              		.loc 1 642 0 discriminator 1
 1467 00d8 6C4B     		ldr	r3, .L133+8
 1468 00da 5B78     		ldrb	r3, [r3, #1]	@ zero_extendqisi2
 1469 00dc 002B     		cmp	r3, #0
 1470 00de F9D0     		beq	.L118
 643:protocol.c    ****             return; // Abort received. Return to re-initialize.
 1471              		.loc 1 643 0 is_stmt 1
 1472 00e0 CDE0     		b	.L105
 1473              	.L116:
 644:protocol.c    ****           }    
 645:protocol.c    ****           
 646:protocol.c    ****           // Allows resuming from parking/safety door. Actively checks if safety door is closed and
 647:protocol.c    ****           if (sys.state == STATE_SAFETY_DOOR) {
 1474              		.loc 1 647 0
 1475 00e2 6A4B     		ldr	r3, .L133+8
 1476 00e4 1B78     		ldrb	r3, [r3]	@ zero_extendqisi2
 1477 00e6 402B     		cmp	r3, #64
 1478 00e8 0BD1     		bne	.L119
 648:protocol.c    ****             if (!(system_check_safety_door_ajar())) {
 1479              		.loc 1 648 0
 1480 00ea FFF7FEFF 		bl	system_check_safety_door_ajar
 1481 00ee 0346     		mov	r3, r0
 1482 00f0 002B     		cmp	r3, #0
 1483 00f2 06D1     		bne	.L119
 649:protocol.c    ****               sys.suspend &= ~(SUSPEND_SAFETY_DOOR_AJAR); // Reset door ajar flag to denote ready t
 1484              		.loc 1 649 0
 1485 00f4 654B     		ldr	r3, .L133+8
 1486 00f6 9B78     		ldrb	r3, [r3, #2]	@ zero_extendqisi2
 1487 00f8 23F02003 		bic	r3, r3, #32
 1488 00fc DAB2     		uxtb	r2, r3
 1489 00fe 634B     		ldr	r3, .L133+8
 1490 0100 9A70     		strb	r2, [r3, #2]
 1491              	.L119:
 650:protocol.c    ****             }
 651:protocol.c    ****           }
 652:protocol.c    **** 
 653:protocol.c    ****           // Handles parking restore and safety door resume.
 654:protocol.c    ****           if (sys.suspend & SUSPEND_INITIATE_RESTORE) {
 1492              		.loc 1 654 0
 1493 0102 624B     		ldr	r3, .L133+8
 1494 0104 9B78     		ldrb	r3, [r3, #2]	@ zero_extendqisi2
 1495 0106 03F00803 		and	r3, r3, #8
 1496 010a 002B     		cmp	r3, #0
 1497 010c 00F0AE80 		beq	.L112
 655:protocol.c    **** 
 656:protocol.c    ****             #ifdef PARKING_ENABLE
 657:protocol.c    ****               // Execute fast restore motion to the pull-out position. Parking requires homing enab
 658:protocol.c    ****               // NOTE: State is will remain DOOR, until the de-energizing and retract is complete.
 659:protocol.c    ****               if ((settings.flags & (BITFLAG_HOMING_ENABLE|BITFLAG_LASER_MODE)) == BITFLAG_HOMING_E
 660:protocol.c    ****                 // Check to ensure the motion doesn't move below pull-out position.
 661:protocol.c    ****                 if (parking_target[PARKING_AXIS] <= PARKING_TARGET) {
ARM GAS  C:\Users\barto\AppData\Local\Temp\ccvWJHma.s 			page 39


 662:protocol.c    ****                   parking_target[PARKING_AXIS] = retract_waypoint;
 663:protocol.c    ****                   pl_data->feed_rate = PARKING_RATE;
 664:protocol.c    ****                   mc_parking_motion(parking_target, pl_data);
 665:protocol.c    ****                 }
 666:protocol.c    ****               }
 667:protocol.c    ****             #endif
 668:protocol.c    **** 
 669:protocol.c    ****             // Delayed Tasks: Restart spindle and coolant, delay to power-up, then resume cycle.
 670:protocol.c    ****             if (gc_state.modal.spindle != SPINDLE_DISABLE) {
 1498              		.loc 1 670 0
 1499 0110 5C4B     		ldr	r3, .L133
 1500 0112 5B7A     		ldrb	r3, [r3, #9]	@ zero_extendqisi2
 1501 0114 002B     		cmp	r3, #0
 1502 0116 21D0     		beq	.L120
 671:protocol.c    ****               // Block if safety door re-opened during prior restore actions.
 672:protocol.c    ****               if (bit_isfalse(sys.suspend,SUSPEND_RESTART_RETRACT)) {
 1503              		.loc 1 672 0
 1504 0118 5C4B     		ldr	r3, .L133+8
 1505 011a 9B78     		ldrb	r3, [r3, #2]	@ zero_extendqisi2
 1506 011c 03F00203 		and	r3, r3, #2
 1507 0120 002B     		cmp	r3, #0
 1508 0122 1BD1     		bne	.L120
 673:protocol.c    ****                 if (bit_istrue(settings.flags,BITFLAG_LASER_MODE)) {
 1509              		.loc 1 673 0
 1510 0124 584B     		ldr	r3, .L133+4
 1511 0126 93F84830 		ldrb	r3, [r3, #72]	@ zero_extendqisi2
 1512 012a 03F00203 		and	r3, r3, #2
 1513 012e 002B     		cmp	r3, #0
 1514 0130 07D0     		beq	.L121
 674:protocol.c    ****                   // When in laser mode, ignore spindle spin-up delay. Set to turn on laser when cy
 675:protocol.c    ****                   bit_true(sys.step_control, STEP_CONTROL_UPDATE_SPINDLE_PWM);
 1515              		.loc 1 675 0
 1516 0132 564B     		ldr	r3, .L133+8
 1517 0134 1B79     		ldrb	r3, [r3, #4]	@ zero_extendqisi2
 1518 0136 43F00803 		orr	r3, r3, #8
 1519 013a DAB2     		uxtb	r2, r3
 1520 013c 534B     		ldr	r3, .L133+8
 1521 013e 1A71     		strb	r2, [r3, #4]
 1522 0140 0CE0     		b	.L120
 1523              	.L121:
 676:protocol.c    ****                 } else {
 677:protocol.c    ****                   spindle_set_state((restore_condition & (PL_COND_FLAG_SPINDLE_CW | PL_COND_FLAG_SP
 1524              		.loc 1 677 0
 1525 0142 FB7B     		ldrb	r3, [r7, #15]
 1526 0144 03F03003 		and	r3, r3, #48
 1527 0148 DBB2     		uxtb	r3, r3
 1528 014a B968     		ldr	r1, [r7, #8]	@ float
 1529 014c 1846     		mov	r0, r3
 1530 014e FFF7FEFF 		bl	spindle_set_state
 678:protocol.c    ****                   delay_sec(SAFETY_DOOR_SPINDLE_DELAY, DELAY_MODE_SYS_SUSPEND);
 1531              		.loc 1 678 0
 1532 0152 0121     		movs	r1, #1
 1533 0154 4FF08140 		mov	r0, #1082130432
 1534 0158 FFF7FEFF 		bl	delay_sec
 1535              	.L120:
 679:protocol.c    ****                 }
 680:protocol.c    ****               }
ARM GAS  C:\Users\barto\AppData\Local\Temp\ccvWJHma.s 			page 40


 681:protocol.c    ****             }
 682:protocol.c    ****             if (gc_state.modal.coolant != COOLANT_DISABLE) {
 1536              		.loc 1 682 0
 1537 015c 494B     		ldr	r3, .L133
 1538 015e 1B7A     		ldrb	r3, [r3, #8]	@ zero_extendqisi2
 1539 0160 002B     		cmp	r3, #0
 1540 0162 11D0     		beq	.L122
 683:protocol.c    ****               // Block if safety door re-opened during prior restore actions.
 684:protocol.c    ****               if (bit_isfalse(sys.suspend,SUSPEND_RESTART_RETRACT)) {
 1541              		.loc 1 684 0
 1542 0164 494B     		ldr	r3, .L133+8
 1543 0166 9B78     		ldrb	r3, [r3, #2]	@ zero_extendqisi2
 1544 0168 03F00203 		and	r3, r3, #2
 1545 016c 002B     		cmp	r3, #0
 1546 016e 0BD1     		bne	.L122
 685:protocol.c    ****                 // NOTE: Laser mode will honor this delay. An exhaust system is often controlled by
 686:protocol.c    ****                 coolant_set_state((restore_condition & (PL_COND_FLAG_COOLANT_FLOOD | PL_COND_FLAG_C
 1547              		.loc 1 686 0
 1548 0170 FB7B     		ldrb	r3, [r7, #15]
 1549 0172 03F04003 		and	r3, r3, #64
 1550 0176 DBB2     		uxtb	r3, r3
 1551 0178 1846     		mov	r0, r3
 1552 017a FFF7FEFF 		bl	coolant_set_state
 687:protocol.c    ****                 delay_sec(SAFETY_DOOR_COOLANT_DELAY, DELAY_MODE_SYS_SUSPEND);
 1553              		.loc 1 687 0
 1554 017e 0121     		movs	r1, #1
 1555 0180 4FF07E50 		mov	r0, #1065353216
 1556 0184 FFF7FEFF 		bl	delay_sec
 1557              	.L122:
 688:protocol.c    ****               }
 689:protocol.c    ****             }
 690:protocol.c    **** 
 691:protocol.c    ****             #ifdef PARKING_ENABLE
 692:protocol.c    ****               // Execute slow plunge motion from pull-out position to resume position.
 693:protocol.c    ****               if ((settings.flags & (BITFLAG_HOMING_ENABLE|BITFLAG_LASER_MODE)) == BITFLAG_HOMING_E
 694:protocol.c    ****                 // Block if safety door re-opened during prior restore actions.
 695:protocol.c    ****                 if (bit_isfalse(sys.suspend,SUSPEND_RESTART_RETRACT)) {
 696:protocol.c    ****                   // Regardless if the retract parking motion was a valid/safe motion or not, the
 697:protocol.c    ****                   // restore parking motion should logically be valid, either by returning to the
 698:protocol.c    ****                   // original position through valid machine space or by not moving at all.
 699:protocol.c    ****                   pl_data->feed_rate = PARKING_PULLOUT_RATE;
 700:protocol.c    **** 									pl_data->condition |= (restore_condition & PL_COND_ACCESSORY_MASK); // Restore accessory s
 701:protocol.c    **** 									pl_data->spindle_speed = restore_spindle_speed;
 702:protocol.c    ****                   mc_parking_motion(restore_target, pl_data);
 703:protocol.c    ****                 }
 704:protocol.c    ****               }
 705:protocol.c    ****             #endif
 706:protocol.c    **** 
 707:protocol.c    ****             if (bit_isfalse(sys.suspend,SUSPEND_RESTART_RETRACT)) {
 1558              		.loc 1 707 0
 1559 0188 404B     		ldr	r3, .L133+8
 1560 018a 9B78     		ldrb	r3, [r3, #2]	@ zero_extendqisi2
 1561 018c 03F00203 		and	r3, r3, #2
 1562 0190 002B     		cmp	r3, #0
 1563 0192 6BD1     		bne	.L112
 708:protocol.c    ****               sys.suspend |= SUSPEND_RESTORE_COMPLETE;
 1564              		.loc 1 708 0
ARM GAS  C:\Users\barto\AppData\Local\Temp\ccvWJHma.s 			page 41


 1565 0194 3D4B     		ldr	r3, .L133+8
 1566 0196 9B78     		ldrb	r3, [r3, #2]	@ zero_extendqisi2
 1567 0198 43F01003 		orr	r3, r3, #16
 1568 019c DAB2     		uxtb	r2, r3
 1569 019e 3B4B     		ldr	r3, .L133+8
 1570 01a0 9A70     		strb	r2, [r3, #2]
 709:protocol.c    ****               system_set_exec_state_flag(EXEC_CYCLE_START); // Set to resume program.
 1571              		.loc 1 709 0
 1572 01a2 0220     		movs	r0, #2
 1573 01a4 FFF7FEFF 		bl	system_set_exec_state_flag
 1574 01a8 60E0     		b	.L112
 1575              	.L113:
 710:protocol.c    ****             }
 711:protocol.c    ****           }
 712:protocol.c    **** 
 713:protocol.c    ****         }
 714:protocol.c    **** 
 715:protocol.c    **** 
 716:protocol.c    ****       } else {
 717:protocol.c    **** 
 718:protocol.c    ****         // Feed hold manager. Controls spindle stop override states.
 719:protocol.c    ****         // NOTE: Hold ensured as completed by condition check at the beginning of suspend routine.
 720:protocol.c    ****         if (sys.spindle_stop_ovr) {
 1576              		.loc 1 720 0
 1577 01aa 384B     		ldr	r3, .L133+8
 1578 01ac 9B7A     		ldrb	r3, [r3, #10]	@ zero_extendqisi2
 1579 01ae 002B     		cmp	r3, #0
 1580 01b0 47D0     		beq	.L123
 721:protocol.c    ****           // Handles beginning of spindle stop
 722:protocol.c    ****           if (sys.spindle_stop_ovr & SPINDLE_STOP_OVR_INITIATE) {
 1581              		.loc 1 722 0
 1582 01b2 364B     		ldr	r3, .L133+8
 1583 01b4 9B7A     		ldrb	r3, [r3, #10]	@ zero_extendqisi2
 1584 01b6 03F00203 		and	r3, r3, #2
 1585 01ba 002B     		cmp	r3, #0
 1586 01bc 10D0     		beq	.L124
 723:protocol.c    ****             if (gc_state.modal.spindle != SPINDLE_DISABLE) {
 1587              		.loc 1 723 0
 1588 01be 314B     		ldr	r3, .L133
 1589 01c0 5B7A     		ldrb	r3, [r3, #9]	@ zero_extendqisi2
 1590 01c2 002B     		cmp	r3, #0
 1591 01c4 08D0     		beq	.L125
 724:protocol.c    ****               spindle_set_state(SPINDLE_DISABLE,0.0); // De-energize
 1592              		.loc 1 724 0
 1593 01c6 4FF00001 		mov	r1, #0
 1594 01ca 0020     		movs	r0, #0
 1595 01cc FFF7FEFF 		bl	spindle_set_state
 725:protocol.c    ****               sys.spindle_stop_ovr = SPINDLE_STOP_OVR_ENABLED; // Set stop override state to enable
 1596              		.loc 1 725 0
 1597 01d0 2E4B     		ldr	r3, .L133+8
 1598 01d2 0122     		movs	r2, #1
 1599 01d4 9A72     		strb	r2, [r3, #10]
 1600 01d6 49E0     		b	.L112
 1601              	.L125:
 726:protocol.c    ****             } else {
 727:protocol.c    ****               sys.spindle_stop_ovr = SPINDLE_STOP_OVR_DISABLED; // Clear stop override state
 1602              		.loc 1 727 0
ARM GAS  C:\Users\barto\AppData\Local\Temp\ccvWJHma.s 			page 42


 1603 01d8 2C4B     		ldr	r3, .L133+8
 1604 01da 0022     		movs	r2, #0
 1605 01dc 9A72     		strb	r2, [r3, #10]
 1606 01de 45E0     		b	.L112
 1607              	.L124:
 728:protocol.c    ****             }
 729:protocol.c    ****           // Handles restoring of spindle state
 730:protocol.c    ****           } else if (sys.spindle_stop_ovr & (SPINDLE_STOP_OVR_RESTORE | SPINDLE_STOP_OVR_RESTORE_CY
 1608              		.loc 1 730 0
 1609 01e0 2A4B     		ldr	r3, .L133+8
 1610 01e2 9B7A     		ldrb	r3, [r3, #10]	@ zero_extendqisi2
 1611 01e4 03F00C03 		and	r3, r3, #12
 1612 01e8 002B     		cmp	r3, #0
 1613 01ea 3FD0     		beq	.L112
 731:protocol.c    ****             if (gc_state.modal.spindle != SPINDLE_DISABLE) {
 1614              		.loc 1 731 0
 1615 01ec 254B     		ldr	r3, .L133
 1616 01ee 5B7A     		ldrb	r3, [r3, #9]	@ zero_extendqisi2
 1617 01f0 002B     		cmp	r3, #0
 1618 01f2 19D0     		beq	.L128
 732:protocol.c    ****               report_feedback_message(MESSAGE_SPINDLE_RESTORE);
 1619              		.loc 1 732 0
 1620 01f4 0A20     		movs	r0, #10
 1621 01f6 FFF7FEFF 		bl	report_feedback_message
 733:protocol.c    ****               if (bit_istrue(settings.flags,BITFLAG_LASER_MODE)) {
 1622              		.loc 1 733 0
 1623 01fa 234B     		ldr	r3, .L133+4
 1624 01fc 93F84830 		ldrb	r3, [r3, #72]	@ zero_extendqisi2
 1625 0200 03F00203 		and	r3, r3, #2
 1626 0204 002B     		cmp	r3, #0
 1627 0206 07D0     		beq	.L129
 734:protocol.c    ****                 // When in laser mode, ignore spindle spin-up delay. Set to turn on laser when cycl
 735:protocol.c    ****                 bit_true(sys.step_control, STEP_CONTROL_UPDATE_SPINDLE_PWM);
 1628              		.loc 1 735 0
 1629 0208 204B     		ldr	r3, .L133+8
 1630 020a 1B79     		ldrb	r3, [r3, #4]	@ zero_extendqisi2
 1631 020c 43F00803 		orr	r3, r3, #8
 1632 0210 DAB2     		uxtb	r2, r3
 1633 0212 1E4B     		ldr	r3, .L133+8
 1634 0214 1A71     		strb	r2, [r3, #4]
 1635 0216 07E0     		b	.L128
 1636              	.L129:
 736:protocol.c    ****               } else {
 737:protocol.c    ****                 spindle_set_state((restore_condition & (PL_COND_FLAG_SPINDLE_CW | PL_COND_FLAG_SPIN
 1637              		.loc 1 737 0
 1638 0218 FB7B     		ldrb	r3, [r7, #15]
 1639 021a 03F03003 		and	r3, r3, #48
 1640 021e DBB2     		uxtb	r3, r3
 1641 0220 B968     		ldr	r1, [r7, #8]	@ float
 1642 0222 1846     		mov	r0, r3
 1643 0224 FFF7FEFF 		bl	spindle_set_state
 1644              	.L128:
 738:protocol.c    ****               }
 739:protocol.c    ****             }
 740:protocol.c    ****             if (sys.spindle_stop_ovr & SPINDLE_STOP_OVR_RESTORE_CYCLE) {
 1645              		.loc 1 740 0
 1646 0228 184B     		ldr	r3, .L133+8
ARM GAS  C:\Users\barto\AppData\Local\Temp\ccvWJHma.s 			page 43


 1647 022a 9B7A     		ldrb	r3, [r3, #10]	@ zero_extendqisi2
 1648 022c 03F00803 		and	r3, r3, #8
 1649 0230 002B     		cmp	r3, #0
 1650 0232 02D0     		beq	.L130
 741:protocol.c    ****               system_set_exec_state_flag(EXEC_CYCLE_START);  // Set to resume program.
 1651              		.loc 1 741 0
 1652 0234 0220     		movs	r0, #2
 1653 0236 FFF7FEFF 		bl	system_set_exec_state_flag
 1654              	.L130:
 742:protocol.c    ****             }
 743:protocol.c    ****             sys.spindle_stop_ovr = SPINDLE_STOP_OVR_DISABLED; // Clear stop override state
 1655              		.loc 1 743 0
 1656 023a 144B     		ldr	r3, .L133+8
 1657 023c 0022     		movs	r2, #0
 1658 023e 9A72     		strb	r2, [r3, #10]
 1659 0240 14E0     		b	.L112
 1660              	.L123:
 744:protocol.c    ****           }
 745:protocol.c    ****         } else {
 746:protocol.c    ****           // Handles spindle state during hold. NOTE: Spindle speed overrides may be altered during
 747:protocol.c    ****           // NOTE: STEP_CONTROL_UPDATE_SPINDLE_PWM is automatically reset upon resume in step gener
 748:protocol.c    ****           if (bit_istrue(sys.step_control, STEP_CONTROL_UPDATE_SPINDLE_PWM)) {
 1661              		.loc 1 748 0
 1662 0242 124B     		ldr	r3, .L133+8
 1663 0244 1B79     		ldrb	r3, [r3, #4]	@ zero_extendqisi2
 1664 0246 03F00803 		and	r3, r3, #8
 1665 024a 002B     		cmp	r3, #0
 1666 024c 0ED0     		beq	.L112
 749:protocol.c    ****             spindle_set_state((restore_condition & (PL_COND_FLAG_SPINDLE_CW | PL_COND_FLAG_SPINDLE_
 1667              		.loc 1 749 0
 1668 024e FB7B     		ldrb	r3, [r7, #15]
 1669 0250 03F03003 		and	r3, r3, #48
 1670 0254 DBB2     		uxtb	r3, r3
 1671 0256 B968     		ldr	r1, [r7, #8]	@ float
 1672 0258 1846     		mov	r0, r3
 1673 025a FFF7FEFF 		bl	spindle_set_state
 750:protocol.c    ****             bit_false(sys.step_control, STEP_CONTROL_UPDATE_SPINDLE_PWM);
 1674              		.loc 1 750 0
 1675 025e 0B4B     		ldr	r3, .L133+8
 1676 0260 1B79     		ldrb	r3, [r3, #4]	@ zero_extendqisi2
 1677 0262 23F00803 		bic	r3, r3, #8
 1678 0266 DAB2     		uxtb	r2, r3
 1679 0268 084B     		ldr	r3, .L133+8
 1680 026a 1A71     		strb	r2, [r3, #4]
 1681              	.L112:
 751:protocol.c    ****           }
 752:protocol.c    ****         }
 753:protocol.c    **** 
 754:protocol.c    ****       }
 755:protocol.c    ****     }
 756:protocol.c    **** 
 757:protocol.c    ****     protocol_exec_rt_system();
 1682              		.loc 1 757 0
 1683 026c FFF7FEFF 		bl	protocol_exec_rt_system
 1684              	.L109:
 557:protocol.c    **** 
 1685              		.loc 1 557 0
ARM GAS  C:\Users\barto\AppData\Local\Temp\ccvWJHma.s 			page 44


 1686 0270 064B     		ldr	r3, .L133+8
 1687 0272 9B78     		ldrb	r3, [r3, #2]	@ zero_extendqisi2
 1688 0274 002B     		cmp	r3, #0
 1689 0276 7FF4E8AE 		bne	.L131
 1690 027a 00E0     		b	.L105
 1691              	.L132:
 559:protocol.c    **** 
 1692              		.loc 1 559 0
 1693 027c 00BF     		nop
 1694              	.L105:
 758:protocol.c    **** 
 759:protocol.c    ****   }
 760:protocol.c    **** }
 1695              		.loc 1 760 0
 1696 027e 1037     		adds	r7, r7, #16
 1697              		.cfi_def_cfa_offset 8
 1698 0280 BD46     		mov	sp, r7
 1699              		.cfi_def_cfa_register 13
 1700              		@ sp needed
 1701 0282 80BD     		pop	{r7, pc}
 1702              	.L134:
 1703              		.align	2
 1704              	.L133:
 1705 0284 00000000 		.word	gc_state
 1706 0288 00000000 		.word	settings
 1707 028c 00000000 		.word	sys
 1708              		.cfi_endproc
 1709              	.LFE69:
 1710              		.size	protocol_exec_rt_suspend, .-protocol_exec_rt_suspend
 1711              		.text
 1712              	.Letext0:
 1713              		.file 2 "c:\\program files (x86)\\cypress\\psoc creator\\4.2\\psoc creator\\import\\gnu\\arm\\5.4.
 1714              		.file 3 "c:\\program files (x86)\\cypress\\psoc creator\\4.2\\psoc creator\\import\\gnu\\arm\\5.4.
 1715              		.file 4 "settings.h"
 1716              		.file 5 "system.h"
 1717              		.file 6 "planner.h"
 1718              		.file 7 "gcode.h"
 1719              		.file 8 "Generated_Source\\PSoC5/core_cm3.h"