ARM GAS  C:\Users\barto\AppData\Local\Temp\cc2AQ1Jn.s 			page 1


   1              		.syntax unified
   2              		.cpu cortex-m3
   3              		.fpu softvfp
   4              		.eabi_attribute 20, 1
   5              		.eabi_attribute 21, 1
   6              		.eabi_attribute 23, 3
   7              		.eabi_attribute 24, 1
   8              		.eabi_attribute 25, 1
   9              		.eabi_attribute 26, 1
  10              		.eabi_attribute 30, 6
  11              		.eabi_attribute 34, 1
  12              		.eabi_attribute 18, 4
  13              		.thumb
  14              		.syntax unified
  15              		.file	"report.c"
  16              		.text
  17              	.Ltext0:
  18              		.cfi_sections	.debug_frame
  19              		.comm	sys_position,12,4
  20              		.comm	sys_probe_position,12,4
  21              		.comm	sys_probe_state,1,1
  22              		.comm	sys_rt_exec_state,1,1
  23              		.comm	sys_rt_exec_alarm,1,1
  24              		.comm	sys_rt_exec_motion_override,1,1
  25              		.comm	sys_rt_exec_accessory_override,1,1
  26              		.section	.text.report_util_setting_prefix,"ax",%progbits
  27              		.align	2
  28              		.global	report_util_setting_prefix
  29              		.thumb
  30              		.thumb_func
  31              		.type	report_util_setting_prefix, %function
  32              	report_util_setting_prefix:
  33              	.LFB64:
  34              		.file 1 "report.c"
   1:report.c      **** /*
   2:report.c      ****   report.c - reporting and messaging methods
   3:report.c      ****   Part of Grbl
   4:report.c      ****   
   5:report.c      **** 
   6:report.c      ****   Copyright (c) 2012-2016 Sungeun K. Jeon for Gnea Research LLC
   7:report.c      ****       Updated For PSOC BJD 2017
   8:report.c      **** 
   9:report.c      ****   Grbl is free software: you can redistribute it and/or modify
  10:report.c      ****   it under the terms of the GNU General Public License as published by
  11:report.c      ****   the Free Software Foundation, either version 3 of the License, or
  12:report.c      ****   (at your option) any later version.
  13:report.c      **** 
  14:report.c      ****   Grbl is distributed in the hope that it will be useful,
  15:report.c      ****   but WITHOUT ANY WARRANTY; without even the implied warranty of
  16:report.c      ****   MERCHANTABILITY or FITNESS FOR A PARTICULAR PURPOSE.  See the
  17:report.c      ****   GNU General Public License for more details.
  18:report.c      **** 
  19:report.c      ****   You should have received a copy of the GNU General Public License
  20:report.c      ****   along with Grbl.  If not, see <http://www.gnu.org/licenses/>.
  21:report.c      **** */
  22:report.c      **** 
  23:report.c      **** /*
ARM GAS  C:\Users\barto\AppData\Local\Temp\cc2AQ1Jn.s 			page 2


  24:report.c      ****   This file functions as the primary feedback interface for Grbl. Any outgoing data, such
  25:report.c      ****   as the protocol status messages, feedback messages, and status reports, are stored here.
  26:report.c      ****   For the most part, these functions primarily are called from protocol.c methods. If a
  27:report.c      ****   different style feedback is desired (i.e. JSON), then a user can change these following
  28:report.c      ****   methods to accomodate their needs.
  29:report.c      **** */
  30:report.c      **** 
  31:report.c      **** #include "grbl.h"
  32:report.c      **** 
  33:report.c      **** 
  34:report.c      **** // Internal report utilities to reduce flash with repetitive tasks turned into functions.
  35:report.c      **** void report_util_setting_prefix(uint8_t n) { serial_write('$'); print_uint8_base10(n); serial_write
  35              		.loc 1 35 0
  36              		.cfi_startproc
  37              		@ args = 0, pretend = 0, frame = 8
  38              		@ frame_needed = 1, uses_anonymous_args = 0
  39 0000 80B5     		push	{r7, lr}
  40              		.cfi_def_cfa_offset 8
  41              		.cfi_offset 7, -8
  42              		.cfi_offset 14, -4
  43 0002 82B0     		sub	sp, sp, #8
  44              		.cfi_def_cfa_offset 16
  45 0004 00AF     		add	r7, sp, #0
  46              		.cfi_def_cfa_register 7
  47 0006 0346     		mov	r3, r0
  48 0008 FB71     		strb	r3, [r7, #7]
  49              		.loc 1 35 0
  50 000a 2420     		movs	r0, #36
  51 000c FFF7FEFF 		bl	serial_write
  52 0010 FB79     		ldrb	r3, [r7, #7]	@ zero_extendqisi2
  53 0012 1846     		mov	r0, r3
  54 0014 FFF7FEFF 		bl	print_uint8_base10
  55 0018 3D20     		movs	r0, #61
  56 001a FFF7FEFF 		bl	serial_write
  57 001e 00BF     		nop
  58 0020 0837     		adds	r7, r7, #8
  59              		.cfi_def_cfa_offset 8
  60 0022 BD46     		mov	sp, r7
  61              		.cfi_def_cfa_register 13
  62              		@ sp needed
  63 0024 80BD     		pop	{r7, pc}
  64              		.cfi_endproc
  65              	.LFE64:
  66              		.size	report_util_setting_prefix, .-report_util_setting_prefix
  67 0026 00BF     		.section	.rodata
  68              		.align	2
  69              	.LC0:
  70 0000 0D0A00   		.ascii	"\015\012\000"
  71              		.section	.text.report_util_line_feed,"ax",%progbits
  72              		.align	2
  73              		.thumb
  74              		.thumb_func
  75              		.type	report_util_line_feed, %function
  76              	report_util_line_feed:
  77              	.LFB65:
  36:report.c      **** static void report_util_line_feed() { printPgmString(PSTR("\r\n")); }
  78              		.loc 1 36 0
ARM GAS  C:\Users\barto\AppData\Local\Temp\cc2AQ1Jn.s 			page 3


  79              		.cfi_startproc
  80              		@ args = 0, pretend = 0, frame = 0
  81              		@ frame_needed = 1, uses_anonymous_args = 0
  82 0000 80B5     		push	{r7, lr}
  83              		.cfi_def_cfa_offset 8
  84              		.cfi_offset 7, -8
  85              		.cfi_offset 14, -4
  86 0002 00AF     		add	r7, sp, #0
  87              		.cfi_def_cfa_register 7
  88              		.loc 1 36 0
  89 0004 0248     		ldr	r0, .L3
  90 0006 FFF7FEFF 		bl	printPgmString
  91 000a 00BF     		nop
  92 000c 80BD     		pop	{r7, pc}
  93              	.L4:
  94 000e 00BF     		.align	2
  95              	.L3:
  96 0010 00000000 		.word	.LC0
  97              		.cfi_endproc
  98              	.LFE65:
  99              		.size	report_util_line_feed, .-report_util_line_feed
 100              		.section	.text.report_util_feedback_line_feed,"ax",%progbits
 101              		.align	2
 102              		.thumb
 103              		.thumb_func
 104              		.type	report_util_feedback_line_feed, %function
 105              	report_util_feedback_line_feed:
 106              	.LFB66:
  37:report.c      **** static void report_util_feedback_line_feed() { serial_write(']'); report_util_line_feed(); }
 107              		.loc 1 37 0
 108              		.cfi_startproc
 109              		@ args = 0, pretend = 0, frame = 0
 110              		@ frame_needed = 1, uses_anonymous_args = 0
 111 0000 80B5     		push	{r7, lr}
 112              		.cfi_def_cfa_offset 8
 113              		.cfi_offset 7, -8
 114              		.cfi_offset 14, -4
 115 0002 00AF     		add	r7, sp, #0
 116              		.cfi_def_cfa_register 7
 117              		.loc 1 37 0
 118 0004 5D20     		movs	r0, #93
 119 0006 FFF7FEFF 		bl	serial_write
 120 000a FFF7FEFF 		bl	report_util_line_feed
 121 000e 00BF     		nop
 122 0010 80BD     		pop	{r7, pc}
 123              		.cfi_endproc
 124              	.LFE66:
 125              		.size	report_util_feedback_line_feed, .-report_util_feedback_line_feed
 126 0012 00BF     		.section	.rodata
 127 0003 00       		.align	2
 128              	.LC1:
 129 0004 204700   		.ascii	" G\000"
 130              		.section	.text.report_util_gcode_modes_G,"ax",%progbits
 131              		.align	2
 132              		.thumb
 133              		.thumb_func
 134              		.type	report_util_gcode_modes_G, %function
ARM GAS  C:\Users\barto\AppData\Local\Temp\cc2AQ1Jn.s 			page 4


 135              	report_util_gcode_modes_G:
 136              	.LFB67:
  38:report.c      **** static void report_util_gcode_modes_G() { printPgmString(PSTR(" G")); }
 137              		.loc 1 38 0
 138              		.cfi_startproc
 139              		@ args = 0, pretend = 0, frame = 0
 140              		@ frame_needed = 1, uses_anonymous_args = 0
 141 0000 80B5     		push	{r7, lr}
 142              		.cfi_def_cfa_offset 8
 143              		.cfi_offset 7, -8
 144              		.cfi_offset 14, -4
 145 0002 00AF     		add	r7, sp, #0
 146              		.cfi_def_cfa_register 7
 147              		.loc 1 38 0
 148 0004 0248     		ldr	r0, .L7
 149 0006 FFF7FEFF 		bl	printPgmString
 150 000a 00BF     		nop
 151 000c 80BD     		pop	{r7, pc}
 152              	.L8:
 153 000e 00BF     		.align	2
 154              	.L7:
 155 0010 04000000 		.word	.LC1
 156              		.cfi_endproc
 157              	.LFE67:
 158              		.size	report_util_gcode_modes_G, .-report_util_gcode_modes_G
 159              		.section	.rodata
 160 0007 00       		.align	2
 161              	.LC2:
 162 0008 204D00   		.ascii	" M\000"
 163              		.section	.text.report_util_gcode_modes_M,"ax",%progbits
 164              		.align	2
 165              		.thumb
 166              		.thumb_func
 167              		.type	report_util_gcode_modes_M, %function
 168              	report_util_gcode_modes_M:
 169              	.LFB68:
  39:report.c      **** static void report_util_gcode_modes_M() { printPgmString(PSTR(" M")); }
 170              		.loc 1 39 0
 171              		.cfi_startproc
 172              		@ args = 0, pretend = 0, frame = 0
 173              		@ frame_needed = 1, uses_anonymous_args = 0
 174 0000 80B5     		push	{r7, lr}
 175              		.cfi_def_cfa_offset 8
 176              		.cfi_offset 7, -8
 177              		.cfi_offset 14, -4
 178 0002 00AF     		add	r7, sp, #0
 179              		.cfi_def_cfa_register 7
 180              		.loc 1 39 0
 181 0004 0248     		ldr	r0, .L10
 182 0006 FFF7FEFF 		bl	printPgmString
 183 000a 00BF     		nop
 184 000c 80BD     		pop	{r7, pc}
 185              	.L11:
 186 000e 00BF     		.align	2
 187              	.L10:
 188 0010 08000000 		.word	.LC2
 189              		.cfi_endproc
ARM GAS  C:\Users\barto\AppData\Local\Temp\cc2AQ1Jn.s 			page 5


 190              	.LFE68:
 191              		.size	report_util_gcode_modes_M, .-report_util_gcode_modes_M
 192              		.section	.text.report_util_axis_values,"ax",%progbits
 193              		.align	2
 194              		.thumb
 195              		.thumb_func
 196              		.type	report_util_axis_values, %function
 197              	report_util_axis_values:
 198              	.LFB69:
  40:report.c      **** // static void report_util_comment_line_feed() { serial_write(')'); report_util_line_feed(); }
  41:report.c      **** static void report_util_axis_values(float *axis_value) {
 199              		.loc 1 41 0
 200              		.cfi_startproc
 201              		@ args = 0, pretend = 0, frame = 16
 202              		@ frame_needed = 1, uses_anonymous_args = 0
 203 0000 80B5     		push	{r7, lr}
 204              		.cfi_def_cfa_offset 8
 205              		.cfi_offset 7, -8
 206              		.cfi_offset 14, -4
 207 0002 84B0     		sub	sp, sp, #16
 208              		.cfi_def_cfa_offset 24
 209 0004 00AF     		add	r7, sp, #0
 210              		.cfi_def_cfa_register 7
 211 0006 7860     		str	r0, [r7, #4]
  42:report.c      ****   uint8_t idx;
  43:report.c      ****   for (idx=0; idx<N_AXIS; idx++) {
 212              		.loc 1 43 0
 213 0008 0023     		movs	r3, #0
 214 000a FB73     		strb	r3, [r7, #15]
 215 000c 10E0     		b	.L13
 216              	.L15:
  44:report.c      ****     printFloat_CoordValue(axis_value[idx]);
 217              		.loc 1 44 0
 218 000e FB7B     		ldrb	r3, [r7, #15]	@ zero_extendqisi2
 219 0010 9B00     		lsls	r3, r3, #2
 220 0012 7A68     		ldr	r2, [r7, #4]
 221 0014 1344     		add	r3, r3, r2
 222 0016 1B68     		ldr	r3, [r3]	@ float
 223 0018 1846     		mov	r0, r3
 224 001a FFF7FEFF 		bl	printFloat_CoordValue
  45:report.c      ****     if (idx < (N_AXIS-1)) { serial_write(','); }
 225              		.loc 1 45 0
 226 001e FB7B     		ldrb	r3, [r7, #15]	@ zero_extendqisi2
 227 0020 012B     		cmp	r3, #1
 228 0022 02D8     		bhi	.L14
 229              		.loc 1 45 0 is_stmt 0 discriminator 1
 230 0024 2C20     		movs	r0, #44
 231 0026 FFF7FEFF 		bl	serial_write
 232              	.L14:
  43:report.c      ****     printFloat_CoordValue(axis_value[idx]);
 233              		.loc 1 43 0 is_stmt 1 discriminator 2
 234 002a FB7B     		ldrb	r3, [r7, #15]	@ zero_extendqisi2
 235 002c 0133     		adds	r3, r3, #1
 236 002e FB73     		strb	r3, [r7, #15]
 237              	.L13:
  43:report.c      ****     printFloat_CoordValue(axis_value[idx]);
 238              		.loc 1 43 0 is_stmt 0 discriminator 1
ARM GAS  C:\Users\barto\AppData\Local\Temp\cc2AQ1Jn.s 			page 6


 239 0030 FB7B     		ldrb	r3, [r7, #15]	@ zero_extendqisi2
 240 0032 022B     		cmp	r3, #2
 241 0034 EBD9     		bls	.L15
  46:report.c      ****   }
  47:report.c      **** }
 242              		.loc 1 47 0 is_stmt 1
 243 0036 00BF     		nop
 244 0038 1037     		adds	r7, r7, #16
 245              		.cfi_def_cfa_offset 8
 246 003a BD46     		mov	sp, r7
 247              		.cfi_def_cfa_register 13
 248              		@ sp needed
 249 003c 80BD     		pop	{r7, pc}
 250              		.cfi_endproc
 251              	.LFE69:
 252              		.size	report_util_axis_values, .-report_util_axis_values
 253 003e 00BF     		.section	.rodata
 254 000b 00       		.align	2
 255              	.LC3:
 256 000c 2049646C 		.ascii	" Idle \000"
 256      652000
 257 0013 00       		.align	2
 258              	.LC4:
 259 0014 2052756E 		.ascii	" Run  \000"
 259      202000
 260 001b 00       		.align	2
 261              	.LC5:
 262 001c 20486F6C 		.ascii	" Hold \000"
 262      642000
 263 0023 00       		.align	2
 264              	.LC6:
 265 0024 20486F6D 		.ascii	" Home \000"
 265      652000
 266 002b 00       		.align	2
 267              	.LC7:
 268 002c 20416C61 		.ascii	" Alarm\000"
 268      726D00
 269 0033 00       		.align	2
 270              	.LC8:
 271 0034 20436865 		.ascii	" Check\000"
 271      636B00
 272 003b 00       		.align	2
 273              	.LC9:
 274 003c 20446F6F 		.ascii	" Door \000"
 274      722000
 275 0043 00       		.align	2
 276              	.LC10:
 277 0044 20203F20 		.ascii	"  ?  \000"
 277      2000
 278              		.section	.text.get_state,"ax",%progbits
 279              		.align	2
 280              		.global	get_state
 281              		.thumb
 282              		.thumb_func
 283              		.type	get_state, %function
 284              	get_state:
 285              	.LFB70:
ARM GAS  C:\Users\barto\AppData\Local\Temp\cc2AQ1Jn.s 			page 7


  48:report.c      **** 
  49:report.c      **** void get_state(char *foo)
  50:report.c      **** {        
 286              		.loc 1 50 0
 287              		.cfi_startproc
 288              		@ args = 0, pretend = 0, frame = 8
 289              		@ frame_needed = 1, uses_anonymous_args = 0
 290              		@ link register save eliminated.
 291 0000 80B4     		push	{r7}
 292              		.cfi_def_cfa_offset 4
 293              		.cfi_offset 7, -4
 294 0002 83B0     		sub	sp, sp, #12
 295              		.cfi_def_cfa_offset 16
 296 0004 00AF     		add	r7, sp, #0
 297              		.cfi_def_cfa_register 7
 298 0006 7860     		str	r0, [r7, #4]
  51:report.c      ****     // pad them to same length
  52:report.c      ****     switch (sys.state) {
 299              		.loc 1 52 0
 300 0008 6A4B     		ldr	r3, .L27
 301 000a 1B78     		ldrb	r3, [r3]	@ zero_extendqisi2
 302 000c 402B     		cmp	r3, #64
 303 000e 00F2C480 		bhi	.L17
 304 0012 01A2     		adr	r2, .L19
 305 0014 52F823F0 		ldr	pc, [r2, r3, lsl #2]
 306              		.p2align 2
 307              	.L19:
 308 0018 1D010000 		.word	.L18+1
 309 001c 65010000 		.word	.L20+1
 310 0020 77010000 		.word	.L21+1
 311 0024 9B010000 		.word	.L17+1
 312 0028 53010000 		.word	.L22+1
 313 002c 9B010000 		.word	.L17+1
 314 0030 9B010000 		.word	.L17+1
 315 0034 9B010000 		.word	.L17+1
 316 0038 2F010000 		.word	.L23+1
 317 003c 9B010000 		.word	.L17+1
 318 0040 9B010000 		.word	.L17+1
 319 0044 9B010000 		.word	.L17+1
 320 0048 9B010000 		.word	.L17+1
 321 004c 9B010000 		.word	.L17+1
 322 0050 9B010000 		.word	.L17+1
 323 0054 9B010000 		.word	.L17+1
 324 0058 41010000 		.word	.L24+1
 325 005c 9B010000 		.word	.L17+1
 326 0060 9B010000 		.word	.L17+1
 327 0064 9B010000 		.word	.L17+1
 328 0068 9B010000 		.word	.L17+1
 329 006c 9B010000 		.word	.L17+1
 330 0070 9B010000 		.word	.L17+1
 331 0074 9B010000 		.word	.L17+1
 332 0078 9B010000 		.word	.L17+1
 333 007c 9B010000 		.word	.L17+1
 334 0080 9B010000 		.word	.L17+1
 335 0084 9B010000 		.word	.L17+1
 336 0088 9B010000 		.word	.L17+1
 337 008c 9B010000 		.word	.L17+1
ARM GAS  C:\Users\barto\AppData\Local\Temp\cc2AQ1Jn.s 			page 8


 338 0090 9B010000 		.word	.L17+1
 339 0094 9B010000 		.word	.L17+1
 340 0098 9B010000 		.word	.L17+1
 341 009c 9B010000 		.word	.L17+1
 342 00a0 9B010000 		.word	.L17+1
 343 00a4 9B010000 		.word	.L17+1
 344 00a8 9B010000 		.word	.L17+1
 345 00ac 9B010000 		.word	.L17+1
 346 00b0 9B010000 		.word	.L17+1
 347 00b4 9B010000 		.word	.L17+1
 348 00b8 9B010000 		.word	.L17+1
 349 00bc 9B010000 		.word	.L17+1
 350 00c0 9B010000 		.word	.L17+1
 351 00c4 9B010000 		.word	.L17+1
 352 00c8 9B010000 		.word	.L17+1
 353 00cc 9B010000 		.word	.L17+1
 354 00d0 9B010000 		.word	.L17+1
 355 00d4 9B010000 		.word	.L17+1
 356 00d8 9B010000 		.word	.L17+1
 357 00dc 9B010000 		.word	.L17+1
 358 00e0 9B010000 		.word	.L17+1
 359 00e4 9B010000 		.word	.L17+1
 360 00e8 9B010000 		.word	.L17+1
 361 00ec 9B010000 		.word	.L17+1
 362 00f0 9B010000 		.word	.L17+1
 363 00f4 9B010000 		.word	.L17+1
 364 00f8 9B010000 		.word	.L17+1
 365 00fc 9B010000 		.word	.L17+1
 366 0100 9B010000 		.word	.L17+1
 367 0104 9B010000 		.word	.L17+1
 368 0108 9B010000 		.word	.L17+1
 369 010c 9B010000 		.word	.L17+1
 370 0110 9B010000 		.word	.L17+1
 371 0114 9B010000 		.word	.L17+1
 372 0118 89010000 		.word	.L25+1
 373              		.p2align 1
 374              	.L18:
  53:report.c      ****     case STATE_IDLE: strcpy(foo," Idle ");; break;
 375              		.loc 1 53 0
 376 011c 7B68     		ldr	r3, [r7, #4]
 377 011e 264A     		ldr	r2, .L27+4
 378 0120 1068     		ldr	r0, [r2]	@ unaligned
 379 0122 1860     		str	r0, [r3]	@ unaligned
 380 0124 9188     		ldrh	r1, [r2, #4]	@ unaligned
 381 0126 9279     		ldrb	r2, [r2, #6]
 382 0128 9980     		strh	r1, [r3, #4]	@ unaligned
 383 012a 9A71     		strb	r2, [r3, #6]
 384 012c 3CE0     		b	.L26
 385              	.L23:
  54:report.c      ****     case STATE_CYCLE: strcpy(foo," Run  "); break;
 386              		.loc 1 54 0
 387 012e 7B68     		ldr	r3, [r7, #4]
 388 0130 224A     		ldr	r2, .L27+8
 389 0132 1068     		ldr	r0, [r2]	@ unaligned
 390 0134 1860     		str	r0, [r3]	@ unaligned
 391 0136 9188     		ldrh	r1, [r2, #4]	@ unaligned
 392 0138 9279     		ldrb	r2, [r2, #6]
ARM GAS  C:\Users\barto\AppData\Local\Temp\cc2AQ1Jn.s 			page 9


 393 013a 9980     		strh	r1, [r3, #4]	@ unaligned
 394 013c 9A71     		strb	r2, [r3, #6]
 395 013e 33E0     		b	.L26
 396              	.L24:
  55:report.c      ****     case STATE_HOLD: strcpy(foo," Hold "); break;
 397              		.loc 1 55 0
 398 0140 7B68     		ldr	r3, [r7, #4]
 399 0142 1F4A     		ldr	r2, .L27+12
 400 0144 1068     		ldr	r0, [r2]	@ unaligned
 401 0146 1860     		str	r0, [r3]	@ unaligned
 402 0148 9188     		ldrh	r1, [r2, #4]	@ unaligned
 403 014a 9279     		ldrb	r2, [r2, #6]
 404 014c 9980     		strh	r1, [r3, #4]	@ unaligned
 405 014e 9A71     		strb	r2, [r3, #6]
 406 0150 2AE0     		b	.L26
 407              	.L22:
  56:report.c      ****     case STATE_HOMING: strcpy(foo," Home "); break;
 408              		.loc 1 56 0
 409 0152 7B68     		ldr	r3, [r7, #4]
 410 0154 1B4A     		ldr	r2, .L27+16
 411 0156 1068     		ldr	r0, [r2]	@ unaligned
 412 0158 1860     		str	r0, [r3]	@ unaligned
 413 015a 9188     		ldrh	r1, [r2, #4]	@ unaligned
 414 015c 9279     		ldrb	r2, [r2, #6]
 415 015e 9980     		strh	r1, [r3, #4]	@ unaligned
 416 0160 9A71     		strb	r2, [r3, #6]
 417 0162 21E0     		b	.L26
 418              	.L20:
  57:report.c      ****     case STATE_ALARM: strcpy(foo," Alarm"); break;
 419              		.loc 1 57 0
 420 0164 7B68     		ldr	r3, [r7, #4]
 421 0166 184A     		ldr	r2, .L27+20
 422 0168 1068     		ldr	r0, [r2]	@ unaligned
 423 016a 1860     		str	r0, [r3]	@ unaligned
 424 016c 9188     		ldrh	r1, [r2, #4]	@ unaligned
 425 016e 9279     		ldrb	r2, [r2, #6]
 426 0170 9980     		strh	r1, [r3, #4]	@ unaligned
 427 0172 9A71     		strb	r2, [r3, #6]
 428 0174 18E0     		b	.L26
 429              	.L21:
  58:report.c      ****     case STATE_CHECK_MODE: strcpy(foo," Check"); break;
 430              		.loc 1 58 0
 431 0176 7B68     		ldr	r3, [r7, #4]
 432 0178 144A     		ldr	r2, .L27+24
 433 017a 1068     		ldr	r0, [r2]	@ unaligned
 434 017c 1860     		str	r0, [r3]	@ unaligned
 435 017e 9188     		ldrh	r1, [r2, #4]	@ unaligned
 436 0180 9279     		ldrb	r2, [r2, #6]
 437 0182 9980     		strh	r1, [r3, #4]	@ unaligned
 438 0184 9A71     		strb	r2, [r3, #6]
 439 0186 0FE0     		b	.L26
 440              	.L25:
  59:report.c      ****     case STATE_SAFETY_DOOR: strcpy(foo," Door "); break;
 441              		.loc 1 59 0
 442 0188 7B68     		ldr	r3, [r7, #4]
 443 018a 114A     		ldr	r2, .L27+28
 444 018c 1068     		ldr	r0, [r2]	@ unaligned
ARM GAS  C:\Users\barto\AppData\Local\Temp\cc2AQ1Jn.s 			page 10


 445 018e 1860     		str	r0, [r3]	@ unaligned
 446 0190 9188     		ldrh	r1, [r2, #4]	@ unaligned
 447 0192 9279     		ldrb	r2, [r2, #6]
 448 0194 9980     		strh	r1, [r3, #4]	@ unaligned
 449 0196 9A71     		strb	r2, [r3, #6]
 450 0198 06E0     		b	.L26
 451              	.L17:
  60:report.c      ****     default:strcpy(foo,"  ?  "); break;
 452              		.loc 1 60 0
 453 019a 7B68     		ldr	r3, [r7, #4]
 454 019c 0D4A     		ldr	r2, .L27+32
 455 019e 1068     		ldr	r0, [r2]	@ unaligned
 456 01a0 1860     		str	r0, [r3]	@ unaligned
 457 01a2 9288     		ldrh	r2, [r2, #4]	@ unaligned
 458 01a4 9A80     		strh	r2, [r3, #4]	@ unaligned
 459 01a6 00BF     		nop
 460              	.L26:
  61:report.c      ****   }     
  62:report.c      **** }
 461              		.loc 1 62 0
 462 01a8 00BF     		nop
 463 01aa 0C37     		adds	r7, r7, #12
 464              		.cfi_def_cfa_offset 4
 465 01ac BD46     		mov	sp, r7
 466              		.cfi_def_cfa_register 13
 467              		@ sp needed
 468 01ae 80BC     		pop	{r7}
 469              		.cfi_restore 7
 470              		.cfi_def_cfa_offset 0
 471 01b0 7047     		bx	lr
 472              	.L28:
 473 01b2 00BF     		.align	2
 474              	.L27:
 475 01b4 00000000 		.word	sys
 476 01b8 0C000000 		.word	.LC3
 477 01bc 14000000 		.word	.LC4
 478 01c0 1C000000 		.word	.LC5
 479 01c4 24000000 		.word	.LC6
 480 01c8 2C000000 		.word	.LC7
 481 01cc 34000000 		.word	.LC8
 482 01d0 3C000000 		.word	.LC9
 483 01d4 44000000 		.word	.LC10
 484              		.cfi_endproc
 485              	.LFE70:
 486              		.size	get_state, .-get_state
 487              		.section	.text.report_util_uint8_setting,"ax",%progbits
 488              		.align	2
 489              		.thumb
 490              		.thumb_func
 491              		.type	report_util_uint8_setting, %function
 492              	report_util_uint8_setting:
 493              	.LFB71:
  63:report.c      **** 
  64:report.c      **** /*
  65:report.c      **** static void report_util_setting_string(uint8_t n) {
  66:report.c      ****   serial_write(' ');
  67:report.c      ****   serial_write('(');
ARM GAS  C:\Users\barto\AppData\Local\Temp\cc2AQ1Jn.s 			page 11


  68:report.c      ****   switch(n) {
  69:report.c      ****     case 0: printPgmString(PSTR("stp pulse")); break;
  70:report.c      ****     case 1: printPgmString(PSTR("idl delay")); break; 
  71:report.c      ****     case 2: printPgmString(PSTR("stp inv")); break;
  72:report.c      ****     case 3: printPgmString(PSTR("dir inv")); break;
  73:report.c      ****     case 4: printPgmString(PSTR("stp en inv")); break;
  74:report.c      ****     case 5: printPgmString(PSTR("lim inv")); break;
  75:report.c      ****     case 6: printPgmString(PSTR("prb inv")); break;
  76:report.c      ****     case 10: printPgmString(PSTR("rpt")); break;
  77:report.c      ****     case 11: printPgmString(PSTR("jnc dev")); break;
  78:report.c      ****     case 12: printPgmString(PSTR("arc tol")); break;
  79:report.c      ****     case 13: printPgmString(PSTR("rpt inch")); break;
  80:report.c      ****     case 20: printPgmString(PSTR("sft lim")); break;
  81:report.c      ****     case 21: printPgmString(PSTR("hrd lim")); break;
  82:report.c      ****     case 22: printPgmString(PSTR("hm cyc")); break;
  83:report.c      ****     case 23: printPgmString(PSTR("hm dir inv")); break;
  84:report.c      ****     case 24: printPgmString(PSTR("hm feed")); break;
  85:report.c      ****     case 25: printPgmString(PSTR("hm seek")); break;
  86:report.c      ****     case 26: printPgmString(PSTR("hm delay")); break;
  87:report.c      ****     case 27: printPgmString(PSTR("hm pulloff")); break;
  88:report.c      ****     case 30: printPgmString(PSTR("rpm max")); break;
  89:report.c      ****     case 31: printPgmString(PSTR("rpm min")); break;
  90:report.c      ****     case 32: printPgmString(PSTR("laser")); break;
  91:report.c      ****     default:
  92:report.c      ****       n -= AXIS_SETTINGS_START_VAL;
  93:report.c      ****       uint8_t idx = 0;
  94:report.c      ****       while (n >= AXIS_SETTINGS_INCREMENT) {
  95:report.c      ****         n -= AXIS_SETTINGS_INCREMENT;
  96:report.c      ****         idx++;
  97:report.c      ****       }
  98:report.c      ****       serial_write(n+'x');
  99:report.c      ****       switch (idx) {
 100:report.c      ****         case 0: printPgmString(PSTR(":stp/mm")); break;
 101:report.c      ****         case 1: printPgmString(PSTR(":mm/min")); break;
 102:report.c      ****         case 2: printPgmString(PSTR(":mm/s^2")); break;
 103:report.c      ****         case 3: printPgmString(PSTR(":mm max")); break;
 104:report.c      ****       }
 105:report.c      ****       break;
 106:report.c      ****   }
 107:report.c      ****   report_util_comment_line_feed();
 108:report.c      **** }
 109:report.c      **** */
 110:report.c      **** 
 111:report.c      **** static void report_util_uint8_setting(uint8_t n, int val) { 
 494              		.loc 1 111 0
 495              		.cfi_startproc
 496              		@ args = 0, pretend = 0, frame = 8
 497              		@ frame_needed = 1, uses_anonymous_args = 0
 498 0000 80B5     		push	{r7, lr}
 499              		.cfi_def_cfa_offset 8
 500              		.cfi_offset 7, -8
 501              		.cfi_offset 14, -4
 502 0002 82B0     		sub	sp, sp, #8
 503              		.cfi_def_cfa_offset 16
 504 0004 00AF     		add	r7, sp, #0
 505              		.cfi_def_cfa_register 7
 506 0006 0346     		mov	r3, r0
ARM GAS  C:\Users\barto\AppData\Local\Temp\cc2AQ1Jn.s 			page 12


 507 0008 3960     		str	r1, [r7]
 508 000a FB71     		strb	r3, [r7, #7]
 112:report.c      ****   report_util_setting_prefix(n); 
 509              		.loc 1 112 0
 510 000c FB79     		ldrb	r3, [r7, #7]	@ zero_extendqisi2
 511 000e 1846     		mov	r0, r3
 512 0010 FFF7FEFF 		bl	report_util_setting_prefix
 113:report.c      ****   print_uint8_base10(val); 
 513              		.loc 1 113 0
 514 0014 3B68     		ldr	r3, [r7]
 515 0016 DBB2     		uxtb	r3, r3
 516 0018 1846     		mov	r0, r3
 517 001a FFF7FEFF 		bl	print_uint8_base10
 114:report.c      ****   report_util_line_feed(); // report_util_setting_string(n); 
 518              		.loc 1 114 0
 519 001e FFF7FEFF 		bl	report_util_line_feed
 115:report.c      **** }
 520              		.loc 1 115 0
 521 0022 00BF     		nop
 522 0024 0837     		adds	r7, r7, #8
 523              		.cfi_def_cfa_offset 8
 524 0026 BD46     		mov	sp, r7
 525              		.cfi_def_cfa_register 13
 526              		@ sp needed
 527 0028 80BD     		pop	{r7, pc}
 528              		.cfi_endproc
 529              	.LFE71:
 530              		.size	report_util_uint8_setting, .-report_util_uint8_setting
 531 002a 00BF     		.section	.text.report_util_float_setting,"ax",%progbits
 532              		.align	2
 533              		.thumb
 534              		.thumb_func
 535              		.type	report_util_float_setting, %function
 536              	report_util_float_setting:
 537              	.LFB72:
 116:report.c      **** static void report_util_float_setting(uint8_t n, float val, uint8_t n_decimal) { 
 538              		.loc 1 116 0
 539              		.cfi_startproc
 540              		@ args = 0, pretend = 0, frame = 8
 541              		@ frame_needed = 1, uses_anonymous_args = 0
 542 0000 80B5     		push	{r7, lr}
 543              		.cfi_def_cfa_offset 8
 544              		.cfi_offset 7, -8
 545              		.cfi_offset 14, -4
 546 0002 82B0     		sub	sp, sp, #8
 547              		.cfi_def_cfa_offset 16
 548 0004 00AF     		add	r7, sp, #0
 549              		.cfi_def_cfa_register 7
 550 0006 0346     		mov	r3, r0
 551 0008 3960     		str	r1, [r7]	@ float
 552 000a FB71     		strb	r3, [r7, #7]
 553 000c 1346     		mov	r3, r2
 554 000e BB71     		strb	r3, [r7, #6]
 117:report.c      ****   report_util_setting_prefix(n); 
 555              		.loc 1 117 0
 556 0010 FB79     		ldrb	r3, [r7, #7]	@ zero_extendqisi2
 557 0012 1846     		mov	r0, r3
ARM GAS  C:\Users\barto\AppData\Local\Temp\cc2AQ1Jn.s 			page 13


 558 0014 FFF7FEFF 		bl	report_util_setting_prefix
 118:report.c      ****   printFloat(val,n_decimal);
 559              		.loc 1 118 0
 560 0018 BB79     		ldrb	r3, [r7, #6]	@ zero_extendqisi2
 561 001a 1946     		mov	r1, r3
 562 001c 3868     		ldr	r0, [r7]	@ float
 563 001e FFF7FEFF 		bl	printFloat
 119:report.c      ****   report_util_line_feed(); // report_util_setting_string(n);
 564              		.loc 1 119 0
 565 0022 FFF7FEFF 		bl	report_util_line_feed
 120:report.c      **** }
 566              		.loc 1 120 0
 567 0026 00BF     		nop
 568 0028 0837     		adds	r7, r7, #8
 569              		.cfi_def_cfa_offset 8
 570 002a BD46     		mov	sp, r7
 571              		.cfi_def_cfa_register 13
 572              		@ sp needed
 573 002c 80BD     		pop	{r7, pc}
 574              		.cfi_endproc
 575              	.LFE72:
 576              		.size	report_util_float_setting, .-report_util_float_setting
 577 002e 00BF     		.section	.rodata
 578 004a 0000     		.align	2
 579              	.LC11:
 580 004c 6F6B0D0A 		.ascii	"ok\015\012\000"
 580      00
 581 0051 000000   		.align	2
 582              	.LC12:
 583 0054 6572726F 		.ascii	"error:\000"
 583      723A00
 584              		.section	.text.report_status_message,"ax",%progbits
 585              		.align	2
 586              		.global	report_status_message
 587              		.thumb
 588              		.thumb_func
 589              		.type	report_status_message, %function
 590              	report_status_message:
 591              	.LFB73:
 121:report.c      **** 
 122:report.c      **** 
 123:report.c      **** // Handles the primary confirmation protocol response for streaming interfaces and human-feedback.
 124:report.c      **** // For every incoming line, this method responds with an 'ok' for a successful command or an
 125:report.c      **** // 'error:'  to indicate some error event with the line or some critical system error during
 126:report.c      **** // operation. Errors events can originate from the g-code parser, settings module, or asynchronousl
 127:report.c      **** // from a critical error, such as a triggered hard limit. Interface should always monitor for these
 128:report.c      **** // responses.
 129:report.c      **** void report_status_message(uint8_t status_code)
 130:report.c      **** {
 592              		.loc 1 130 0
 593              		.cfi_startproc
 594              		@ args = 0, pretend = 0, frame = 8
 595              		@ frame_needed = 1, uses_anonymous_args = 0
 596 0000 80B5     		push	{r7, lr}
 597              		.cfi_def_cfa_offset 8
 598              		.cfi_offset 7, -8
 599              		.cfi_offset 14, -4
ARM GAS  C:\Users\barto\AppData\Local\Temp\cc2AQ1Jn.s 			page 14


 600 0002 82B0     		sub	sp, sp, #8
 601              		.cfi_def_cfa_offset 16
 602 0004 00AF     		add	r7, sp, #0
 603              		.cfi_def_cfa_register 7
 604 0006 0346     		mov	r3, r0
 605 0008 FB71     		strb	r3, [r7, #7]
 131:report.c      ****   switch(status_code) {
 606              		.loc 1 131 0
 607 000a FB79     		ldrb	r3, [r7, #7]	@ zero_extendqisi2
 608 000c 002B     		cmp	r3, #0
 609 000e 03D1     		bne	.L35
 132:report.c      ****     case STATUS_OK: // STATUS_OK
 133:report.c      ****       printPgmString(PSTR("ok\r\n")); break;
 610              		.loc 1 133 0
 611 0010 0848     		ldr	r0, .L36
 612 0012 FFF7FEFF 		bl	printPgmString
 613 0016 08E0     		b	.L34
 614              	.L35:
 134:report.c      ****     default:
 135:report.c      ****       printPgmString(PSTR("error:"));
 615              		.loc 1 135 0
 616 0018 0748     		ldr	r0, .L36+4
 617 001a FFF7FEFF 		bl	printPgmString
 136:report.c      ****       print_uint8_base10(status_code);
 618              		.loc 1 136 0
 619 001e FB79     		ldrb	r3, [r7, #7]	@ zero_extendqisi2
 620 0020 1846     		mov	r0, r3
 621 0022 FFF7FEFF 		bl	print_uint8_base10
 137:report.c      ****       report_util_line_feed();
 622              		.loc 1 137 0
 623 0026 FFF7FEFF 		bl	report_util_line_feed
 624              	.L34:
 138:report.c      ****   }
 139:report.c      **** }
 625              		.loc 1 139 0
 626 002a 00BF     		nop
 627 002c 0837     		adds	r7, r7, #8
 628              		.cfi_def_cfa_offset 8
 629 002e BD46     		mov	sp, r7
 630              		.cfi_def_cfa_register 13
 631              		@ sp needed
 632 0030 80BD     		pop	{r7, pc}
 633              	.L37:
 634 0032 00BF     		.align	2
 635              	.L36:
 636 0034 4C000000 		.word	.LC11
 637 0038 54000000 		.word	.LC12
 638              		.cfi_endproc
 639              	.LFE73:
 640              		.size	report_status_message, .-report_status_message
 641              		.section	.rodata
 642 005b 00       		.align	2
 643              	.LC13:
 644 005c 414C4152 		.ascii	"ALARM:\000"
 644      4D3A00
 645              		.section	.text.report_alarm_message,"ax",%progbits
 646              		.align	2
ARM GAS  C:\Users\barto\AppData\Local\Temp\cc2AQ1Jn.s 			page 15


 647              		.global	report_alarm_message
 648              		.thumb
 649              		.thumb_func
 650              		.type	report_alarm_message, %function
 651              	report_alarm_message:
 652              	.LFB74:
 140:report.c      **** 
 141:report.c      **** // Prints alarm messages.
 142:report.c      **** void report_alarm_message(int8_t alarm_code)
 143:report.c      **** {
 653              		.loc 1 143 0
 654              		.cfi_startproc
 655              		@ args = 0, pretend = 0, frame = 8
 656              		@ frame_needed = 1, uses_anonymous_args = 0
 657 0000 80B5     		push	{r7, lr}
 658              		.cfi_def_cfa_offset 8
 659              		.cfi_offset 7, -8
 660              		.cfi_offset 14, -4
 661 0002 82B0     		sub	sp, sp, #8
 662              		.cfi_def_cfa_offset 16
 663 0004 00AF     		add	r7, sp, #0
 664              		.cfi_def_cfa_register 7
 665 0006 0346     		mov	r3, r0
 666 0008 FB71     		strb	r3, [r7, #7]
 144:report.c      ****   printPgmString(PSTR("ALARM:"));
 667              		.loc 1 144 0
 668 000a 0848     		ldr	r0, .L39
 669 000c FFF7FEFF 		bl	printPgmString
 145:report.c      ****   print_uint8_base10(alarm_code);
 670              		.loc 1 145 0
 671 0010 FB79     		ldrb	r3, [r7, #7]	@ zero_extendqisi2
 672 0012 1846     		mov	r0, r3
 673 0014 FFF7FEFF 		bl	print_uint8_base10
 146:report.c      ****   report_util_line_feed();
 674              		.loc 1 146 0
 675 0018 FFF7FEFF 		bl	report_util_line_feed
 147:report.c      ****   delay_ms(500); // Force delay to ensure message clears serial write buffer.
 676              		.loc 1 147 0
 677 001c 4FF4FA70 		mov	r0, #500
 678 0020 FFF7FEFF 		bl	CyDelay
 148:report.c      **** }
 679              		.loc 1 148 0
 680 0024 00BF     		nop
 681 0026 0837     		adds	r7, r7, #8
 682              		.cfi_def_cfa_offset 8
 683 0028 BD46     		mov	sp, r7
 684              		.cfi_def_cfa_register 13
 685              		@ sp needed
 686 002a 80BD     		pop	{r7, pc}
 687              	.L40:
 688              		.align	2
 689              	.L39:
 690 002c 5C000000 		.word	.LC13
 691              		.cfi_endproc
 692              	.LFE74:
 693              		.size	report_alarm_message, .-report_alarm_message
 694              		.section	.rodata
ARM GAS  C:\Users\barto\AppData\Local\Temp\cc2AQ1Jn.s 			page 16


 695 0063 00       		.align	2
 696              	.LC14:
 697 0064 5B4D5347 		.ascii	"[MSG:\000"
 697      3A00
 698 006a 0000     		.align	2
 699              	.LC15:
 700 006c 52657365 		.ascii	"Reset to continue\000"
 700      7420746F 
 700      20636F6E 
 700      74696E75 
 700      6500
 701 007e 0000     		.align	2
 702              	.LC16:
 703 0080 27244827 		.ascii	"'$H'|'$X' to unlock\000"
 703      7C272458 
 703      2720746F 
 703      20756E6C 
 703      6F636B00 
 704              		.align	2
 705              	.LC17:
 706 0094 43617574 		.ascii	"Caution: Unlocked\000"
 706      696F6E3A 
 706      20556E6C 
 706      6F636B65 
 706      6400
 707 00a6 0000     		.align	2
 708              	.LC18:
 709 00a8 456E6162 		.ascii	"Enabled\000"
 709      6C656400 
 710              		.align	2
 711              	.LC19:
 712 00b0 44697361 		.ascii	"Disabled\000"
 712      626C6564 
 712      00
 713 00b9 000000   		.align	2
 714              	.LC20:
 715 00bc 43686563 		.ascii	"Check Door\000"
 715      6B20446F 
 715      6F7200
 716 00c7 00       		.align	2
 717              	.LC21:
 718 00c8 43686563 		.ascii	"Check Limits\000"
 718      6B204C69 
 718      6D697473 
 718      00
 719 00d5 000000   		.align	2
 720              	.LC22:
 721 00d8 50676D20 		.ascii	"Pgm End\000"
 721      456E6400 
 722              		.align	2
 723              	.LC23:
 724 00e0 52657374 		.ascii	"Restoring defaults\000"
 724      6F72696E 
 724      67206465 
 724      6661756C 
 724      747300
 725 00f3 00       		.align	2
ARM GAS  C:\Users\barto\AppData\Local\Temp\cc2AQ1Jn.s 			page 17


 726              	.LC24:
 727 00f4 52657374 		.ascii	"Restoring spindle\000"
 727      6F72696E 
 727      67207370 
 727      696E646C 
 727      6500
 728 0106 0000     		.align	2
 729              	.LC25:
 730 0108 536C6565 		.ascii	"Sleeping\000"
 730      70696E67 
 730      00
 731              		.section	.text.report_feedback_message,"ax",%progbits
 732              		.align	2
 733              		.global	report_feedback_message
 734              		.thumb
 735              		.thumb_func
 736              		.type	report_feedback_message, %function
 737              	report_feedback_message:
 738              	.LFB75:
 149:report.c      **** 
 150:report.c      **** // Prints feedback messages. This serves as a centralized method to provide additional
 151:report.c      **** // user feedback for things that are not of the status/alarm message protocol. These are
 152:report.c      **** // messages such as setup warnings, switch toggling, and how to exit alarms.
 153:report.c      **** // NOTE: For interfaces, messages are always placed within brackets. And if silent mode
 154:report.c      **** // is installed, the message number codes are less than zero.
 155:report.c      **** void report_feedback_message(uint8_t message_code)
 156:report.c      **** {
 739              		.loc 1 156 0
 740              		.cfi_startproc
 741              		@ args = 0, pretend = 0, frame = 8
 742              		@ frame_needed = 1, uses_anonymous_args = 0
 743 0000 80B5     		push	{r7, lr}
 744              		.cfi_def_cfa_offset 8
 745              		.cfi_offset 7, -8
 746              		.cfi_offset 14, -4
 747 0002 82B0     		sub	sp, sp, #8
 748              		.cfi_def_cfa_offset 16
 749 0004 00AF     		add	r7, sp, #0
 750              		.cfi_def_cfa_register 7
 751 0006 0346     		mov	r3, r0
 752 0008 FB71     		strb	r3, [r7, #7]
 157:report.c      ****   printPgmString(PSTR("[MSG:"));
 753              		.loc 1 157 0
 754 000a 2948     		ldr	r0, .L55
 755 000c FFF7FEFF 		bl	printPgmString
 158:report.c      ****   switch(message_code) {
 756              		.loc 1 158 0
 757 0010 FB79     		ldrb	r3, [r7, #7]	@ zero_extendqisi2
 758 0012 013B     		subs	r3, r3, #1
 759 0014 0A2B     		cmp	r3, #10
 760 0016 44D8     		bhi	.L42
 761 0018 01A2     		adr	r2, .L44
 762 001a 52F823F0 		ldr	pc, [r2, r3, lsl #2]
 763 001e 00BF     		.p2align 2
 764              	.L44:
 765 0020 4D000000 		.word	.L43+1
 766 0024 55000000 		.word	.L45+1
ARM GAS  C:\Users\barto\AppData\Local\Temp\cc2AQ1Jn.s 			page 18


 767 0028 5D000000 		.word	.L46+1
 768 002c 65000000 		.word	.L47+1
 769 0030 6D000000 		.word	.L48+1
 770 0034 75000000 		.word	.L49+1
 771 0038 7D000000 		.word	.L50+1
 772 003c 85000000 		.word	.L51+1
 773 0040 8D000000 		.word	.L52+1
 774 0044 95000000 		.word	.L53+1
 775 0048 9D000000 		.word	.L54+1
 776              		.p2align 1
 777              	.L43:
 159:report.c      ****     case MESSAGE_CRITICAL_EVENT:
 160:report.c      ****       printPgmString(PSTR("Reset to continue")); break;
 778              		.loc 1 160 0
 779 004c 1948     		ldr	r0, .L55+4
 780 004e FFF7FEFF 		bl	printPgmString
 781 0052 26E0     		b	.L42
 782              	.L45:
 161:report.c      ****     case MESSAGE_ALARM_LOCK:
 162:report.c      ****       printPgmString(PSTR("'$H'|'$X' to unlock")); break;
 783              		.loc 1 162 0
 784 0054 1848     		ldr	r0, .L55+8
 785 0056 FFF7FEFF 		bl	printPgmString
 786 005a 22E0     		b	.L42
 787              	.L46:
 163:report.c      ****     case MESSAGE_ALARM_UNLOCK:
 164:report.c      ****       printPgmString(PSTR("Caution: Unlocked")); break;
 788              		.loc 1 164 0
 789 005c 1748     		ldr	r0, .L55+12
 790 005e FFF7FEFF 		bl	printPgmString
 791 0062 1EE0     		b	.L42
 792              	.L47:
 165:report.c      ****     case MESSAGE_ENABLED:
 166:report.c      ****       printPgmString(PSTR("Enabled")); break;
 793              		.loc 1 166 0
 794 0064 1648     		ldr	r0, .L55+16
 795 0066 FFF7FEFF 		bl	printPgmString
 796 006a 1AE0     		b	.L42
 797              	.L48:
 167:report.c      ****     case MESSAGE_DISABLED:
 168:report.c      ****       printPgmString(PSTR("Disabled")); break;
 798              		.loc 1 168 0
 799 006c 1548     		ldr	r0, .L55+20
 800 006e FFF7FEFF 		bl	printPgmString
 801 0072 16E0     		b	.L42
 802              	.L49:
 169:report.c      ****     case MESSAGE_SAFETY_DOOR_AJAR:
 170:report.c      ****       printPgmString(PSTR("Check Door")); break;
 803              		.loc 1 170 0
 804 0074 1448     		ldr	r0, .L55+24
 805 0076 FFF7FEFF 		bl	printPgmString
 806 007a 12E0     		b	.L42
 807              	.L50:
 171:report.c      ****     case MESSAGE_CHECK_LIMITS:
 172:report.c      ****       printPgmString(PSTR("Check Limits")); break;
 808              		.loc 1 172 0
 809 007c 1348     		ldr	r0, .L55+28
ARM GAS  C:\Users\barto\AppData\Local\Temp\cc2AQ1Jn.s 			page 19


 810 007e FFF7FEFF 		bl	printPgmString
 811 0082 0EE0     		b	.L42
 812              	.L51:
 173:report.c      ****     case MESSAGE_PROGRAM_END:
 174:report.c      ****       printPgmString(PSTR("Pgm End")); break;
 813              		.loc 1 174 0
 814 0084 1248     		ldr	r0, .L55+32
 815 0086 FFF7FEFF 		bl	printPgmString
 816 008a 0AE0     		b	.L42
 817              	.L52:
 175:report.c      ****     case MESSAGE_RESTORE_DEFAULTS:
 176:report.c      ****       printPgmString(PSTR("Restoring defaults")); break;
 818              		.loc 1 176 0
 819 008c 1148     		ldr	r0, .L55+36
 820 008e FFF7FEFF 		bl	printPgmString
 821 0092 06E0     		b	.L42
 822              	.L53:
 177:report.c      ****     case MESSAGE_SPINDLE_RESTORE:
 178:report.c      ****       printPgmString(PSTR("Restoring spindle")); break;
 823              		.loc 1 178 0
 824 0094 1048     		ldr	r0, .L55+40
 825 0096 FFF7FEFF 		bl	printPgmString
 826 009a 02E0     		b	.L42
 827              	.L54:
 179:report.c      ****     case MESSAGE_SLEEP_MODE:
 180:report.c      ****       printPgmString(PSTR("Sleeping")); break;
 828              		.loc 1 180 0
 829 009c 0F48     		ldr	r0, .L55+44
 830 009e FFF7FEFF 		bl	printPgmString
 831              	.L42:
 181:report.c      ****   }
 182:report.c      ****   report_util_feedback_line_feed();
 832              		.loc 1 182 0
 833 00a2 FFF7FEFF 		bl	report_util_feedback_line_feed
 183:report.c      **** }
 834              		.loc 1 183 0
 835 00a6 00BF     		nop
 836 00a8 0837     		adds	r7, r7, #8
 837              		.cfi_def_cfa_offset 8
 838 00aa BD46     		mov	sp, r7
 839              		.cfi_def_cfa_register 13
 840              		@ sp needed
 841 00ac 80BD     		pop	{r7, pc}
 842              	.L56:
 843 00ae 00BF     		.align	2
 844              	.L55:
 845 00b0 64000000 		.word	.LC14
 846 00b4 6C000000 		.word	.LC15
 847 00b8 80000000 		.word	.LC16
 848 00bc 94000000 		.word	.LC17
 849 00c0 A8000000 		.word	.LC18
 850 00c4 B0000000 		.word	.LC19
 851 00c8 BC000000 		.word	.LC20
 852 00cc C8000000 		.word	.LC21
 853 00d0 D8000000 		.word	.LC22
 854 00d4 E0000000 		.word	.LC23
 855 00d8 F4000000 		.word	.LC24
ARM GAS  C:\Users\barto\AppData\Local\Temp\cc2AQ1Jn.s 			page 20


 856 00dc 08010000 		.word	.LC25
 857              		.cfi_endproc
 858              	.LFE75:
 859              		.size	report_feedback_message, .-report_feedback_message
 860              		.section	.rodata
 861 0111 000000   		.align	2
 862              	.LC26:
 863 0114 0D0A4772 		.ascii	"\015\012Grbl 1.1f ['$' for help]\015\012\000"
 863      626C2031 
 863      2E316620 
 863      5B272427 
 863      20666F72 
 864              		.section	.text.report_init_message,"ax",%progbits
 865              		.align	2
 866              		.global	report_init_message
 867              		.thumb
 868              		.thumb_func
 869              		.type	report_init_message, %function
 870              	report_init_message:
 871              	.LFB76:
 184:report.c      **** 
 185:report.c      **** 
 186:report.c      **** // Welcome message
 187:report.c      **** void report_init_message()
 188:report.c      **** {
 872              		.loc 1 188 0
 873              		.cfi_startproc
 874              		@ args = 0, pretend = 0, frame = 0
 875              		@ frame_needed = 1, uses_anonymous_args = 0
 876 0000 80B5     		push	{r7, lr}
 877              		.cfi_def_cfa_offset 8
 878              		.cfi_offset 7, -8
 879              		.cfi_offset 14, -4
 880 0002 00AF     		add	r7, sp, #0
 881              		.cfi_def_cfa_register 7
 189:report.c      ****   printPgmString(PSTR("\r\nGrbl " GRBL_VERSION " ['$' for help]\r\n"));
 882              		.loc 1 189 0
 883 0004 0248     		ldr	r0, .L58
 884 0006 FFF7FEFF 		bl	printPgmString
 190:report.c      **** }
 885              		.loc 1 190 0
 886 000a 00BF     		nop
 887 000c 80BD     		pop	{r7, pc}
 888              	.L59:
 889 000e 00BF     		.align	2
 890              	.L58:
 891 0010 14010000 		.word	.LC26
 892              		.cfi_endproc
 893              	.LFE76:
 894              		.size	report_init_message, .-report_init_message
 895              		.section	.rodata
 896 0131 000000   		.align	2
 897              	.LC27:
 898 0134 5B484C50 		.ascii	"[HLP:$$ $# $G $I $N $x=val $Nx=line $J=line $SLP $C"
 898      3A242420 
 898      24232024 
 898      47202449 
ARM GAS  C:\Users\barto\AppData\Local\Temp\cc2AQ1Jn.s 			page 21


 898      20244E20 
 899 0167 20245820 		.ascii	" $X $H ~ ! ? ctrl-x]\015\012\000"
 899      2448207E 
 899      2021203F 
 899      20637472 
 899      6C2D785D 
 900              		.section	.text.report_grbl_help,"ax",%progbits
 901              		.align	2
 902              		.global	report_grbl_help
 903              		.thumb
 904              		.thumb_func
 905              		.type	report_grbl_help, %function
 906              	report_grbl_help:
 907              	.LFB77:
 191:report.c      **** 
 192:report.c      **** // Grbl help message
 193:report.c      **** void report_grbl_help() {
 908              		.loc 1 193 0
 909              		.cfi_startproc
 910              		@ args = 0, pretend = 0, frame = 0
 911              		@ frame_needed = 1, uses_anonymous_args = 0
 912 0000 80B5     		push	{r7, lr}
 913              		.cfi_def_cfa_offset 8
 914              		.cfi_offset 7, -8
 915              		.cfi_offset 14, -4
 916 0002 00AF     		add	r7, sp, #0
 917              		.cfi_def_cfa_register 7
 194:report.c      ****   printPgmString(PSTR("[HLP:$$ $# $G $I $N $x=val $Nx=line $J=line $SLP $C $X $H ~ ! ? ctrl-x]\r\n"
 918              		.loc 1 194 0
 919 0004 0248     		ldr	r0, .L61
 920 0006 FFF7FEFF 		bl	printPgmString
 195:report.c      **** }
 921              		.loc 1 195 0
 922 000a 00BF     		nop
 923 000c 80BD     		pop	{r7, pc}
 924              	.L62:
 925 000e 00BF     		.align	2
 926              	.L61:
 927 0010 34010000 		.word	.LC27
 928              		.cfi_endproc
 929              	.LFE77:
 930              		.size	report_grbl_help, .-report_grbl_help
 931              		.global	__aeabi_fdiv
 932              		.section	.text.report_grbl_settings,"ax",%progbits
 933              		.align	2
 934              		.global	report_grbl_settings
 935              		.thumb
 936              		.thumb_func
 937              		.type	report_grbl_settings, %function
 938              	report_grbl_settings:
 939              	.LFB78:
 196:report.c      **** 
 197:report.c      **** 
 198:report.c      **** // Grbl global settings print out.
 199:report.c      **** // NOTE: The numbering scheme here must correlate to storing in settings.c
 200:report.c      **** void report_grbl_settings() {
 940              		.loc 1 200 0
ARM GAS  C:\Users\barto\AppData\Local\Temp\cc2AQ1Jn.s 			page 22


 941              		.cfi_startproc
 942              		@ args = 0, pretend = 0, frame = 8
 943              		@ frame_needed = 1, uses_anonymous_args = 0
 944 0000 90B5     		push	{r4, r7, lr}
 945              		.cfi_def_cfa_offset 12
 946              		.cfi_offset 4, -12
 947              		.cfi_offset 7, -8
 948              		.cfi_offset 14, -4
 949 0002 83B0     		sub	sp, sp, #12
 950              		.cfi_def_cfa_offset 24
 951 0004 00AF     		add	r7, sp, #0
 952              		.cfi_def_cfa_register 7
 201:report.c      ****   // Print Grbl settings.
 202:report.c      ****   report_util_uint8_setting(0,settings.pulse_microseconds);
 953              		.loc 1 202 0
 954 0006 9C4B     		ldr	r3, .L74
 955 0008 93F83030 		ldrb	r3, [r3, #48]	@ zero_extendqisi2
 956 000c 1946     		mov	r1, r3
 957 000e 0020     		movs	r0, #0
 958 0010 FFF7FEFF 		bl	report_util_uint8_setting
 203:report.c      ****   report_util_uint8_setting(1,settings.stepper_idle_lock_time);
 959              		.loc 1 203 0
 960 0014 984B     		ldr	r3, .L74
 961 0016 93F83330 		ldrb	r3, [r3, #51]	@ zero_extendqisi2
 962 001a 1946     		mov	r1, r3
 963 001c 0120     		movs	r0, #1
 964 001e FFF7FEFF 		bl	report_util_uint8_setting
 204:report.c      ****   report_util_uint8_setting(2,settings.step_invert_mask);
 965              		.loc 1 204 0
 966 0022 954B     		ldr	r3, .L74
 967 0024 93F83130 		ldrb	r3, [r3, #49]	@ zero_extendqisi2
 968 0028 1946     		mov	r1, r3
 969 002a 0220     		movs	r0, #2
 970 002c FFF7FEFF 		bl	report_util_uint8_setting
 205:report.c      ****   report_util_uint8_setting(3,settings.dir_invert_mask);
 971              		.loc 1 205 0
 972 0030 914B     		ldr	r3, .L74
 973 0032 93F83230 		ldrb	r3, [r3, #50]	@ zero_extendqisi2
 974 0036 1946     		mov	r1, r3
 975 0038 0320     		movs	r0, #3
 976 003a FFF7FEFF 		bl	report_util_uint8_setting
 206:report.c      ****   report_util_uint8_setting(4,bit_istrue(settings.flags,BITFLAG_INVERT_ST_ENABLE));
 977              		.loc 1 206 0
 978 003e 8E4B     		ldr	r3, .L74
 979 0040 93F84830 		ldrb	r3, [r3, #72]	@ zero_extendqisi2
 980 0044 03F00403 		and	r3, r3, #4
 981 0048 002B     		cmp	r3, #0
 982 004a 14BF     		ite	ne
 983 004c 0123     		movne	r3, #1
 984 004e 0023     		moveq	r3, #0
 985 0050 DBB2     		uxtb	r3, r3
 986 0052 1946     		mov	r1, r3
 987 0054 0420     		movs	r0, #4
 988 0056 FFF7FEFF 		bl	report_util_uint8_setting
 207:report.c      ****   report_util_uint8_setting(5,bit_istrue(settings.flags,BITFLAG_INVERT_LIMIT_PINS));
 989              		.loc 1 207 0
 990 005a 874B     		ldr	r3, .L74
ARM GAS  C:\Users\barto\AppData\Local\Temp\cc2AQ1Jn.s 			page 23


 991 005c 93F84830 		ldrb	r3, [r3, #72]	@ zero_extendqisi2
 992 0060 03F04003 		and	r3, r3, #64
 993 0064 002B     		cmp	r3, #0
 994 0066 14BF     		ite	ne
 995 0068 0123     		movne	r3, #1
 996 006a 0023     		moveq	r3, #0
 997 006c DBB2     		uxtb	r3, r3
 998 006e 1946     		mov	r1, r3
 999 0070 0520     		movs	r0, #5
 1000 0072 FFF7FEFF 		bl	report_util_uint8_setting
 208:report.c      ****   report_util_uint8_setting(6,bit_istrue(settings.flags,BITFLAG_INVERT_PROBE_PIN));
 1001              		.loc 1 208 0
 1002 0076 804B     		ldr	r3, .L74
 1003 0078 93F84830 		ldrb	r3, [r3, #72]	@ zero_extendqisi2
 1004 007c 5BB2     		sxtb	r3, r3
 1005 007e DBB2     		uxtb	r3, r3
 1006 0080 DB09     		lsrs	r3, r3, #7
 1007 0082 DBB2     		uxtb	r3, r3
 1008 0084 1946     		mov	r1, r3
 1009 0086 0620     		movs	r0, #6
 1010 0088 FFF7FEFF 		bl	report_util_uint8_setting
 209:report.c      ****   report_util_uint8_setting(10,settings.status_report_mask);
 1011              		.loc 1 209 0
 1012 008c 7A4B     		ldr	r3, .L74
 1013 008e 93F83430 		ldrb	r3, [r3, #52]	@ zero_extendqisi2
 1014 0092 1946     		mov	r1, r3
 1015 0094 0A20     		movs	r0, #10
 1016 0096 FFF7FEFF 		bl	report_util_uint8_setting
 210:report.c      ****   report_util_float_setting(11,settings.junction_deviation,N_DECIMAL_SETTINGVALUE);
 1017              		.loc 1 210 0
 1018 009a 774B     		ldr	r3, .L74
 1019 009c 9B6B     		ldr	r3, [r3, #56]	@ float
 1020 009e 0322     		movs	r2, #3
 1021 00a0 1946     		mov	r1, r3
 1022 00a2 0B20     		movs	r0, #11
 1023 00a4 FFF7FEFF 		bl	report_util_float_setting
 211:report.c      ****   report_util_float_setting(12,settings.arc_tolerance,N_DECIMAL_SETTINGVALUE);
 1024              		.loc 1 211 0
 1025 00a8 734B     		ldr	r3, .L74
 1026 00aa DB6B     		ldr	r3, [r3, #60]	@ float
 1027 00ac 0322     		movs	r2, #3
 1028 00ae 1946     		mov	r1, r3
 1029 00b0 0C20     		movs	r0, #12
 1030 00b2 FFF7FEFF 		bl	report_util_float_setting
 212:report.c      ****   report_util_uint8_setting(13,bit_istrue(settings.flags,BITFLAG_REPORT_INCHES));
 1031              		.loc 1 212 0
 1032 00b6 704B     		ldr	r3, .L74
 1033 00b8 93F84830 		ldrb	r3, [r3, #72]	@ zero_extendqisi2
 1034 00bc 03F00103 		and	r3, r3, #1
 1035 00c0 002B     		cmp	r3, #0
 1036 00c2 14BF     		ite	ne
 1037 00c4 0123     		movne	r3, #1
 1038 00c6 0023     		moveq	r3, #0
 1039 00c8 DBB2     		uxtb	r3, r3
 1040 00ca 1946     		mov	r1, r3
 1041 00cc 0D20     		movs	r0, #13
 1042 00ce FFF7FEFF 		bl	report_util_uint8_setting
ARM GAS  C:\Users\barto\AppData\Local\Temp\cc2AQ1Jn.s 			page 24


 213:report.c      ****   report_util_uint8_setting(20,bit_istrue(settings.flags,BITFLAG_SOFT_LIMIT_ENABLE));
 1043              		.loc 1 213 0
 1044 00d2 694B     		ldr	r3, .L74
 1045 00d4 93F84830 		ldrb	r3, [r3, #72]	@ zero_extendqisi2
 1046 00d8 03F02003 		and	r3, r3, #32
 1047 00dc 002B     		cmp	r3, #0
 1048 00de 14BF     		ite	ne
 1049 00e0 0123     		movne	r3, #1
 1050 00e2 0023     		moveq	r3, #0
 1051 00e4 DBB2     		uxtb	r3, r3
 1052 00e6 1946     		mov	r1, r3
 1053 00e8 1420     		movs	r0, #20
 1054 00ea FFF7FEFF 		bl	report_util_uint8_setting
 214:report.c      ****   report_util_uint8_setting(21,bit_istrue(settings.flags,BITFLAG_HARD_LIMIT_ENABLE));
 1055              		.loc 1 214 0
 1056 00ee 624B     		ldr	r3, .L74
 1057 00f0 93F84830 		ldrb	r3, [r3, #72]	@ zero_extendqisi2
 1058 00f4 03F00803 		and	r3, r3, #8
 1059 00f8 002B     		cmp	r3, #0
 1060 00fa 14BF     		ite	ne
 1061 00fc 0123     		movne	r3, #1
 1062 00fe 0023     		moveq	r3, #0
 1063 0100 DBB2     		uxtb	r3, r3
 1064 0102 1946     		mov	r1, r3
 1065 0104 1520     		movs	r0, #21
 1066 0106 FFF7FEFF 		bl	report_util_uint8_setting
 215:report.c      ****   report_util_uint8_setting(22,bit_istrue(settings.flags,BITFLAG_HOMING_ENABLE));
 1067              		.loc 1 215 0
 1068 010a 5B4B     		ldr	r3, .L74
 1069 010c 93F84830 		ldrb	r3, [r3, #72]	@ zero_extendqisi2
 1070 0110 03F01003 		and	r3, r3, #16
 1071 0114 002B     		cmp	r3, #0
 1072 0116 14BF     		ite	ne
 1073 0118 0123     		movne	r3, #1
 1074 011a 0023     		moveq	r3, #0
 1075 011c DBB2     		uxtb	r3, r3
 1076 011e 1946     		mov	r1, r3
 1077 0120 1620     		movs	r0, #22
 1078 0122 FFF7FEFF 		bl	report_util_uint8_setting
 216:report.c      ****   report_util_uint8_setting(23,settings.homing_dir_mask);
 1079              		.loc 1 216 0
 1080 0126 544B     		ldr	r3, .L74
 1081 0128 93F84930 		ldrb	r3, [r3, #73]	@ zero_extendqisi2
 1082 012c 1946     		mov	r1, r3
 1083 012e 1720     		movs	r0, #23
 1084 0130 FFF7FEFF 		bl	report_util_uint8_setting
 217:report.c      ****   report_util_float_setting(24,settings.homing_feed_rate,N_DECIMAL_SETTINGVALUE);
 1085              		.loc 1 217 0
 1086 0134 504B     		ldr	r3, .L74
 1087 0136 DB6C     		ldr	r3, [r3, #76]	@ float
 1088 0138 0322     		movs	r2, #3
 1089 013a 1946     		mov	r1, r3
 1090 013c 1820     		movs	r0, #24
 1091 013e FFF7FEFF 		bl	report_util_float_setting
 218:report.c      ****   report_util_float_setting(25,settings.homing_seek_rate,N_DECIMAL_SETTINGVALUE);
 1092              		.loc 1 218 0
 1093 0142 4D4B     		ldr	r3, .L74
ARM GAS  C:\Users\barto\AppData\Local\Temp\cc2AQ1Jn.s 			page 25


 1094 0144 1B6D     		ldr	r3, [r3, #80]	@ float
 1095 0146 0322     		movs	r2, #3
 1096 0148 1946     		mov	r1, r3
 1097 014a 1920     		movs	r0, #25
 1098 014c FFF7FEFF 		bl	report_util_float_setting
 219:report.c      ****   report_util_uint8_setting(26,settings.homing_debounce_delay);
 1099              		.loc 1 219 0
 1100 0150 494B     		ldr	r3, .L74
 1101 0152 B3F85430 		ldrh	r3, [r3, #84]
 1102 0156 1946     		mov	r1, r3
 1103 0158 1A20     		movs	r0, #26
 1104 015a FFF7FEFF 		bl	report_util_uint8_setting
 220:report.c      ****   report_util_float_setting(27,settings.homing_pulloff,N_DECIMAL_SETTINGVALUE);
 1105              		.loc 1 220 0
 1106 015e 464B     		ldr	r3, .L74
 1107 0160 9B6D     		ldr	r3, [r3, #88]	@ float
 1108 0162 0322     		movs	r2, #3
 1109 0164 1946     		mov	r1, r3
 1110 0166 1B20     		movs	r0, #27
 1111 0168 FFF7FEFF 		bl	report_util_float_setting
 221:report.c      ****   report_util_float_setting(30,settings.rpm_max,N_DECIMAL_RPMVALUE);
 1112              		.loc 1 221 0
 1113 016c 424B     		ldr	r3, .L74
 1114 016e 1B6C     		ldr	r3, [r3, #64]	@ float
 1115 0170 0022     		movs	r2, #0
 1116 0172 1946     		mov	r1, r3
 1117 0174 1E20     		movs	r0, #30
 1118 0176 FFF7FEFF 		bl	report_util_float_setting
 222:report.c      ****   report_util_float_setting(31,settings.rpm_min,N_DECIMAL_RPMVALUE);
 1119              		.loc 1 222 0
 1120 017a 3F4B     		ldr	r3, .L74
 1121 017c 5B6C     		ldr	r3, [r3, #68]	@ float
 1122 017e 0022     		movs	r2, #0
 1123 0180 1946     		mov	r1, r3
 1124 0182 1F20     		movs	r0, #31
 1125 0184 FFF7FEFF 		bl	report_util_float_setting
 223:report.c      ****   #ifdef VARIABLE_SPINDLE
 224:report.c      ****     report_util_uint8_setting(32,bit_istrue(settings.flags,BITFLAG_LASER_MODE));
 1126              		.loc 1 224 0
 1127 0188 3B4B     		ldr	r3, .L74
 1128 018a 93F84830 		ldrb	r3, [r3, #72]	@ zero_extendqisi2
 1129 018e 03F00203 		and	r3, r3, #2
 1130 0192 002B     		cmp	r3, #0
 1131 0194 14BF     		ite	ne
 1132 0196 0123     		movne	r3, #1
 1133 0198 0023     		moveq	r3, #0
 1134 019a DBB2     		uxtb	r3, r3
 1135 019c 1946     		mov	r1, r3
 1136 019e 2020     		movs	r0, #32
 1137 01a0 FFF7FEFF 		bl	report_util_uint8_setting
 225:report.c      ****   #else
 226:report.c      ****     report_util_uint8_setting(32,0);
 227:report.c      ****   #endif
 228:report.c      ****   // Print axis settings
 229:report.c      ****   uint8_t idx, set_idx;
 230:report.c      ****   uint8_t val = AXIS_SETTINGS_START_VAL;
 1138              		.loc 1 230 0
ARM GAS  C:\Users\barto\AppData\Local\Temp\cc2AQ1Jn.s 			page 26


 1139 01a4 6423     		movs	r3, #100
 1140 01a6 7B71     		strb	r3, [r7, #5]
 231:report.c      ****   for (set_idx=0; set_idx<AXIS_N_SETTINGS; set_idx++) {
 1141              		.loc 1 231 0
 1142 01a8 0023     		movs	r3, #0
 1143 01aa BB71     		strb	r3, [r7, #6]
 1144 01ac 5DE0     		b	.L64
 1145              	.L73:
 232:report.c      ****     for (idx=0; idx<N_AXIS; idx++) {
 1146              		.loc 1 232 0
 1147 01ae 0023     		movs	r3, #0
 1148 01b0 FB71     		strb	r3, [r7, #7]
 1149 01b2 51E0     		b	.L65
 1150              	.L72:
 233:report.c      ****       switch (set_idx) {
 1151              		.loc 1 233 0
 1152 01b4 BB79     		ldrb	r3, [r7, #6]	@ zero_extendqisi2
 1153 01b6 032B     		cmp	r3, #3
 1154 01b8 4BD8     		bhi	.L66
 1155 01ba 01A2     		adr	r2, .L68
 1156 01bc 52F823F0 		ldr	pc, [r2, r3, lsl #2]
 1157              		.p2align 2
 1158              	.L68:
 1159 01c0 D1010000 		.word	.L67+1
 1160 01c4 EB010000 		.word	.L69+1
 1161 01c8 09020000 		.word	.L70+1
 1162 01cc 31020000 		.word	.L71+1
 1163              		.p2align 1
 1164              	.L67:
 234:report.c      ****         case 0: report_util_float_setting(val+idx,settings.steps_per_mm[idx],N_DECIMAL_SETTINGVALUE
 1165              		.loc 1 234 0
 1166 01d0 7A79     		ldrb	r2, [r7, #5]
 1167 01d2 FB79     		ldrb	r3, [r7, #7]
 1168 01d4 1344     		add	r3, r3, r2
 1169 01d6 D8B2     		uxtb	r0, r3
 1170 01d8 FB79     		ldrb	r3, [r7, #7]	@ zero_extendqisi2
 1171 01da 274A     		ldr	r2, .L74
 1172 01dc 52F82330 		ldr	r3, [r2, r3, lsl #2]	@ float
 1173 01e0 0322     		movs	r2, #3
 1174 01e2 1946     		mov	r1, r3
 1175 01e4 FFF7FEFF 		bl	report_util_float_setting
 1176 01e8 33E0     		b	.L66
 1177              	.L69:
 235:report.c      ****         case 1: report_util_float_setting(val+idx,settings.max_rate[idx],N_DECIMAL_SETTINGVALUE); b
 1178              		.loc 1 235 0
 1179 01ea 7A79     		ldrb	r2, [r7, #5]
 1180 01ec FB79     		ldrb	r3, [r7, #7]
 1181 01ee 1344     		add	r3, r3, r2
 1182 01f0 D8B2     		uxtb	r0, r3
 1183 01f2 FB79     		ldrb	r3, [r7, #7]	@ zero_extendqisi2
 1184 01f4 204A     		ldr	r2, .L74
 1185 01f6 0233     		adds	r3, r3, #2
 1186 01f8 9B00     		lsls	r3, r3, #2
 1187 01fa 1344     		add	r3, r3, r2
 1188 01fc 5B68     		ldr	r3, [r3, #4]	@ float
 1189 01fe 0322     		movs	r2, #3
 1190 0200 1946     		mov	r1, r3
ARM GAS  C:\Users\barto\AppData\Local\Temp\cc2AQ1Jn.s 			page 27


 1191 0202 FFF7FEFF 		bl	report_util_float_setting
 1192 0206 24E0     		b	.L66
 1193              	.L70:
 236:report.c      ****         case 2: report_util_float_setting(val+idx,settings.acceleration[idx]/(60*60),N_DECIMAL_SETT
 1194              		.loc 1 236 0
 1195 0208 7A79     		ldrb	r2, [r7, #5]
 1196 020a FB79     		ldrb	r3, [r7, #7]
 1197 020c 1344     		add	r3, r3, r2
 1198 020e DCB2     		uxtb	r4, r3
 1199 0210 FB79     		ldrb	r3, [r7, #7]	@ zero_extendqisi2
 1200 0212 194A     		ldr	r2, .L74
 1201 0214 0633     		adds	r3, r3, #6
 1202 0216 52F82330 		ldr	r3, [r2, r3, lsl #2]	@ float
 1203 021a 1849     		ldr	r1, .L74+4
 1204 021c 1846     		mov	r0, r3
 1205 021e FFF7FEFF 		bl	__aeabi_fdiv
 1206 0222 0346     		mov	r3, r0
 1207 0224 0322     		movs	r2, #3
 1208 0226 1946     		mov	r1, r3
 1209 0228 2046     		mov	r0, r4
 1210 022a FFF7FEFF 		bl	report_util_float_setting
 1211 022e 10E0     		b	.L66
 1212              	.L71:
 237:report.c      ****         case 3: report_util_float_setting(val+idx,-settings.max_travel[idx],N_DECIMAL_SETTINGVALUE)
 1213              		.loc 1 237 0
 1214 0230 7A79     		ldrb	r2, [r7, #5]
 1215 0232 FB79     		ldrb	r3, [r7, #7]
 1216 0234 1344     		add	r3, r3, r2
 1217 0236 D8B2     		uxtb	r0, r3
 1218 0238 FB79     		ldrb	r3, [r7, #7]	@ zero_extendqisi2
 1219 023a 0F4A     		ldr	r2, .L74
 1220 023c 0833     		adds	r3, r3, #8
 1221 023e 9B00     		lsls	r3, r3, #2
 1222 0240 1344     		add	r3, r3, r2
 1223 0242 5B68     		ldr	r3, [r3, #4]	@ float
 1224 0244 83F00043 		eor	r3, r3, #-2147483648
 1225 0248 0322     		movs	r2, #3
 1226 024a 1946     		mov	r1, r3
 1227 024c FFF7FEFF 		bl	report_util_float_setting
 1228 0250 00BF     		nop
 1229              	.L66:
 232:report.c      ****       switch (set_idx) {
 1230              		.loc 1 232 0 discriminator 2
 1231 0252 FB79     		ldrb	r3, [r7, #7]	@ zero_extendqisi2
 1232 0254 0133     		adds	r3, r3, #1
 1233 0256 FB71     		strb	r3, [r7, #7]
 1234              	.L65:
 232:report.c      ****       switch (set_idx) {
 1235              		.loc 1 232 0 is_stmt 0 discriminator 1
 1236 0258 FB79     		ldrb	r3, [r7, #7]	@ zero_extendqisi2
 1237 025a 022B     		cmp	r3, #2
 1238 025c AAD9     		bls	.L72
 238:report.c      ****       }
 239:report.c      ****     }
 240:report.c      ****     val += AXIS_SETTINGS_INCREMENT;
 1239              		.loc 1 240 0 is_stmt 1 discriminator 2
 1240 025e 7B79     		ldrb	r3, [r7, #5]
ARM GAS  C:\Users\barto\AppData\Local\Temp\cc2AQ1Jn.s 			page 28


 1241 0260 0A33     		adds	r3, r3, #10
 1242 0262 7B71     		strb	r3, [r7, #5]
 231:report.c      ****     for (idx=0; idx<N_AXIS; idx++) {
 1243              		.loc 1 231 0 discriminator 2
 1244 0264 BB79     		ldrb	r3, [r7, #6]	@ zero_extendqisi2
 1245 0266 0133     		adds	r3, r3, #1
 1246 0268 BB71     		strb	r3, [r7, #6]
 1247              	.L64:
 231:report.c      ****     for (idx=0; idx<N_AXIS; idx++) {
 1248              		.loc 1 231 0 is_stmt 0 discriminator 1
 1249 026a BB79     		ldrb	r3, [r7, #6]	@ zero_extendqisi2
 1250 026c 032B     		cmp	r3, #3
 1251 026e 9ED9     		bls	.L73
 241:report.c      ****   }
 242:report.c      **** }
 1252              		.loc 1 242 0 is_stmt 1
 1253 0270 00BF     		nop
 1254 0272 0C37     		adds	r7, r7, #12
 1255              		.cfi_def_cfa_offset 12
 1256 0274 BD46     		mov	sp, r7
 1257              		.cfi_def_cfa_register 13
 1258              		@ sp needed
 1259 0276 90BD     		pop	{r4, r7, pc}
 1260              	.L75:
 1261              		.align	2
 1262              	.L74:
 1263 0278 00000000 		.word	settings
 1264 027c 00006145 		.word	1163984896
 1265              		.cfi_endproc
 1266              	.LFE78:
 1267              		.size	report_grbl_settings, .-report_grbl_settings
 1268              		.section	.rodata
 1269 017e 0000     		.align	2
 1270              	.LC28:
 1271 0180 5B505242 		.ascii	"[PRB:\000"
 1271      3A00
 1272              		.section	.text.report_probe_parameters,"ax",%progbits
 1273              		.align	2
 1274              		.global	report_probe_parameters
 1275              		.thumb
 1276              		.thumb_func
 1277              		.type	report_probe_parameters, %function
 1278              	report_probe_parameters:
 1279              	.LFB79:
 243:report.c      **** 
 244:report.c      **** 
 245:report.c      **** // Prints current probe parameters. Upon a probe command, these parameters are updated upon a
 246:report.c      **** // successful probe or upon a failed probe with the G38.3 without errors command (if supported).
 247:report.c      **** // These values are retained until Grbl is power-cycled, whereby they will be re-zeroed.
 248:report.c      **** void report_probe_parameters()
 249:report.c      **** {
 1280              		.loc 1 249 0
 1281              		.cfi_startproc
 1282              		@ args = 0, pretend = 0, frame = 16
 1283              		@ frame_needed = 1, uses_anonymous_args = 0
 1284 0000 80B5     		push	{r7, lr}
 1285              		.cfi_def_cfa_offset 8
ARM GAS  C:\Users\barto\AppData\Local\Temp\cc2AQ1Jn.s 			page 29


 1286              		.cfi_offset 7, -8
 1287              		.cfi_offset 14, -4
 1288 0002 84B0     		sub	sp, sp, #16
 1289              		.cfi_def_cfa_offset 24
 1290 0004 00AF     		add	r7, sp, #0
 1291              		.cfi_def_cfa_register 7
 250:report.c      ****   // Report in terms of machine position.
 251:report.c      ****   printPgmString(PSTR("[PRB:"));
 1292              		.loc 1 251 0
 1293 0006 0D48     		ldr	r0, .L77
 1294 0008 FFF7FEFF 		bl	printPgmString
 252:report.c      ****   float print_position[N_AXIS];
 253:report.c      ****   system_convert_array_steps_to_mpos(print_position,sys_probe_position);
 1295              		.loc 1 253 0
 1296 000c 3B1D     		adds	r3, r7, #4
 1297 000e 0C49     		ldr	r1, .L77+4
 1298 0010 1846     		mov	r0, r3
 1299 0012 FFF7FEFF 		bl	system_convert_array_steps_to_mpos
 254:report.c      ****   report_util_axis_values(print_position);
 1300              		.loc 1 254 0
 1301 0016 3B1D     		adds	r3, r7, #4
 1302 0018 1846     		mov	r0, r3
 1303 001a FFF7FEFF 		bl	report_util_axis_values
 255:report.c      ****   serial_write(':');
 1304              		.loc 1 255 0
 1305 001e 3A20     		movs	r0, #58
 1306 0020 FFF7FEFF 		bl	serial_write
 256:report.c      ****   print_uint8_base10(sys.probe_succeeded);
 1307              		.loc 1 256 0
 1308 0024 074B     		ldr	r3, .L77+8
 1309 0026 5B79     		ldrb	r3, [r3, #5]	@ zero_extendqisi2
 1310 0028 1846     		mov	r0, r3
 1311 002a FFF7FEFF 		bl	print_uint8_base10
 257:report.c      ****   report_util_feedback_line_feed();
 1312              		.loc 1 257 0
 1313 002e FFF7FEFF 		bl	report_util_feedback_line_feed
 258:report.c      **** }
 1314              		.loc 1 258 0
 1315 0032 00BF     		nop
 1316 0034 1037     		adds	r7, r7, #16
 1317              		.cfi_def_cfa_offset 8
 1318 0036 BD46     		mov	sp, r7
 1319              		.cfi_def_cfa_register 13
 1320              		@ sp needed
 1321 0038 80BD     		pop	{r7, pc}
 1322              	.L78:
 1323 003a 00BF     		.align	2
 1324              	.L77:
 1325 003c 80010000 		.word	.LC28
 1326 0040 00000000 		.word	sys_probe_position
 1327 0044 00000000 		.word	sys
 1328              		.cfi_endproc
 1329              	.LFE79:
 1330              		.size	report_probe_parameters, .-report_probe_parameters
 1331              		.section	.rodata
 1332 0186 0000     		.align	2
 1333              	.LC29:
ARM GAS  C:\Users\barto\AppData\Local\Temp\cc2AQ1Jn.s 			page 30


 1334 0188 5B4700   		.ascii	"[G\000"
 1335 018b 00       		.align	2
 1336              	.LC30:
 1337 018c 323800   		.ascii	"28\000"
 1338 018f 00       		.align	2
 1339              	.LC31:
 1340 0190 333000   		.ascii	"30\000"
 1341 0193 00       		.align	2
 1342              	.LC32:
 1343 0194 5B473932 		.ascii	"[G92:\000"
 1343      3A00
 1344 019a 0000     		.align	2
 1345              	.LC33:
 1346 019c 5B544C4F 		.ascii	"[TLO:\000"
 1346      3A00
 1347              		.section	.text.report_ngc_parameters,"ax",%progbits
 1348              		.align	2
 1349              		.global	report_ngc_parameters
 1350              		.thumb
 1351              		.thumb_func
 1352              		.type	report_ngc_parameters, %function
 1353              	report_ngc_parameters:
 1354              	.LFB80:
 259:report.c      **** 
 260:report.c      **** 
 261:report.c      **** // Prints Grbl NGC parameters (coordinate offsets, probing)
 262:report.c      **** void report_ngc_parameters()
 263:report.c      **** {
 1355              		.loc 1 263 0
 1356              		.cfi_startproc
 1357              		@ args = 0, pretend = 0, frame = 16
 1358              		@ frame_needed = 1, uses_anonymous_args = 0
 1359 0000 80B5     		push	{r7, lr}
 1360              		.cfi_def_cfa_offset 8
 1361              		.cfi_offset 7, -8
 1362              		.cfi_offset 14, -4
 1363 0002 84B0     		sub	sp, sp, #16
 1364              		.cfi_def_cfa_offset 24
 1365 0004 00AF     		add	r7, sp, #0
 1366              		.cfi_def_cfa_register 7
 264:report.c      ****   float coord_data[N_AXIS];
 265:report.c      ****   uint8_t coord_select;
 266:report.c      ****   for (coord_select = 0; coord_select <= SETTING_INDEX_NCOORD; coord_select++) {
 1367              		.loc 1 266 0
 1368 0006 0023     		movs	r3, #0
 1369 0008 FB73     		strb	r3, [r7, #15]
 1370 000a 30E0     		b	.L80
 1371              	.L87:
 267:report.c      ****     if (!(settings_read_coord_data(coord_select,coord_data))) {
 1372              		.loc 1 267 0
 1373 000c 3A46     		mov	r2, r7
 1374 000e FB7B     		ldrb	r3, [r7, #15]	@ zero_extendqisi2
 1375 0010 1146     		mov	r1, r2
 1376 0012 1846     		mov	r0, r3
 1377 0014 FFF7FEFF 		bl	settings_read_coord_data
 1378 0018 0346     		mov	r3, r0
 1379 001a 002B     		cmp	r3, #0
ARM GAS  C:\Users\barto\AppData\Local\Temp\cc2AQ1Jn.s 			page 31


 1380 001c 03D1     		bne	.L81
 268:report.c      ****       report_status_message(STATUS_SETTING_READ_FAIL);
 1381              		.loc 1 268 0
 1382 001e 0720     		movs	r0, #7
 1383 0020 FFF7FEFF 		bl	report_status_message
 1384 0024 3AE0     		b	.L79
 1385              	.L81:
 269:report.c      ****       return;
 270:report.c      ****     }
 271:report.c      ****     printPgmString(PSTR("[G"));
 1386              		.loc 1 271 0
 1387 0026 1F48     		ldr	r0, .L89
 1388 0028 FFF7FEFF 		bl	printPgmString
 272:report.c      ****     switch (coord_select) {
 1389              		.loc 1 272 0
 1390 002c FB7B     		ldrb	r3, [r7, #15]	@ zero_extendqisi2
 1391 002e 062B     		cmp	r3, #6
 1392 0030 02D0     		beq	.L84
 1393 0032 072B     		cmp	r3, #7
 1394 0034 04D0     		beq	.L85
 1395 0036 07E0     		b	.L88
 1396              	.L84:
 273:report.c      ****       case 6: printPgmString(PSTR("28")); break;
 1397              		.loc 1 273 0
 1398 0038 1B48     		ldr	r0, .L89+4
 1399 003a FFF7FEFF 		bl	printPgmString
 1400 003e 0AE0     		b	.L86
 1401              	.L85:
 274:report.c      ****       case 7: printPgmString(PSTR("30")); break;
 1402              		.loc 1 274 0
 1403 0040 1A48     		ldr	r0, .L89+8
 1404 0042 FFF7FEFF 		bl	printPgmString
 1405 0046 06E0     		b	.L86
 1406              	.L88:
 275:report.c      ****       default: print_uint8_base10(coord_select+54); break; // G54-G59
 1407              		.loc 1 275 0
 1408 0048 FB7B     		ldrb	r3, [r7, #15]
 1409 004a 3633     		adds	r3, r3, #54
 1410 004c DBB2     		uxtb	r3, r3
 1411 004e 1846     		mov	r0, r3
 1412 0050 FFF7FEFF 		bl	print_uint8_base10
 1413 0054 00BF     		nop
 1414              	.L86:
 276:report.c      ****     }
 277:report.c      ****     serial_write(':');
 1415              		.loc 1 277 0 discriminator 2
 1416 0056 3A20     		movs	r0, #58
 1417 0058 FFF7FEFF 		bl	serial_write
 278:report.c      ****     report_util_axis_values(coord_data);
 1418              		.loc 1 278 0 discriminator 2
 1419 005c 3B46     		mov	r3, r7
 1420 005e 1846     		mov	r0, r3
 1421 0060 FFF7FEFF 		bl	report_util_axis_values
 279:report.c      ****     report_util_feedback_line_feed();
 1422              		.loc 1 279 0 discriminator 2
 1423 0064 FFF7FEFF 		bl	report_util_feedback_line_feed
 266:report.c      ****     if (!(settings_read_coord_data(coord_select,coord_data))) {
ARM GAS  C:\Users\barto\AppData\Local\Temp\cc2AQ1Jn.s 			page 32


 1424              		.loc 1 266 0 discriminator 2
 1425 0068 FB7B     		ldrb	r3, [r7, #15]	@ zero_extendqisi2
 1426 006a 0133     		adds	r3, r3, #1
 1427 006c FB73     		strb	r3, [r7, #15]
 1428              	.L80:
 266:report.c      ****     if (!(settings_read_coord_data(coord_select,coord_data))) {
 1429              		.loc 1 266 0 is_stmt 0 discriminator 1
 1430 006e FB7B     		ldrb	r3, [r7, #15]	@ zero_extendqisi2
 1431 0070 072B     		cmp	r3, #7
 1432 0072 CBD9     		bls	.L87
 280:report.c      ****   }
 281:report.c      ****   printPgmString(PSTR("[G92:")); // Print G92,G92.1 which are not persistent in memory
 1433              		.loc 1 281 0 is_stmt 1
 1434 0074 0E48     		ldr	r0, .L89+12
 1435 0076 FFF7FEFF 		bl	printPgmString
 282:report.c      ****   report_util_axis_values(gc_state.coord_offset);
 1436              		.loc 1 282 0
 1437 007a 0E48     		ldr	r0, .L89+16
 1438 007c FFF7FEFF 		bl	report_util_axis_values
 283:report.c      ****   report_util_feedback_line_feed();
 1439              		.loc 1 283 0
 1440 0080 FFF7FEFF 		bl	report_util_feedback_line_feed
 284:report.c      ****   printPgmString(PSTR("[TLO:")); // Print tool length offset value
 1441              		.loc 1 284 0
 1442 0084 0C48     		ldr	r0, .L89+20
 1443 0086 FFF7FEFF 		bl	printPgmString
 285:report.c      ****   printFloat_CoordValue(gc_state.tool_length_offset);
 1444              		.loc 1 285 0
 1445 008a 0C4B     		ldr	r3, .L89+24
 1446 008c 1B6C     		ldr	r3, [r3, #64]	@ float
 1447 008e 1846     		mov	r0, r3
 1448 0090 FFF7FEFF 		bl	printFloat_CoordValue
 286:report.c      ****   report_util_feedback_line_feed();
 1449              		.loc 1 286 0
 1450 0094 FFF7FEFF 		bl	report_util_feedback_line_feed
 287:report.c      ****   report_probe_parameters(); // Print probe parameters. Not persistent in memory.
 1451              		.loc 1 287 0
 1452 0098 FFF7FEFF 		bl	report_probe_parameters
 1453              	.L79:
 288:report.c      **** }
 1454              		.loc 1 288 0
 1455 009c 1037     		adds	r7, r7, #16
 1456              		.cfi_def_cfa_offset 8
 1457 009e BD46     		mov	sp, r7
 1458              		.cfi_def_cfa_register 13
 1459              		@ sp needed
 1460 00a0 80BD     		pop	{r7, pc}
 1461              	.L90:
 1462 00a2 00BF     		.align	2
 1463              	.L89:
 1464 00a4 88010000 		.word	.LC29
 1465 00a8 8C010000 		.word	.LC30
 1466 00ac 90010000 		.word	.LC31
 1467 00b0 94010000 		.word	.LC32
 1468 00b4 34000000 		.word	gc_state+52
 1469 00b8 9C010000 		.word	.LC33
 1470 00bc 00000000 		.word	gc_state
ARM GAS  C:\Users\barto\AppData\Local\Temp\cc2AQ1Jn.s 			page 33


 1471              		.cfi_endproc
 1472              	.LFE80:
 1473              		.size	report_ngc_parameters, .-report_ngc_parameters
 1474              		.section	.rodata
 1475 01a2 0000     		.align	2
 1476              	.LC34:
 1477 01a4 5B47433A 		.ascii	"[GC:G\000"
 1477      4700
 1478 01aa 0000     		.align	2
 1479              	.LC35:
 1480 01ac 33382E00 		.ascii	"38.\000"
 1481              		.align	2
 1482              	.LC36:
 1483 01b0 205400   		.ascii	" T\000"
 1484 01b3 00       		.align	2
 1485              	.LC37:
 1486 01b4 204600   		.ascii	" F\000"
 1487 01b7 00       		.align	2
 1488              	.LC38:
 1489 01b8 205300   		.ascii	" S\000"
 1490              		.section	.text.report_gcode_modes,"ax",%progbits
 1491              		.align	2
 1492              		.global	report_gcode_modes
 1493              		.thumb
 1494              		.thumb_func
 1495              		.type	report_gcode_modes, %function
 1496              	report_gcode_modes:
 1497              	.LFB81:
 289:report.c      **** 
 290:report.c      **** 
 291:report.c      **** // Print current gcode parser mode state
 292:report.c      **** void report_gcode_modes()
 293:report.c      **** {
 1498              		.loc 1 293 0
 1499              		.cfi_startproc
 1500              		@ args = 0, pretend = 0, frame = 0
 1501              		@ frame_needed = 1, uses_anonymous_args = 0
 1502 0000 80B5     		push	{r7, lr}
 1503              		.cfi_def_cfa_offset 8
 1504              		.cfi_offset 7, -8
 1505              		.cfi_offset 14, -4
 1506 0002 00AF     		add	r7, sp, #0
 1507              		.cfi_def_cfa_register 7
 294:report.c      ****   printPgmString(PSTR("[GC:G"));
 1508              		.loc 1 294 0
 1509 0004 5648     		ldr	r0, .L105
 1510 0006 FFF7FEFF 		bl	printPgmString
 295:report.c      ****   if (gc_state.modal.motion >= MOTION_MODE_PROBE_TOWARD) {
 1511              		.loc 1 295 0
 1512 000a 564B     		ldr	r3, .L105+4
 1513 000c 1B78     		ldrb	r3, [r3]	@ zero_extendqisi2
 1514 000e 8B2B     		cmp	r3, #139
 1515 0010 0AD9     		bls	.L92
 296:report.c      ****     printPgmString(PSTR("38."));
 1516              		.loc 1 296 0
 1517 0012 5548     		ldr	r0, .L105+8
 1518 0014 FFF7FEFF 		bl	printPgmString
ARM GAS  C:\Users\barto\AppData\Local\Temp\cc2AQ1Jn.s 			page 34


 297:report.c      ****     print_uint8_base10(gc_state.modal.motion - (MOTION_MODE_PROBE_TOWARD-2));
 1519              		.loc 1 297 0
 1520 0018 524B     		ldr	r3, .L105+4
 1521 001a 1B78     		ldrb	r3, [r3]	@ zero_extendqisi2
 1522 001c 7633     		adds	r3, r3, #118
 1523 001e DBB2     		uxtb	r3, r3
 1524 0020 1846     		mov	r0, r3
 1525 0022 FFF7FEFF 		bl	print_uint8_base10
 1526 0026 04E0     		b	.L93
 1527              	.L92:
 298:report.c      ****   } else {
 299:report.c      ****     print_uint8_base10(gc_state.modal.motion);
 1528              		.loc 1 299 0
 1529 0028 4E4B     		ldr	r3, .L105+4
 1530 002a 1B78     		ldrb	r3, [r3]	@ zero_extendqisi2
 1531 002c 1846     		mov	r0, r3
 1532 002e FFF7FEFF 		bl	print_uint8_base10
 1533              	.L93:
 300:report.c      ****   }
 301:report.c      **** 
 302:report.c      ****   report_util_gcode_modes_G();
 1534              		.loc 1 302 0
 1535 0032 FFF7FEFF 		bl	report_util_gcode_modes_G
 303:report.c      ****   print_uint8_base10(gc_state.modal.coord_select+54);
 1536              		.loc 1 303 0
 1537 0036 4B4B     		ldr	r3, .L105+4
 1538 0038 9B79     		ldrb	r3, [r3, #6]	@ zero_extendqisi2
 1539 003a 3633     		adds	r3, r3, #54
 1540 003c DBB2     		uxtb	r3, r3
 1541 003e 1846     		mov	r0, r3
 1542 0040 FFF7FEFF 		bl	print_uint8_base10
 304:report.c      **** 
 305:report.c      ****   report_util_gcode_modes_G();
 1543              		.loc 1 305 0
 1544 0044 FFF7FEFF 		bl	report_util_gcode_modes_G
 306:report.c      ****   print_uint8_base10(gc_state.modal.plane_select+17);
 1545              		.loc 1 306 0
 1546 0048 464B     		ldr	r3, .L105+4
 1547 004a 1B79     		ldrb	r3, [r3, #4]	@ zero_extendqisi2
 1548 004c 1133     		adds	r3, r3, #17
 1549 004e DBB2     		uxtb	r3, r3
 1550 0050 1846     		mov	r0, r3
 1551 0052 FFF7FEFF 		bl	print_uint8_base10
 307:report.c      **** 
 308:report.c      ****   report_util_gcode_modes_G();
 1552              		.loc 1 308 0
 1553 0056 FFF7FEFF 		bl	report_util_gcode_modes_G
 309:report.c      ****   print_uint8_base10(21-gc_state.modal.units);
 1554              		.loc 1 309 0
 1555 005a 424B     		ldr	r3, .L105+4
 1556 005c 9B78     		ldrb	r3, [r3, #2]	@ zero_extendqisi2
 1557 005e C3F11503 		rsb	r3, r3, #21
 1558 0062 DBB2     		uxtb	r3, r3
 1559 0064 1846     		mov	r0, r3
 1560 0066 FFF7FEFF 		bl	print_uint8_base10
 310:report.c      **** 
 311:report.c      ****   report_util_gcode_modes_G();
ARM GAS  C:\Users\barto\AppData\Local\Temp\cc2AQ1Jn.s 			page 35


 1561              		.loc 1 311 0
 1562 006a FFF7FEFF 		bl	report_util_gcode_modes_G
 312:report.c      ****   print_uint8_base10(gc_state.modal.distance+90);
 1563              		.loc 1 312 0
 1564 006e 3D4B     		ldr	r3, .L105+4
 1565 0070 DB78     		ldrb	r3, [r3, #3]	@ zero_extendqisi2
 1566 0072 5A33     		adds	r3, r3, #90
 1567 0074 DBB2     		uxtb	r3, r3
 1568 0076 1846     		mov	r0, r3
 1569 0078 FFF7FEFF 		bl	print_uint8_base10
 313:report.c      **** 
 314:report.c      ****   report_util_gcode_modes_G();
 1570              		.loc 1 314 0
 1571 007c FFF7FEFF 		bl	report_util_gcode_modes_G
 315:report.c      ****   print_uint8_base10(94-gc_state.modal.feed_rate);
 1572              		.loc 1 315 0
 1573 0080 384B     		ldr	r3, .L105+4
 1574 0082 5B78     		ldrb	r3, [r3, #1]	@ zero_extendqisi2
 1575 0084 C3F15E03 		rsb	r3, r3, #94
 1576 0088 DBB2     		uxtb	r3, r3
 1577 008a 1846     		mov	r0, r3
 1578 008c FFF7FEFF 		bl	print_uint8_base10
 316:report.c      **** 
 317:report.c      ****   if (gc_state.modal.program_flow) {
 1579              		.loc 1 317 0
 1580 0090 344B     		ldr	r3, .L105+4
 1581 0092 DB79     		ldrb	r3, [r3, #7]	@ zero_extendqisi2
 1582 0094 002B     		cmp	r3, #0
 1583 0096 14D0     		beq	.L94
 318:report.c      ****     report_util_gcode_modes_M();
 1584              		.loc 1 318 0
 1585 0098 FFF7FEFF 		bl	report_util_gcode_modes_M
 319:report.c      ****     switch (gc_state.modal.program_flow) {
 1586              		.loc 1 319 0
 1587 009c 314B     		ldr	r3, .L105+4
 1588 009e DB79     		ldrb	r3, [r3, #7]	@ zero_extendqisi2
 1589 00a0 032B     		cmp	r3, #3
 1590 00a2 04D0     		beq	.L95
 1591 00a4 1E2B     		cmp	r3, #30
 1592 00a6 06D0     		beq	.L96
 1593 00a8 022B     		cmp	r3, #2
 1594 00aa 04D0     		beq	.L96
 1595 00ac 09E0     		b	.L94
 1596              	.L95:
 320:report.c      ****       case PROGRAM_FLOW_PAUSED : serial_write('0'); break;
 1597              		.loc 1 320 0
 1598 00ae 3020     		movs	r0, #48
 1599 00b0 FFF7FEFF 		bl	serial_write
 1600 00b4 05E0     		b	.L94
 1601              	.L96:
 321:report.c      ****       // case PROGRAM_FLOW_OPTIONAL_STOP : serial_write('1'); break; // M1 is ignored and not suppo
 322:report.c      ****       case PROGRAM_FLOW_COMPLETED_M2 : 
 323:report.c      ****       case PROGRAM_FLOW_COMPLETED_M30 : 
 324:report.c      ****         print_uint8_base10(gc_state.modal.program_flow);
 1602              		.loc 1 324 0
 1603 00b6 2B4B     		ldr	r3, .L105+4
 1604 00b8 DB79     		ldrb	r3, [r3, #7]	@ zero_extendqisi2
ARM GAS  C:\Users\barto\AppData\Local\Temp\cc2AQ1Jn.s 			page 36


 1605 00ba 1846     		mov	r0, r3
 1606 00bc FFF7FEFF 		bl	print_uint8_base10
 325:report.c      ****         break;
 1607              		.loc 1 325 0
 1608 00c0 00BF     		nop
 1609              	.L94:
 326:report.c      ****     }
 327:report.c      ****   }
 328:report.c      **** 
 329:report.c      ****   report_util_gcode_modes_M();
 1610              		.loc 1 329 0
 1611 00c2 FFF7FEFF 		bl	report_util_gcode_modes_M
 330:report.c      ****   switch (gc_state.modal.spindle) {
 1612              		.loc 1 330 0
 1613 00c6 274B     		ldr	r3, .L105+4
 1614 00c8 5B7A     		ldrb	r3, [r3, #9]	@ zero_extendqisi2
 1615 00ca 102B     		cmp	r3, #16
 1616 00cc 04D0     		beq	.L98
 1617 00ce 202B     		cmp	r3, #32
 1618 00d0 06D0     		beq	.L99
 1619 00d2 002B     		cmp	r3, #0
 1620 00d4 08D0     		beq	.L100
 1621 00d6 0BE0     		b	.L97
 1622              	.L98:
 331:report.c      ****     case SPINDLE_ENABLE_CW : serial_write('3'); break;
 1623              		.loc 1 331 0
 1624 00d8 3320     		movs	r0, #51
 1625 00da FFF7FEFF 		bl	serial_write
 1626 00de 07E0     		b	.L97
 1627              	.L99:
 332:report.c      ****     case SPINDLE_ENABLE_CCW : serial_write('4'); break;
 1628              		.loc 1 332 0
 1629 00e0 3420     		movs	r0, #52
 1630 00e2 FFF7FEFF 		bl	serial_write
 1631 00e6 03E0     		b	.L97
 1632              	.L100:
 333:report.c      ****     case SPINDLE_DISABLE : serial_write('5'); break;
 1633              		.loc 1 333 0
 1634 00e8 3520     		movs	r0, #53
 1635 00ea FFF7FEFF 		bl	serial_write
 1636 00ee 00BF     		nop
 1637              	.L97:
 334:report.c      ****   }
 335:report.c      **** 
 336:report.c      ****   report_util_gcode_modes_M();
 1638              		.loc 1 336 0
 1639 00f0 FFF7FEFF 		bl	report_util_gcode_modes_M
 337:report.c      ****   #ifdef ENABLE_M7
 338:report.c      ****     if (gc_state.modal.coolant) { // Note: Multiple coolant states may be active at the same time.
 1640              		.loc 1 338 0
 1641 00f4 1B4B     		ldr	r3, .L105+4
 1642 00f6 1B7A     		ldrb	r3, [r3, #8]	@ zero_extendqisi2
 1643 00f8 002B     		cmp	r3, #0
 1644 00fa 11D0     		beq	.L101
 339:report.c      ****       if (gc_state.modal.coolant & PL_COND_FLAG_COOLANT_MIST) { serial_write('7'); }
 1645              		.loc 1 339 0
 1646 00fc 194B     		ldr	r3, .L105+4
ARM GAS  C:\Users\barto\AppData\Local\Temp\cc2AQ1Jn.s 			page 37


 1647 00fe 1B7A     		ldrb	r3, [r3, #8]	@ zero_extendqisi2
 1648 0100 5BB2     		sxtb	r3, r3
 1649 0102 002B     		cmp	r3, #0
 1650 0104 02DA     		bge	.L102
 1651              		.loc 1 339 0 is_stmt 0 discriminator 1
 1652 0106 3720     		movs	r0, #55
 1653 0108 FFF7FEFF 		bl	serial_write
 1654              	.L102:
 340:report.c      ****       if (gc_state.modal.coolant & PL_COND_FLAG_COOLANT_FLOOD) { serial_write('8'); }
 1655              		.loc 1 340 0 is_stmt 1
 1656 010c 154B     		ldr	r3, .L105+4
 1657 010e 1B7A     		ldrb	r3, [r3, #8]	@ zero_extendqisi2
 1658 0110 03F04003 		and	r3, r3, #64
 1659 0114 002B     		cmp	r3, #0
 1660 0116 06D0     		beq	.L104
 1661              		.loc 1 340 0 is_stmt 0 discriminator 1
 1662 0118 3820     		movs	r0, #56
 1663 011a FFF7FEFF 		bl	serial_write
 1664 011e 02E0     		b	.L104
 1665              	.L101:
 341:report.c      ****     } else { serial_write('9'); }
 1666              		.loc 1 341 0 is_stmt 1
 1667 0120 3920     		movs	r0, #57
 1668 0122 FFF7FEFF 		bl	serial_write
 1669              	.L104:
 342:report.c      ****   #else
 343:report.c      ****     if (gc_state.modal.coolant) { serial_write('8'); }
 344:report.c      ****     else { serial_write('9'); }
 345:report.c      ****   #endif
 346:report.c      **** 
 347:report.c      ****   printPgmString(PSTR(" T"));
 1670              		.loc 1 347 0
 1671 0126 1148     		ldr	r0, .L105+12
 1672 0128 FFF7FEFF 		bl	printPgmString
 348:report.c      ****   print_uint8_base10(gc_state.tool);
 1673              		.loc 1 348 0
 1674 012c 0D4B     		ldr	r3, .L105+4
 1675 012e 1B7D     		ldrb	r3, [r3, #20]	@ zero_extendqisi2
 1676 0130 1846     		mov	r0, r3
 1677 0132 FFF7FEFF 		bl	print_uint8_base10
 349:report.c      **** 
 350:report.c      ****   printPgmString(PSTR(" F"));
 1678              		.loc 1 350 0
 1679 0136 0E48     		ldr	r0, .L105+16
 1680 0138 FFF7FEFF 		bl	printPgmString
 351:report.c      ****   printFloat_RateValue(gc_state.feed_rate);
 1681              		.loc 1 351 0
 1682 013c 094B     		ldr	r3, .L105+4
 1683 013e 1B69     		ldr	r3, [r3, #16]	@ float
 1684 0140 1846     		mov	r0, r3
 1685 0142 FFF7FEFF 		bl	printFloat_RateValue
 352:report.c      **** 
 353:report.c      ****   #ifdef VARIABLE_SPINDLE
 354:report.c      ****     printPgmString(PSTR(" S"));
 1686              		.loc 1 354 0
 1687 0146 0B48     		ldr	r0, .L105+20
 1688 0148 FFF7FEFF 		bl	printPgmString
ARM GAS  C:\Users\barto\AppData\Local\Temp\cc2AQ1Jn.s 			page 38


 355:report.c      ****     printFloat(gc_state.spindle_speed,N_DECIMAL_RPMVALUE);
 1689              		.loc 1 355 0
 1690 014c 054B     		ldr	r3, .L105+4
 1691 014e DB68     		ldr	r3, [r3, #12]	@ float
 1692 0150 0021     		movs	r1, #0
 1693 0152 1846     		mov	r0, r3
 1694 0154 FFF7FEFF 		bl	printFloat
 356:report.c      ****   #endif
 357:report.c      **** 
 358:report.c      ****   report_util_feedback_line_feed();
 1695              		.loc 1 358 0
 1696 0158 FFF7FEFF 		bl	report_util_feedback_line_feed
 359:report.c      **** }
 1697              		.loc 1 359 0
 1698 015c 00BF     		nop
 1699 015e 80BD     		pop	{r7, pc}
 1700              	.L106:
 1701              		.align	2
 1702              	.L105:
 1703 0160 A4010000 		.word	.LC34
 1704 0164 00000000 		.word	gc_state
 1705 0168 AC010000 		.word	.LC35
 1706 016c B0010000 		.word	.LC36
 1707 0170 B4010000 		.word	.LC37
 1708 0174 B8010000 		.word	.LC38
 1709              		.cfi_endproc
 1710              	.LFE81:
 1711              		.size	report_gcode_modes, .-report_gcode_modes
 1712              		.section	.rodata
 1713 01bb 00       		.align	2
 1714              	.LC39:
 1715 01bc 244E00   		.ascii	"$N\000"
 1716              		.section	.text.report_startup_line,"ax",%progbits
 1717              		.align	2
 1718              		.global	report_startup_line
 1719              		.thumb
 1720              		.thumb_func
 1721              		.type	report_startup_line, %function
 1722              	report_startup_line:
 1723              	.LFB82:
 360:report.c      **** 
 361:report.c      **** // Prints specified startup line
 362:report.c      **** void report_startup_line(uint8_t n, char *line)
 363:report.c      **** {
 1724              		.loc 1 363 0
 1725              		.cfi_startproc
 1726              		@ args = 0, pretend = 0, frame = 8
 1727              		@ frame_needed = 1, uses_anonymous_args = 0
 1728 0000 80B5     		push	{r7, lr}
 1729              		.cfi_def_cfa_offset 8
 1730              		.cfi_offset 7, -8
 1731              		.cfi_offset 14, -4
 1732 0002 82B0     		sub	sp, sp, #8
 1733              		.cfi_def_cfa_offset 16
 1734 0004 00AF     		add	r7, sp, #0
 1735              		.cfi_def_cfa_register 7
 1736 0006 0346     		mov	r3, r0
ARM GAS  C:\Users\barto\AppData\Local\Temp\cc2AQ1Jn.s 			page 39


 1737 0008 3960     		str	r1, [r7]
 1738 000a FB71     		strb	r3, [r7, #7]
 364:report.c      ****   printPgmString(PSTR("$N"));
 1739              		.loc 1 364 0
 1740 000c 0948     		ldr	r0, .L108
 1741 000e FFF7FEFF 		bl	printPgmString
 365:report.c      ****   print_uint8_base10(n);
 1742              		.loc 1 365 0
 1743 0012 FB79     		ldrb	r3, [r7, #7]	@ zero_extendqisi2
 1744 0014 1846     		mov	r0, r3
 1745 0016 FFF7FEFF 		bl	print_uint8_base10
 366:report.c      ****   serial_write('=');
 1746              		.loc 1 366 0
 1747 001a 3D20     		movs	r0, #61
 1748 001c FFF7FEFF 		bl	serial_write
 367:report.c      ****   printString(line);
 1749              		.loc 1 367 0
 1750 0020 3868     		ldr	r0, [r7]
 1751 0022 FFF7FEFF 		bl	printString
 368:report.c      ****   report_util_line_feed();
 1752              		.loc 1 368 0
 1753 0026 FFF7FEFF 		bl	report_util_line_feed
 369:report.c      **** }
 1754              		.loc 1 369 0
 1755 002a 00BF     		nop
 1756 002c 0837     		adds	r7, r7, #8
 1757              		.cfi_def_cfa_offset 8
 1758 002e BD46     		mov	sp, r7
 1759              		.cfi_def_cfa_register 13
 1760              		@ sp needed
 1761 0030 80BD     		pop	{r7, pc}
 1762              	.L109:
 1763 0032 00BF     		.align	2
 1764              	.L108:
 1765 0034 BC010000 		.word	.LC39
 1766              		.cfi_endproc
 1767              	.LFE82:
 1768              		.size	report_startup_line, .-report_startup_line
 1769              		.section	.text.report_execute_startup_message,"ax",%progbits
 1770              		.align	2
 1771              		.global	report_execute_startup_message
 1772              		.thumb
 1773              		.thumb_func
 1774              		.type	report_execute_startup_message, %function
 1775              	report_execute_startup_message:
 1776              	.LFB83:
 370:report.c      **** 
 371:report.c      **** void report_execute_startup_message(char *line, uint8_t status_code)
 372:report.c      **** {
 1777              		.loc 1 372 0
 1778              		.cfi_startproc
 1779              		@ args = 0, pretend = 0, frame = 8
 1780              		@ frame_needed = 1, uses_anonymous_args = 0
 1781 0000 80B5     		push	{r7, lr}
 1782              		.cfi_def_cfa_offset 8
 1783              		.cfi_offset 7, -8
 1784              		.cfi_offset 14, -4
ARM GAS  C:\Users\barto\AppData\Local\Temp\cc2AQ1Jn.s 			page 40


 1785 0002 82B0     		sub	sp, sp, #8
 1786              		.cfi_def_cfa_offset 16
 1787 0004 00AF     		add	r7, sp, #0
 1788              		.cfi_def_cfa_register 7
 1789 0006 7860     		str	r0, [r7, #4]
 1790 0008 0B46     		mov	r3, r1
 1791 000a FB70     		strb	r3, [r7, #3]
 373:report.c      ****   serial_write('>');
 1792              		.loc 1 373 0
 1793 000c 3E20     		movs	r0, #62
 1794 000e FFF7FEFF 		bl	serial_write
 374:report.c      ****   printString(line);
 1795              		.loc 1 374 0
 1796 0012 7868     		ldr	r0, [r7, #4]
 1797 0014 FFF7FEFF 		bl	printString
 375:report.c      ****   serial_write(':');
 1798              		.loc 1 375 0
 1799 0018 3A20     		movs	r0, #58
 1800 001a FFF7FEFF 		bl	serial_write
 376:report.c      ****   report_status_message(status_code);
 1801              		.loc 1 376 0
 1802 001e FB78     		ldrb	r3, [r7, #3]	@ zero_extendqisi2
 1803 0020 1846     		mov	r0, r3
 1804 0022 FFF7FEFF 		bl	report_status_message
 377:report.c      **** }
 1805              		.loc 1 377 0
 1806 0026 00BF     		nop
 1807 0028 0837     		adds	r7, r7, #8
 1808              		.cfi_def_cfa_offset 8
 1809 002a BD46     		mov	sp, r7
 1810              		.cfi_def_cfa_register 13
 1811              		@ sp needed
 1812 002c 80BD     		pop	{r7, pc}
 1813              		.cfi_endproc
 1814              	.LFE83:
 1815              		.size	report_execute_startup_message, .-report_execute_startup_message
 1816 002e 00BF     		.section	.rodata
 1817 01bf 00       		.align	2
 1818              	.LC40:
 1819 01c0 5B564552 		.ascii	"[VER:1.1f.20180610:\000"
 1819      3A312E31 
 1819      662E3230 
 1819      31383036 
 1819      31303A00 
 1820              		.align	2
 1821              	.LC41:
 1822 01d4 5B4F5054 		.ascii	"[OPT:\000"
 1822      3A00
 1823              		.section	.text.report_build_info,"ax",%progbits
 1824              		.align	2
 1825              		.global	report_build_info
 1826              		.thumb
 1827              		.thumb_func
 1828              		.type	report_build_info, %function
 1829              	report_build_info:
 1830              	.LFB84:
 378:report.c      **** 
ARM GAS  C:\Users\barto\AppData\Local\Temp\cc2AQ1Jn.s 			page 41


 379:report.c      **** // Prints build info line
 380:report.c      **** void report_build_info(char *line)
 381:report.c      **** {
 1831              		.loc 1 381 0
 1832              		.cfi_startproc
 1833              		@ args = 0, pretend = 0, frame = 8
 1834              		@ frame_needed = 1, uses_anonymous_args = 0
 1835 0000 80B5     		push	{r7, lr}
 1836              		.cfi_def_cfa_offset 8
 1837              		.cfi_offset 7, -8
 1838              		.cfi_offset 14, -4
 1839 0002 82B0     		sub	sp, sp, #8
 1840              		.cfi_def_cfa_offset 16
 1841 0004 00AF     		add	r7, sp, #0
 1842              		.cfi_def_cfa_register 7
 1843 0006 7860     		str	r0, [r7, #4]
 382:report.c      ****   printPgmString(PSTR("[VER:" GRBL_VERSION "." GRBL_VERSION_BUILD ":"));
 1844              		.loc 1 382 0
 1845 0008 0E48     		ldr	r0, .L112
 1846 000a FFF7FEFF 		bl	printPgmString
 383:report.c      ****   printString(line);
 1847              		.loc 1 383 0
 1848 000e 7868     		ldr	r0, [r7, #4]
 1849 0010 FFF7FEFF 		bl	printString
 384:report.c      ****   report_util_feedback_line_feed();
 1850              		.loc 1 384 0
 1851 0014 FFF7FEFF 		bl	report_util_feedback_line_feed
 385:report.c      ****   printPgmString(PSTR("[OPT:")); // Generate compile-time build option list
 1852              		.loc 1 385 0
 1853 0018 0B48     		ldr	r0, .L112+4
 1854 001a FFF7FEFF 		bl	printPgmString
 386:report.c      ****   #ifdef VARIABLE_SPINDLE
 387:report.c      ****     serial_write('V');
 1855              		.loc 1 387 0
 1856 001e 5620     		movs	r0, #86
 1857 0020 FFF7FEFF 		bl	serial_write
 388:report.c      ****   #endif
 389:report.c      ****   #ifdef USE_LINE_NUMBERS
 390:report.c      ****     serial_write('N');
 391:report.c      ****   #endif
 392:report.c      ****   #ifdef ENABLE_M7
 393:report.c      ****     serial_write('M');
 1858              		.loc 1 393 0
 1859 0024 4D20     		movs	r0, #77
 1860 0026 FFF7FEFF 		bl	serial_write
 394:report.c      ****   #endif
 395:report.c      ****   #ifdef COREXY
 396:report.c      ****     serial_write('C');
 1861              		.loc 1 396 0
 1862 002a 4320     		movs	r0, #67
 1863 002c FFF7FEFF 		bl	serial_write
 397:report.c      ****   #endif
 398:report.c      ****   #ifdef PARKING_ENABLE
 399:report.c      ****     serial_write('P');
 400:report.c      ****   #endif
 401:report.c      ****   #ifdef HOMING_FORCE_SET_ORIGIN
 402:report.c      ****     serial_write('Z');
ARM GAS  C:\Users\barto\AppData\Local\Temp\cc2AQ1Jn.s 			page 42


 403:report.c      ****   #endif
 404:report.c      ****   #ifdef HOMING_SINGLE_AXIS_COMMANDS
 405:report.c      ****     serial_write('H');
 1864              		.loc 1 405 0
 1865 0030 4820     		movs	r0, #72
 1866 0032 FFF7FEFF 		bl	serial_write
 406:report.c      ****   #endif
 407:report.c      ****   #ifdef LIMITS_TWO_SWITCHES_ON_AXES
 408:report.c      ****     serial_write('L');
 409:report.c      ****   #endif
 410:report.c      ****   #ifdef ALLOW_FEED_OVERRIDE_DURING_PROBE_CYCLES
 411:report.c      ****     serial_write('A');
 412:report.c      ****   #endif
 413:report.c      ****   #ifndef ENABLE_RESTORE_EEPROM_WIPE_ALL // NOTE: Shown when disabled.
 414:report.c      ****     serial_write('*');
 415:report.c      ****   #endif
 416:report.c      ****   #ifndef ENABLE_RESTORE_EEPROM_DEFAULT_SETTINGS // NOTE: Shown when disabled.
 417:report.c      ****     serial_write('$');
 418:report.c      ****   #endif
 419:report.c      ****   #ifndef ENABLE_RESTORE_EEPROM_CLEAR_PARAMETERS // NOTE: Shown when disabled.
 420:report.c      ****     serial_write('#');
 421:report.c      ****   #endif
 422:report.c      ****   #ifndef ENABLE_BUILD_INFO_WRITE_COMMAND // NOTE: Shown when disabled.
 423:report.c      ****     serial_write('I');
 424:report.c      ****   #endif
 425:report.c      ****   #ifndef FORCE_BUFFER_SYNC_DURING_EEPROM_WRITE // NOTE: Shown when disabled.
 426:report.c      ****     serial_write('E');
 427:report.c      ****   #endif
 428:report.c      ****   #ifndef FORCE_BUFFER_SYNC_DURING_WCO_CHANGE // NOTE: Shown when disabled.
 429:report.c      ****     serial_write('W');
 430:report.c      ****   #endif
 431:report.c      ****   // NOTE: Compiled values, like override increments/max/min values, may be added at some point lat
 432:report.c      ****   // These will likely have a comma delimiter to separate them.   
 433:report.c      ****     
 434:report.c      ****   report_util_feedback_line_feed();
 1867              		.loc 1 434 0
 1868 0036 FFF7FEFF 		bl	report_util_feedback_line_feed
 435:report.c      **** }
 1869              		.loc 1 435 0
 1870 003a 00BF     		nop
 1871 003c 0837     		adds	r7, r7, #8
 1872              		.cfi_def_cfa_offset 8
 1873 003e BD46     		mov	sp, r7
 1874              		.cfi_def_cfa_register 13
 1875              		@ sp needed
 1876 0040 80BD     		pop	{r7, pc}
 1877              	.L113:
 1878 0042 00BF     		.align	2
 1879              	.L112:
 1880 0044 C0010000 		.word	.LC40
 1881 0048 D4010000 		.word	.LC41
 1882              		.cfi_endproc
 1883              	.LFE84:
 1884              		.size	report_build_info, .-report_build_info
 1885              		.section	.rodata
 1886 01da 0000     		.align	2
 1887              	.LC42:
ARM GAS  C:\Users\barto\AppData\Local\Temp\cc2AQ1Jn.s 			page 43


 1888 01dc 5B656368 		.ascii	"[echo: \000"
 1888      6F3A2000 
 1889              		.section	.text.report_echo_line_received,"ax",%progbits
 1890              		.align	2
 1891              		.global	report_echo_line_received
 1892              		.thumb
 1893              		.thumb_func
 1894              		.type	report_echo_line_received, %function
 1895              	report_echo_line_received:
 1896              	.LFB85:
 436:report.c      **** 
 437:report.c      **** 
 438:report.c      **** // Prints the character string line Grbl has received from the user, which has been pre-parsed,
 439:report.c      **** // and has been sent into protocol_execute_line() routine to be executed by Grbl.
 440:report.c      **** void report_echo_line_received(char *line)
 441:report.c      **** {
 1897              		.loc 1 441 0
 1898              		.cfi_startproc
 1899              		@ args = 0, pretend = 0, frame = 8
 1900              		@ frame_needed = 1, uses_anonymous_args = 0
 1901 0000 80B5     		push	{r7, lr}
 1902              		.cfi_def_cfa_offset 8
 1903              		.cfi_offset 7, -8
 1904              		.cfi_offset 14, -4
 1905 0002 82B0     		sub	sp, sp, #8
 1906              		.cfi_def_cfa_offset 16
 1907 0004 00AF     		add	r7, sp, #0
 1908              		.cfi_def_cfa_register 7
 1909 0006 7860     		str	r0, [r7, #4]
 442:report.c      ****   printPgmString(PSTR("[echo: ")); printString(line);
 1910              		.loc 1 442 0
 1911 0008 0548     		ldr	r0, .L115
 1912 000a FFF7FEFF 		bl	printPgmString
 1913 000e 7868     		ldr	r0, [r7, #4]
 1914 0010 FFF7FEFF 		bl	printString
 443:report.c      ****   report_util_feedback_line_feed();
 1915              		.loc 1 443 0
 1916 0014 FFF7FEFF 		bl	report_util_feedback_line_feed
 444:report.c      **** }
 1917              		.loc 1 444 0
 1918 0018 00BF     		nop
 1919 001a 0837     		adds	r7, r7, #8
 1920              		.cfi_def_cfa_offset 8
 1921 001c BD46     		mov	sp, r7
 1922              		.cfi_def_cfa_register 13
 1923              		@ sp needed
 1924 001e 80BD     		pop	{r7, pc}
 1925              	.L116:
 1926              		.align	2
 1927              	.L115:
 1928 0020 DC010000 		.word	.LC42
 1929              		.cfi_endproc
 1930              	.LFE85:
 1931              		.size	report_echo_line_received, .-report_echo_line_received
 1932              		.section	.rodata
 1933              		.align	2
 1934              	.LC43:
ARM GAS  C:\Users\barto\AppData\Local\Temp\cc2AQ1Jn.s 			page 44


 1935 01e4 49646C65 		.ascii	"Idle\000"
 1935      00
 1936 01e9 000000   		.align	2
 1937              	.LC44:
 1938 01ec 52756E00 		.ascii	"Run\000"
 1939              		.align	2
 1940              	.LC45:
 1941 01f0 486F6C64 		.ascii	"Hold:\000"
 1941      3A00
 1942 01f6 0000     		.align	2
 1943              	.LC46:
 1944 01f8 4A6F6700 		.ascii	"Jog\000"
 1945              		.align	2
 1946              	.LC47:
 1947 01fc 486F6D65 		.ascii	"Home\000"
 1947      00
 1948 0201 000000   		.align	2
 1949              	.LC48:
 1950 0204 416C6172 		.ascii	"Alarm\000"
 1950      6D00
 1951 020a 0000     		.align	2
 1952              	.LC49:
 1953 020c 43686563 		.ascii	"Check\000"
 1953      6B00
 1954 0212 0000     		.align	2
 1955              	.LC50:
 1956 0214 446F6F72 		.ascii	"Door:\000"
 1956      3A00
 1957 021a 0000     		.align	2
 1958              	.LC51:
 1959 021c 536C6565 		.ascii	"Sleep\000"
 1959      7000
 1960              		.global	__aeabi_fadd
 1961              		.global	__aeabi_fsub
 1962 0222 0000     		.align	2
 1963              	.LC52:
 1964 0224 7C4D506F 		.ascii	"|MPos:\000"
 1964      733A00
 1965 022b 00       		.align	2
 1966              	.LC53:
 1967 022c 7C57506F 		.ascii	"|WPos:\000"
 1967      733A00
 1968 0233 00       		.align	2
 1969              	.LC54:
 1970 0234 7C42663A 		.ascii	"|Bf:\000"
 1970      00
 1971 0239 000000   		.align	2
 1972              	.LC55:
 1973 023c 7C46533A 		.ascii	"|FS:\000"
 1973      00
 1974 0241 000000   		.align	2
 1975              	.LC56:
 1976 0244 7C506E3A 		.ascii	"|Pn:\000"
 1976      00
 1977 0249 000000   		.align	2
 1978              	.LC57:
 1979 024c 7C57434F 		.ascii	"|WCO:\000"
ARM GAS  C:\Users\barto\AppData\Local\Temp\cc2AQ1Jn.s 			page 45


 1979      3A00
 1980 0252 0000     		.align	2
 1981              	.LC58:
 1982 0254 7C4F763A 		.ascii	"|Ov:\000"
 1982      00
 1983 0259 000000   		.align	2
 1984              	.LC59:
 1985 025c 7C413A00 		.ascii	"|A:\000"
 1986              		.section	.text.report_realtime_status,"ax",%progbits
 1987              		.align	2
 1988              		.global	report_realtime_status
 1989              		.thumb
 1990              		.thumb_func
 1991              		.type	report_realtime_status, %function
 1992              	report_realtime_status:
 1993              	.LFB86:
 445:report.c      **** 
 446:report.c      **** 
 447:report.c      ****  // Prints real-time data. This function grabs a real-time snapshot of the stepper subprogram
 448:report.c      ****  // and the actual location of the CNC machine. Users may change the following function to their
 449:report.c      ****  // specific needs, but the desired real-time data report must be as short as possible. This is
 450:report.c      ****  // requires as it minimizes the computational overhead and allows grbl to keep running smoothly,
 451:report.c      ****  // especially during g-code programs with fast, short line segments and high frequency reports (5-
 452:report.c      **** void report_realtime_status()
 453:report.c      **** {
 1994              		.loc 1 453 0
 1995              		.cfi_startproc
 1996              		@ args = 0, pretend = 0, frame = 48
 1997              		@ frame_needed = 1, uses_anonymous_args = 0
 1998 0000 90B5     		push	{r4, r7, lr}
 1999              		.cfi_def_cfa_offset 12
 2000              		.cfi_offset 4, -12
 2001              		.cfi_offset 7, -8
 2002              		.cfi_offset 14, -4
 2003 0002 8DB0     		sub	sp, sp, #52
 2004              		.cfi_def_cfa_offset 64
 2005 0004 00AF     		add	r7, sp, #0
 2006              		.cfi_def_cfa_register 7
 454:report.c      ****   uint8_t idx;
 455:report.c      ****   int32_t current_position[N_AXIS]; // Copy current state of the system position variable
 456:report.c      ****   memcpy(current_position,sys_position,sizeof(sys_position));
 2007              		.loc 1 456 0
 2008 0006 824A     		ldr	r2, .L167
 2009 0008 07F11C03 		add	r3, r7, #28
 2010 000c 07CA     		ldmia	r2, {r0, r1, r2}
 2011 000e 83E80700 		stmia	r3, {r0, r1, r2}
 457:report.c      ****   float print_position[N_AXIS];
 458:report.c      ****   system_convert_array_steps_to_mpos(print_position,current_position);
 2012              		.loc 1 458 0
 2013 0012 07F11C02 		add	r2, r7, #28
 2014 0016 07F11003 		add	r3, r7, #16
 2015 001a 1146     		mov	r1, r2
 2016 001c 1846     		mov	r0, r3
 2017 001e FFF7FEFF 		bl	system_convert_array_steps_to_mpos
 459:report.c      **** 
 460:report.c      ****   // Report current machine state and sub-states
 461:report.c      ****   serial_write('<');
ARM GAS  C:\Users\barto\AppData\Local\Temp\cc2AQ1Jn.s 			page 46


 2018              		.loc 1 461 0
 2019 0022 3C20     		movs	r0, #60
 2020 0024 FFF7FEFF 		bl	serial_write
 462:report.c      ****   switch (sys.state) {
 2021              		.loc 1 462 0
 2022 0028 7A4B     		ldr	r3, .L167+4
 2023 002a 1B78     		ldrb	r3, [r3]	@ zero_extendqisi2
 2024 002c 082B     		cmp	r3, #8
 2025 002e 1DD0     		beq	.L119
 2026 0030 082B     		cmp	r3, #8
 2027 0032 0BDC     		bgt	.L120
 2028 0034 012B     		cmp	r3, #1
 2029 0036 3BD0     		beq	.L121
 2030 0038 012B     		cmp	r3, #1
 2031 003a 02DC     		bgt	.L122
 2032 003c 002B     		cmp	r3, #0
 2033 003e 11D0     		beq	.L123
 2034 0040 67E0     		b	.L118
 2035              	.L122:
 2036 0042 022B     		cmp	r3, #2
 2037 0044 38D0     		beq	.L124
 2038 0046 042B     		cmp	r3, #4
 2039 0048 2ED0     		beq	.L125
 2040 004a 62E0     		b	.L118
 2041              	.L120:
 2042 004c 202B     		cmp	r3, #32
 2043 004e 27D0     		beq	.L126
 2044 0050 202B     		cmp	r3, #32
 2045 0052 02DC     		bgt	.L127
 2046 0054 102B     		cmp	r3, #16
 2047 0056 0DD0     		beq	.L128
 2048 0058 5BE0     		b	.L118
 2049              	.L127:
 2050 005a 402B     		cmp	r3, #64
 2051 005c 30D0     		beq	.L129
 2052 005e 802B     		cmp	r3, #128
 2053 0060 53D0     		beq	.L130
 2054 0062 56E0     		b	.L118
 2055              	.L123:
 463:report.c      ****     case STATE_IDLE: printPgmString(("Idle")); break;
 2056              		.loc 1 463 0
 2057 0064 6C48     		ldr	r0, .L167+8
 2058 0066 FFF7FEFF 		bl	printPgmString
 2059 006a 52E0     		b	.L118
 2060              	.L119:
 464:report.c      ****     case STATE_CYCLE: printPgmString(PSTR("Run")); break;
 2061              		.loc 1 464 0
 2062 006c 6B48     		ldr	r0, .L167+12
 2063 006e FFF7FEFF 		bl	printPgmString
 2064 0072 4EE0     		b	.L118
 2065              	.L128:
 465:report.c      ****     case STATE_HOLD:
 466:report.c      ****     
 467:report.c      ****       if (!(sys.suspend & SUSPEND_JOG_CANCEL)) {
 2066              		.loc 1 467 0
 2067 0074 674B     		ldr	r3, .L167+4
 2068 0076 9B78     		ldrb	r3, [r3, #2]	@ zero_extendqisi2
ARM GAS  C:\Users\barto\AppData\Local\Temp\cc2AQ1Jn.s 			page 47


 2069 0078 5BB2     		sxtb	r3, r3
 2070 007a 002B     		cmp	r3, #0
 2071 007c 10DB     		blt	.L126
 468:report.c      ****         printPgmString(PSTR("Hold:"));
 2072              		.loc 1 468 0
 2073 007e 6848     		ldr	r0, .L167+16
 2074 0080 FFF7FEFF 		bl	printPgmString
 469:report.c      ****         if (sys.suspend & SUSPEND_HOLD_COMPLETE) { serial_write('0'); } // Ready to resume
 2075              		.loc 1 469 0
 2076 0084 634B     		ldr	r3, .L167+4
 2077 0086 9B78     		ldrb	r3, [r3, #2]	@ zero_extendqisi2
 2078 0088 03F00103 		and	r3, r3, #1
 2079 008c 002B     		cmp	r3, #0
 2080 008e 03D0     		beq	.L131
 2081              		.loc 1 469 0 is_stmt 0 discriminator 1
 2082 0090 3020     		movs	r0, #48
 2083 0092 FFF7FEFF 		bl	serial_write
 470:report.c      ****         else { serial_write('1'); } // Actively holding
 471:report.c      ****         break;
 2084              		.loc 1 471 0 is_stmt 1 discriminator 1
 2085 0096 3CE0     		b	.L118
 2086              	.L131:
 470:report.c      ****         else { serial_write('1'); } // Actively holding
 2087              		.loc 1 470 0
 2088 0098 3120     		movs	r0, #49
 2089 009a FFF7FEFF 		bl	serial_write
 2090              		.loc 1 471 0
 2091 009e 38E0     		b	.L118
 2092              	.L126:
 472:report.c      ****       } // Continues to print jog state during jog cancel.
 473:report.c      ****     case STATE_JOG: printPgmString(PSTR("Jog")); break;
 2093              		.loc 1 473 0
 2094 00a0 6048     		ldr	r0, .L167+20
 2095 00a2 FFF7FEFF 		bl	printPgmString
 2096 00a6 34E0     		b	.L118
 2097              	.L125:
 474:report.c      ****     case STATE_HOMING: printPgmString(PSTR("Home")); break;
 2098              		.loc 1 474 0
 2099 00a8 5F48     		ldr	r0, .L167+24
 2100 00aa FFF7FEFF 		bl	printPgmString
 2101 00ae 30E0     		b	.L118
 2102              	.L121:
 475:report.c      ****     case STATE_ALARM: printPgmString(PSTR("Alarm")); break;
 2103              		.loc 1 475 0
 2104 00b0 5E48     		ldr	r0, .L167+28
 2105 00b2 FFF7FEFF 		bl	printPgmString
 2106 00b6 2CE0     		b	.L118
 2107              	.L124:
 476:report.c      ****     case STATE_CHECK_MODE: printPgmString(PSTR("Check")); break;
 2108              		.loc 1 476 0
 2109 00b8 5D48     		ldr	r0, .L167+32
 2110 00ba FFF7FEFF 		bl	printPgmString
 2111 00be 28E0     		b	.L118
 2112              	.L129:
 477:report.c      ****     case STATE_SAFETY_DOOR:
 478:report.c      ****       printPgmString(PSTR("Door:"));
 2113              		.loc 1 478 0
ARM GAS  C:\Users\barto\AppData\Local\Temp\cc2AQ1Jn.s 			page 48


 2114 00c0 5C48     		ldr	r0, .L167+36
 2115 00c2 FFF7FEFF 		bl	printPgmString
 479:report.c      ****       if (sys.suspend & SUSPEND_INITIATE_RESTORE) {
 2116              		.loc 1 479 0
 2117 00c6 534B     		ldr	r3, .L167+4
 2118 00c8 9B78     		ldrb	r3, [r3, #2]	@ zero_extendqisi2
 2119 00ca 03F00803 		and	r3, r3, #8
 2120 00ce 002B     		cmp	r3, #0
 2121 00d0 03D0     		beq	.L133
 480:report.c      ****         serial_write('3'); // Restoring
 2122              		.loc 1 480 0
 2123 00d2 3320     		movs	r0, #51
 2124 00d4 FFF7FEFF 		bl	serial_write
 481:report.c      ****       } else {
 482:report.c      ****         if (sys.suspend & SUSPEND_RETRACT_COMPLETE) {
 483:report.c      ****           if (sys.suspend & SUSPEND_SAFETY_DOOR_AJAR) {
 484:report.c      ****             serial_write('1'); // Door ajar
 485:report.c      ****           } else {
 486:report.c      ****             serial_write('0');
 487:report.c      ****           } // Door closed and ready to resume
 488:report.c      ****         } else {
 489:report.c      ****           serial_write('2'); // Retracting
 490:report.c      ****         }
 491:report.c      ****       }
 492:report.c      ****       break;
 2125              		.loc 1 492 0
 2126 00d8 1BE0     		b	.L118
 2127              	.L133:
 482:report.c      ****           if (sys.suspend & SUSPEND_SAFETY_DOOR_AJAR) {
 2128              		.loc 1 482 0
 2129 00da 4E4B     		ldr	r3, .L167+4
 2130 00dc 9B78     		ldrb	r3, [r3, #2]	@ zero_extendqisi2
 2131 00de 03F00403 		and	r3, r3, #4
 2132 00e2 002B     		cmp	r3, #0
 2133 00e4 0DD0     		beq	.L135
 483:report.c      ****             serial_write('1'); // Door ajar
 2134              		.loc 1 483 0
 2135 00e6 4B4B     		ldr	r3, .L167+4
 2136 00e8 9B78     		ldrb	r3, [r3, #2]	@ zero_extendqisi2
 2137 00ea 03F02003 		and	r3, r3, #32
 2138 00ee 002B     		cmp	r3, #0
 2139 00f0 03D0     		beq	.L136
 484:report.c      ****           } else {
 2140              		.loc 1 484 0
 2141 00f2 3120     		movs	r0, #49
 2142 00f4 FFF7FEFF 		bl	serial_write
 2143              		.loc 1 492 0
 2144 00f8 0BE0     		b	.L118
 2145              	.L136:
 486:report.c      ****           } // Door closed and ready to resume
 2146              		.loc 1 486 0
 2147 00fa 3020     		movs	r0, #48
 2148 00fc FFF7FEFF 		bl	serial_write
 2149              		.loc 1 492 0
 2150 0100 07E0     		b	.L118
 2151              	.L135:
 489:report.c      ****         }
ARM GAS  C:\Users\barto\AppData\Local\Temp\cc2AQ1Jn.s 			page 49


 2152              		.loc 1 489 0
 2153 0102 3220     		movs	r0, #50
 2154 0104 FFF7FEFF 		bl	serial_write
 2155              		.loc 1 492 0
 2156 0108 03E0     		b	.L118
 2157              	.L130:
 493:report.c      ****     case STATE_SLEEP: printPgmString(PSTR("Sleep")); break;
 2158              		.loc 1 493 0
 2159 010a 4B48     		ldr	r0, .L167+40
 2160 010c FFF7FEFF 		bl	printPgmString
 2161 0110 00BF     		nop
 2162              	.L118:
 494:report.c      ****   }
 495:report.c      **** 
 496:report.c      ****   float wco[N_AXIS];
 497:report.c      ****   if (bit_isfalse(settings.status_report_mask,BITFLAG_RT_STATUS_POSITION_TYPE) ||
 2163              		.loc 1 497 0
 2164 0112 4A4B     		ldr	r3, .L167+44
 2165 0114 93F83430 		ldrb	r3, [r3, #52]	@ zero_extendqisi2
 2166 0118 03F00103 		and	r3, r3, #1
 2167 011c 002B     		cmp	r3, #0
 2168 011e 03D0     		beq	.L138
 498:report.c      ****       (sys.report_wco_counter == 0) ) {
 2169              		.loc 1 498 0 discriminator 1
 2170 0120 3C4B     		ldr	r3, .L167+4
 2171 0122 1B7B     		ldrb	r3, [r3, #12]	@ zero_extendqisi2
 497:report.c      ****       (sys.report_wco_counter == 0) ) {
 2172              		.loc 1 497 0 discriminator 1
 2173 0124 002B     		cmp	r3, #0
 2174 0126 67D1     		bne	.L139
 2175              	.L138:
 499:report.c      ****     for (idx=0; idx< N_AXIS; idx++) {
 2176              		.loc 1 499 0
 2177 0128 0023     		movs	r3, #0
 2178 012a 87F82F30 		strb	r3, [r7, #47]
 2179 012e 5FE0     		b	.L140
 2180              	.L143:
 500:report.c      ****       // Apply work coordinate offsets and tool length offset to current position.
 501:report.c      ****       wco[idx] = gc_state.coord_system[idx]+gc_state.coord_offset[idx];
 2181              		.loc 1 501 0
 2182 0130 97F82F40 		ldrb	r4, [r7, #47]	@ zero_extendqisi2
 2183 0134 97F82F30 		ldrb	r3, [r7, #47]	@ zero_extendqisi2
 2184 0138 414A     		ldr	r2, .L167+48
 2185 013a 0A33     		adds	r3, r3, #10
 2186 013c 52F82300 		ldr	r0, [r2, r3, lsl #2]	@ float
 2187 0140 97F82F30 		ldrb	r3, [r7, #47]	@ zero_extendqisi2
 2188 0144 3E4A     		ldr	r2, .L167+48
 2189 0146 0C33     		adds	r3, r3, #12
 2190 0148 9B00     		lsls	r3, r3, #2
 2191 014a 1344     		add	r3, r3, r2
 2192 014c 5B68     		ldr	r3, [r3, #4]	@ float
 2193 014e 1946     		mov	r1, r3
 2194 0150 FFF7FEFF 		bl	__aeabi_fadd
 2195 0154 0346     		mov	r3, r0
 2196 0156 1A46     		mov	r2, r3
 2197 0158 A300     		lsls	r3, r4, #2
 2198 015a 07F13001 		add	r1, r7, #48
ARM GAS  C:\Users\barto\AppData\Local\Temp\cc2AQ1Jn.s 			page 50


 2199 015e 0B44     		add	r3, r3, r1
 2200 0160 43F82C2C 		str	r2, [r3, #-44]	@ float
 502:report.c      ****       if (idx == TOOL_LENGTH_OFFSET_AXIS) { wco[idx] += gc_state.tool_length_offset; }
 2201              		.loc 1 502 0
 2202 0164 97F82F30 		ldrb	r3, [r7, #47]	@ zero_extendqisi2
 2203 0168 022B     		cmp	r3, #2
 2204 016a 17D1     		bne	.L141
 2205              		.loc 1 502 0 is_stmt 0 discriminator 1
 2206 016c 97F82F40 		ldrb	r4, [r7, #47]	@ zero_extendqisi2
 2207 0170 97F82F30 		ldrb	r3, [r7, #47]	@ zero_extendqisi2
 2208 0174 9B00     		lsls	r3, r3, #2
 2209 0176 07F13002 		add	r2, r7, #48
 2210 017a 1344     		add	r3, r3, r2
 2211 017c 53F82C2C 		ldr	r2, [r3, #-44]	@ float
 2212 0180 2F4B     		ldr	r3, .L167+48
 2213 0182 1B6C     		ldr	r3, [r3, #64]	@ float
 2214 0184 1946     		mov	r1, r3
 2215 0186 1046     		mov	r0, r2
 2216 0188 FFF7FEFF 		bl	__aeabi_fadd
 2217 018c 0346     		mov	r3, r0
 2218 018e 1A46     		mov	r2, r3
 2219 0190 A300     		lsls	r3, r4, #2
 2220 0192 07F13001 		add	r1, r7, #48
 2221 0196 0B44     		add	r3, r3, r1
 2222 0198 43F82C2C 		str	r2, [r3, #-44]	@ float
 2223              	.L141:
 503:report.c      ****       if (bit_isfalse(settings.status_report_mask,BITFLAG_RT_STATUS_POSITION_TYPE)) {
 2224              		.loc 1 503 0 is_stmt 1
 2225 019c 274B     		ldr	r3, .L167+44
 2226 019e 93F83430 		ldrb	r3, [r3, #52]	@ zero_extendqisi2
 2227 01a2 03F00103 		and	r3, r3, #1
 2228 01a6 002B     		cmp	r3, #0
 2229 01a8 1DD1     		bne	.L142
 504:report.c      ****         print_position[idx] -= wco[idx];
 2230              		.loc 1 504 0
 2231 01aa 97F82F40 		ldrb	r4, [r7, #47]	@ zero_extendqisi2
 2232 01ae 97F82F30 		ldrb	r3, [r7, #47]	@ zero_extendqisi2
 2233 01b2 9B00     		lsls	r3, r3, #2
 2234 01b4 07F13002 		add	r2, r7, #48
 2235 01b8 1344     		add	r3, r3, r2
 2236 01ba 53F8202C 		ldr	r2, [r3, #-32]	@ float
 2237 01be 97F82F30 		ldrb	r3, [r7, #47]	@ zero_extendqisi2
 2238 01c2 9B00     		lsls	r3, r3, #2
 2239 01c4 07F13001 		add	r1, r7, #48
 2240 01c8 0B44     		add	r3, r3, r1
 2241 01ca 53F82C3C 		ldr	r3, [r3, #-44]	@ float
 2242 01ce 1946     		mov	r1, r3
 2243 01d0 1046     		mov	r0, r2
 2244 01d2 FFF7FEFF 		bl	__aeabi_fsub
 2245 01d6 0346     		mov	r3, r0
 2246 01d8 1A46     		mov	r2, r3
 2247 01da A300     		lsls	r3, r4, #2
 2248 01dc 07F13001 		add	r1, r7, #48
 2249 01e0 0B44     		add	r3, r3, r1
 2250 01e2 43F8202C 		str	r2, [r3, #-32]	@ float
 2251              	.L142:
 499:report.c      ****       // Apply work coordinate offsets and tool length offset to current position.
ARM GAS  C:\Users\barto\AppData\Local\Temp\cc2AQ1Jn.s 			page 51


 2252              		.loc 1 499 0 discriminator 2
 2253 01e6 97F82F30 		ldrb	r3, [r7, #47]	@ zero_extendqisi2
 2254 01ea 0133     		adds	r3, r3, #1
 2255 01ec 87F82F30 		strb	r3, [r7, #47]
 2256              	.L140:
 499:report.c      ****       // Apply work coordinate offsets and tool length offset to current position.
 2257              		.loc 1 499 0 is_stmt 0 discriminator 1
 2258 01f0 97F82F30 		ldrb	r3, [r7, #47]	@ zero_extendqisi2
 2259 01f4 022B     		cmp	r3, #2
 2260 01f6 9BD9     		bls	.L143
 2261              	.L139:
 505:report.c      ****       }
 506:report.c      ****     }
 507:report.c      ****   }
 508:report.c      **** 
 509:report.c      ****   // Report machine position
 510:report.c      ****   if (bit_istrue(settings.status_report_mask,BITFLAG_RT_STATUS_POSITION_TYPE)) {
 2262              		.loc 1 510 0 is_stmt 1
 2263 01f8 104B     		ldr	r3, .L167+44
 2264 01fa 93F83430 		ldrb	r3, [r3, #52]	@ zero_extendqisi2
 2265 01fe 03F00103 		and	r3, r3, #1
 2266 0202 002B     		cmp	r3, #0
 2267 0204 20D0     		beq	.L144
 511:report.c      ****     printPgmString(PSTR("|MPos:"));
 2268              		.loc 1 511 0
 2269 0206 0F48     		ldr	r0, .L167+52
 2270 0208 FFF7FEFF 		bl	printPgmString
 2271 020c 1FE0     		b	.L145
 2272              	.L168:
 2273 020e 00BF     		.align	2
 2274              	.L167:
 2275 0210 00000000 		.word	sys_position
 2276 0214 00000000 		.word	sys
 2277 0218 E4010000 		.word	.LC43
 2278 021c EC010000 		.word	.LC44
 2279 0220 F0010000 		.word	.LC45
 2280 0224 F8010000 		.word	.LC46
 2281 0228 FC010000 		.word	.LC47
 2282 022c 04020000 		.word	.LC48
 2283 0230 0C020000 		.word	.LC49
 2284 0234 14020000 		.word	.LC50
 2285 0238 1C020000 		.word	.LC51
 2286 023c 00000000 		.word	settings
 2287 0240 00000000 		.word	gc_state
 2288 0244 24020000 		.word	.LC52
 2289              	.L144:
 512:report.c      ****   } else {
 513:report.c      ****     printPgmString(PSTR("|WPos:"));
 2290              		.loc 1 513 0
 2291 0248 9548     		ldr	r0, .L169
 2292 024a FFF7FEFF 		bl	printPgmString
 2293              	.L145:
 514:report.c      ****   }
 515:report.c      ****   report_util_axis_values(print_position);
 2294              		.loc 1 515 0
 2295 024e 07F11003 		add	r3, r7, #16
 2296 0252 1846     		mov	r0, r3
ARM GAS  C:\Users\barto\AppData\Local\Temp\cc2AQ1Jn.s 			page 52


 2297 0254 FFF7FEFF 		bl	report_util_axis_values
 516:report.c      **** 
 517:report.c      ****   // Returns planner and serial read buffer states.
 518:report.c      ****   #ifdef REPORT_FIELD_BUFFER_STATE
 519:report.c      ****     if (bit_istrue(settings.status_report_mask,BITFLAG_RT_STATUS_BUFFER_STATE)) {
 2298              		.loc 1 519 0
 2299 0258 924B     		ldr	r3, .L169+4
 2300 025a 93F83430 		ldrb	r3, [r3, #52]	@ zero_extendqisi2
 2301 025e 03F00203 		and	r3, r3, #2
 2302 0262 002B     		cmp	r3, #0
 2303 0264 11D0     		beq	.L146
 520:report.c      ****       printPgmString(PSTR("|Bf:"));
 2304              		.loc 1 520 0
 2305 0266 9048     		ldr	r0, .L169+8
 2306 0268 FFF7FEFF 		bl	printPgmString
 521:report.c      ****       print_uint8_base10(plan_get_block_buffer_available());
 2307              		.loc 1 521 0
 2308 026c FFF7FEFF 		bl	plan_get_block_buffer_available
 2309 0270 0346     		mov	r3, r0
 2310 0272 1846     		mov	r0, r3
 2311 0274 FFF7FEFF 		bl	print_uint8_base10
 522:report.c      ****       serial_write(',');
 2312              		.loc 1 522 0
 2313 0278 2C20     		movs	r0, #44
 2314 027a FFF7FEFF 		bl	serial_write
 523:report.c      ****       print_uint8_base10(serial_get_rx_buffer_available());
 2315              		.loc 1 523 0
 2316 027e FFF7FEFF 		bl	serial_get_rx_buffer_available
 2317 0282 0346     		mov	r3, r0
 2318 0284 1846     		mov	r0, r3
 2319 0286 FFF7FEFF 		bl	print_uint8_base10
 2320              	.L146:
 524:report.c      ****     }
 525:report.c      ****   #endif
 526:report.c      **** 
 527:report.c      ****   #ifdef USE_LINE_NUMBERS
 528:report.c      ****     #ifdef REPORT_FIELD_LINE_NUMBERS
 529:report.c      ****       // Report current line number
 530:report.c      ****       plan_block_t * cur_block = plan_get_current_block();
 531:report.c      ****       if (cur_block != NULL) {
 532:report.c      ****         uint32_t ln = cur_block->line_number;
 533:report.c      ****         if (ln > 0) {
 534:report.c      ****           printPgmString(PSTR("|Ln:"));
 535:report.c      ****           printInteger(ln);
 536:report.c      ****         }
 537:report.c      ****       }
 538:report.c      ****     #endif
 539:report.c      ****   #endif
 540:report.c      **** 
 541:report.c      ****   // Report realtime feed speed
 542:report.c      ****   #ifdef REPORT_FIELD_CURRENT_FEED_SPEED
 543:report.c      ****     #ifdef VARIABLE_SPINDLE
 544:report.c      ****       printPgmString(PSTR("|FS:"));
 2321              		.loc 1 544 0
 2322 028a 8848     		ldr	r0, .L169+12
 2323 028c FFF7FEFF 		bl	printPgmString
 545:report.c      ****       printFloat_RateValue(st_get_realtime_rate());
ARM GAS  C:\Users\barto\AppData\Local\Temp\cc2AQ1Jn.s 			page 53


 2324              		.loc 1 545 0
 2325 0290 FFF7FEFF 		bl	st_get_realtime_rate
 2326 0294 0346     		mov	r3, r0
 2327 0296 1846     		mov	r0, r3
 2328 0298 FFF7FEFF 		bl	printFloat_RateValue
 546:report.c      ****       serial_write(',');
 2329              		.loc 1 546 0
 2330 029c 2C20     		movs	r0, #44
 2331 029e FFF7FEFF 		bl	serial_write
 547:report.c      ****       printFloat(sys.spindle_speed,N_DECIMAL_RPMVALUE);
 2332              		.loc 1 547 0
 2333 02a2 834B     		ldr	r3, .L169+16
 2334 02a4 1B69     		ldr	r3, [r3, #16]	@ float
 2335 02a6 0021     		movs	r1, #0
 2336 02a8 1846     		mov	r0, r3
 2337 02aa FFF7FEFF 		bl	printFloat
 548:report.c      ****     #else
 549:report.c      ****       printPgmString(PSTR("|F:"));
 550:report.c      ****       printFloat_RateValue(st_get_realtime_rate());
 551:report.c      ****     #endif      
 552:report.c      ****   #endif
 553:report.c      **** 
 554:report.c      ****   #ifdef REPORT_FIELD_PIN_STATE
 555:report.c      ****     uint8_t lim_pin_state = limits_get_state();
 2338              		.loc 1 555 0
 2339 02ae FFF7FEFF 		bl	limits_get_state
 2340 02b2 0346     		mov	r3, r0
 2341 02b4 87F82E30 		strb	r3, [r7, #46]
 556:report.c      ****     uint8_t ctrl_pin_state = system_control_get_state();
 2342              		.loc 1 556 0
 2343 02b8 FFF7FEFF 		bl	system_control_get_state
 2344 02bc 0346     		mov	r3, r0
 2345 02be 87F82D30 		strb	r3, [r7, #45]
 557:report.c      ****     uint8_t prb_pin_state = probe_get_state();
 2346              		.loc 1 557 0
 2347 02c2 FFF7FEFF 		bl	probe_get_state
 2348 02c6 0346     		mov	r3, r0
 2349 02c8 87F82C30 		strb	r3, [r7, #44]
 558:report.c      ****     if (lim_pin_state | ctrl_pin_state | prb_pin_state) {
 2350              		.loc 1 558 0
 2351 02cc 97F82E20 		ldrb	r2, [r7, #46]
 2352 02d0 97F82D30 		ldrb	r3, [r7, #45]
 2353 02d4 1343     		orrs	r3, r3, r2
 2354 02d6 DAB2     		uxtb	r2, r3
 2355 02d8 97F82C30 		ldrb	r3, [r7, #44]
 2356 02dc 1343     		orrs	r3, r3, r2
 2357 02de DBB2     		uxtb	r3, r3
 2358 02e0 002B     		cmp	r3, #0
 2359 02e2 47D0     		beq	.L147
 559:report.c      ****       printPgmString(PSTR("|Pn:"));
 2360              		.loc 1 559 0
 2361 02e4 7348     		ldr	r0, .L169+20
 2362 02e6 FFF7FEFF 		bl	printPgmString
 560:report.c      ****       if (prb_pin_state) { serial_write('P'); }
 2363              		.loc 1 560 0
 2364 02ea 97F82C30 		ldrb	r3, [r7, #44]	@ zero_extendqisi2
 2365 02ee 002B     		cmp	r3, #0
ARM GAS  C:\Users\barto\AppData\Local\Temp\cc2AQ1Jn.s 			page 54


 2366 02f0 02D0     		beq	.L148
 2367              		.loc 1 560 0 is_stmt 0 discriminator 1
 2368 02f2 5020     		movs	r0, #80
 2369 02f4 FFF7FEFF 		bl	serial_write
 2370              	.L148:
 561:report.c      ****       if (lim_pin_state) {
 2371              		.loc 1 561 0 is_stmt 1
 2372 02f8 97F82E30 		ldrb	r3, [r7, #46]	@ zero_extendqisi2
 2373 02fc 002B     		cmp	r3, #0
 2374 02fe 1AD0     		beq	.L149
 562:report.c      ****         if (bit_istrue(lim_pin_state,bit(X_AXIS))) { serial_write('X'); }
 2375              		.loc 1 562 0
 2376 0300 97F82E30 		ldrb	r3, [r7, #46]	@ zero_extendqisi2
 2377 0304 03F00103 		and	r3, r3, #1
 2378 0308 002B     		cmp	r3, #0
 2379 030a 02D0     		beq	.L150
 2380              		.loc 1 562 0 is_stmt 0 discriminator 1
 2381 030c 5820     		movs	r0, #88
 2382 030e FFF7FEFF 		bl	serial_write
 2383              	.L150:
 563:report.c      ****         if (bit_istrue(lim_pin_state,bit(Y_AXIS))) { serial_write('Y'); }
 2384              		.loc 1 563 0 is_stmt 1
 2385 0312 97F82E30 		ldrb	r3, [r7, #46]	@ zero_extendqisi2
 2386 0316 03F00203 		and	r3, r3, #2
 2387 031a 002B     		cmp	r3, #0
 2388 031c 02D0     		beq	.L151
 2389              		.loc 1 563 0 is_stmt 0 discriminator 1
 2390 031e 5920     		movs	r0, #89
 2391 0320 FFF7FEFF 		bl	serial_write
 2392              	.L151:
 564:report.c      ****         if (bit_istrue(lim_pin_state,bit(Z_AXIS))) { serial_write('Z'); }
 2393              		.loc 1 564 0 is_stmt 1
 2394 0324 97F82E30 		ldrb	r3, [r7, #46]	@ zero_extendqisi2
 2395 0328 03F00403 		and	r3, r3, #4
 2396 032c 002B     		cmp	r3, #0
 2397 032e 02D0     		beq	.L149
 2398              		.loc 1 564 0 is_stmt 0 discriminator 1
 2399 0330 5A20     		movs	r0, #90
 2400 0332 FFF7FEFF 		bl	serial_write
 2401              	.L149:
 565:report.c      ****         #ifdef A_AXIS
 566:report.c      ****          if (bit_istrue(lim_pin_state,bit(A_AXIS))) { serial_write('A'); }
 567:report.c      ****         #endif
 568:report.c      ****         #ifdef B_AXIS
 569:report.c      ****          if (bit_istrue(lim_pin_state,bit(B_AXIS))) { serial_write('B'); }
 570:report.c      ****         #endif
 571:report.c      ****         #ifdef C_AXIS
 572:report.c      ****          if (bit_istrue(lim_pin_state,bit(C_AXIS))) { serial_write('C'); }
 573:report.c      ****         #endif
 574:report.c      ****       }
 575:report.c      ****       if (ctrl_pin_state) {
 2402              		.loc 1 575 0 is_stmt 1
 2403 0336 97F82D30 		ldrb	r3, [r7, #45]	@ zero_extendqisi2
 2404 033a 002B     		cmp	r3, #0
 2405 033c 1AD0     		beq	.L147
 576:report.c      ****         #ifdef ENABLE_SAFETY_DOOR_INPUT_PIN
 577:report.c      ****           if (bit_istrue(ctrl_pin_state,CONTROL_PIN_INDEX_SAFETY_DOOR)) { serial_write('D'); }
ARM GAS  C:\Users\barto\AppData\Local\Temp\cc2AQ1Jn.s 			page 55


 578:report.c      ****         #endif
 579:report.c      ****         if (bit_istrue(ctrl_pin_state,CONTROL_PIN_INDEX_RESET)) { serial_write('R'); }
 2406              		.loc 1 579 0
 2407 033e 97F82D30 		ldrb	r3, [r7, #45]	@ zero_extendqisi2
 2408 0342 03F00103 		and	r3, r3, #1
 2409 0346 002B     		cmp	r3, #0
 2410 0348 02D0     		beq	.L152
 2411              		.loc 1 579 0 is_stmt 0 discriminator 1
 2412 034a 5220     		movs	r0, #82
 2413 034c FFF7FEFF 		bl	serial_write
 2414              	.L152:
 580:report.c      ****         if (bit_istrue(ctrl_pin_state,CONTROL_PIN_INDEX_FEED_HOLD)) { serial_write('H'); }
 2415              		.loc 1 580 0 is_stmt 1
 2416 0350 97F82D30 		ldrb	r3, [r7, #45]	@ zero_extendqisi2
 2417 0354 03F00203 		and	r3, r3, #2
 2418 0358 002B     		cmp	r3, #0
 2419 035a 02D0     		beq	.L153
 2420              		.loc 1 580 0 is_stmt 0 discriminator 1
 2421 035c 4820     		movs	r0, #72
 2422 035e FFF7FEFF 		bl	serial_write
 2423              	.L153:
 581:report.c      ****         if (bit_istrue(ctrl_pin_state,CONTROL_PIN_INDEX_CYCLE_START)) { serial_write('S'); }
 2424              		.loc 1 581 0 is_stmt 1
 2425 0362 97F82D30 		ldrb	r3, [r7, #45]	@ zero_extendqisi2
 2426 0366 03F00403 		and	r3, r3, #4
 2427 036a 002B     		cmp	r3, #0
 2428 036c 02D0     		beq	.L147
 2429              		.loc 1 581 0 is_stmt 0 discriminator 1
 2430 036e 5320     		movs	r0, #83
 2431 0370 FFF7FEFF 		bl	serial_write
 2432              	.L147:
 582:report.c      ****       }
 583:report.c      ****     }
 584:report.c      ****   #endif
 585:report.c      **** 
 586:report.c      ****   #ifdef REPORT_FIELD_WORK_COORD_OFFSET
 587:report.c      ****     if (sys.report_wco_counter > 0) { sys.report_wco_counter--; }
 2433              		.loc 1 587 0 is_stmt 1
 2434 0374 4E4B     		ldr	r3, .L169+16
 2435 0376 1B7B     		ldrb	r3, [r3, #12]	@ zero_extendqisi2
 2436 0378 002B     		cmp	r3, #0
 2437 037a 06D0     		beq	.L154
 2438              		.loc 1 587 0 is_stmt 0 discriminator 1
 2439 037c 4C4B     		ldr	r3, .L169+16
 2440 037e 1B7B     		ldrb	r3, [r3, #12]	@ zero_extendqisi2
 2441 0380 013B     		subs	r3, r3, #1
 2442 0382 DAB2     		uxtb	r2, r3
 2443 0384 4A4B     		ldr	r3, .L169+16
 2444 0386 1A73     		strb	r2, [r3, #12]
 2445 0388 1AE0     		b	.L155
 2446              	.L154:
 588:report.c      ****     else {
 589:report.c      ****       if (sys.state & (STATE_HOMING | STATE_CYCLE | STATE_HOLD | STATE_JOG | STATE_SAFETY_DOOR)) {
 2447              		.loc 1 589 0 is_stmt 1
 2448 038a 494B     		ldr	r3, .L169+16
 2449 038c 1B78     		ldrb	r3, [r3]	@ zero_extendqisi2
 2450 038e 03F07C03 		and	r3, r3, #124
ARM GAS  C:\Users\barto\AppData\Local\Temp\cc2AQ1Jn.s 			page 56


 2451 0392 002B     		cmp	r3, #0
 2452 0394 03D0     		beq	.L156
 590:report.c      ****         sys.report_wco_counter = (REPORT_WCO_REFRESH_BUSY_COUNT-1); // Reset counter for slow refre
 2453              		.loc 1 590 0
 2454 0396 464B     		ldr	r3, .L169+16
 2455 0398 1D22     		movs	r2, #29
 2456 039a 1A73     		strb	r2, [r3, #12]
 2457 039c 02E0     		b	.L157
 2458              	.L156:
 591:report.c      ****       } else { sys.report_wco_counter = (REPORT_WCO_REFRESH_IDLE_COUNT-1); }
 2459              		.loc 1 591 0
 2460 039e 444B     		ldr	r3, .L169+16
 2461 03a0 0922     		movs	r2, #9
 2462 03a2 1A73     		strb	r2, [r3, #12]
 2463              	.L157:
 592:report.c      ****       if (sys.report_ovr_counter == 0) { sys.report_ovr_counter = 1; } // Set override on next repo
 2464              		.loc 1 592 0
 2465 03a4 424B     		ldr	r3, .L169+16
 2466 03a6 DB7A     		ldrb	r3, [r3, #11]	@ zero_extendqisi2
 2467 03a8 002B     		cmp	r3, #0
 2468 03aa 02D1     		bne	.L158
 2469              		.loc 1 592 0 is_stmt 0 discriminator 1
 2470 03ac 404B     		ldr	r3, .L169+16
 2471 03ae 0122     		movs	r2, #1
 2472 03b0 DA72     		strb	r2, [r3, #11]
 2473              	.L158:
 593:report.c      ****       printPgmString(PSTR("|WCO:"));
 2474              		.loc 1 593 0 is_stmt 1
 2475 03b2 4148     		ldr	r0, .L169+24
 2476 03b4 FFF7FEFF 		bl	printPgmString
 594:report.c      ****       report_util_axis_values(wco);
 2477              		.loc 1 594 0
 2478 03b8 3B1D     		adds	r3, r7, #4
 2479 03ba 1846     		mov	r0, r3
 2480 03bc FFF7FEFF 		bl	report_util_axis_values
 2481              	.L155:
 595:report.c      ****     }
 596:report.c      ****   #endif
 597:report.c      **** 
 598:report.c      ****   #ifdef REPORT_FIELD_OVERRIDES
 599:report.c      ****     if (sys.report_ovr_counter > 0) { sys.report_ovr_counter--; }
 2482              		.loc 1 599 0
 2483 03c0 3B4B     		ldr	r3, .L169+16
 2484 03c2 DB7A     		ldrb	r3, [r3, #11]	@ zero_extendqisi2
 2485 03c4 002B     		cmp	r3, #0
 2486 03c6 06D0     		beq	.L159
 2487              		.loc 1 599 0 is_stmt 0 discriminator 1
 2488 03c8 394B     		ldr	r3, .L169+16
 2489 03ca DB7A     		ldrb	r3, [r3, #11]	@ zero_extendqisi2
 2490 03cc 013B     		subs	r3, r3, #1
 2491 03ce DAB2     		uxtb	r2, r3
 2492 03d0 374B     		ldr	r3, .L169+16
 2493 03d2 DA72     		strb	r2, [r3, #11]
 2494 03d4 5AE0     		b	.L160
 2495              	.L159:
 2496              	.LBB2:
 600:report.c      ****     else {
ARM GAS  C:\Users\barto\AppData\Local\Temp\cc2AQ1Jn.s 			page 57


 601:report.c      ****       if (sys.state & (STATE_HOMING | STATE_CYCLE | STATE_HOLD | STATE_JOG | STATE_SAFETY_DOOR)) {
 2497              		.loc 1 601 0 is_stmt 1
 2498 03d6 364B     		ldr	r3, .L169+16
 2499 03d8 1B78     		ldrb	r3, [r3]	@ zero_extendqisi2
 2500 03da 03F07C03 		and	r3, r3, #124
 2501 03de 002B     		cmp	r3, #0
 2502 03e0 03D0     		beq	.L161
 602:report.c      ****         sys.report_ovr_counter = (REPORT_OVR_REFRESH_BUSY_COUNT-1); // Reset counter for slow refre
 2503              		.loc 1 602 0
 2504 03e2 334B     		ldr	r3, .L169+16
 2505 03e4 1322     		movs	r2, #19
 2506 03e6 DA72     		strb	r2, [r3, #11]
 2507 03e8 02E0     		b	.L162
 2508              	.L161:
 603:report.c      ****       } else { sys.report_ovr_counter = (REPORT_OVR_REFRESH_IDLE_COUNT-1); }
 2509              		.loc 1 603 0
 2510 03ea 314B     		ldr	r3, .L169+16
 2511 03ec 0922     		movs	r2, #9
 2512 03ee DA72     		strb	r2, [r3, #11]
 2513              	.L162:
 604:report.c      ****       printPgmString(PSTR("|Ov:"));
 2514              		.loc 1 604 0
 2515 03f0 3248     		ldr	r0, .L169+28
 2516 03f2 FFF7FEFF 		bl	printPgmString
 605:report.c      ****       print_uint8_base10(sys.f_override);
 2517              		.loc 1 605 0
 2518 03f6 2E4B     		ldr	r3, .L169+16
 2519 03f8 DB79     		ldrb	r3, [r3, #7]	@ zero_extendqisi2
 2520 03fa 1846     		mov	r0, r3
 2521 03fc FFF7FEFF 		bl	print_uint8_base10
 606:report.c      ****       serial_write(',');
 2522              		.loc 1 606 0
 2523 0400 2C20     		movs	r0, #44
 2524 0402 FFF7FEFF 		bl	serial_write
 607:report.c      ****       print_uint8_base10(sys.r_override);
 2525              		.loc 1 607 0
 2526 0406 2A4B     		ldr	r3, .L169+16
 2527 0408 1B7A     		ldrb	r3, [r3, #8]	@ zero_extendqisi2
 2528 040a 1846     		mov	r0, r3
 2529 040c FFF7FEFF 		bl	print_uint8_base10
 608:report.c      ****       serial_write(',');
 2530              		.loc 1 608 0
 2531 0410 2C20     		movs	r0, #44
 2532 0412 FFF7FEFF 		bl	serial_write
 609:report.c      ****       print_uint8_base10(sys.spindle_speed_ovr);
 2533              		.loc 1 609 0
 2534 0416 264B     		ldr	r3, .L169+16
 2535 0418 5B7A     		ldrb	r3, [r3, #9]	@ zero_extendqisi2
 2536 041a 1846     		mov	r0, r3
 2537 041c FFF7FEFF 		bl	print_uint8_base10
 610:report.c      **** 
 611:report.c      ****       uint8_t sp_state = spindle_get_state();
 2538              		.loc 1 611 0
 2539 0420 FFF7FEFF 		bl	spindle_get_state
 2540 0424 0346     		mov	r3, r0
 2541 0426 87F82B30 		strb	r3, [r7, #43]
 612:report.c      ****       uint8_t cl_state = coolant_get_state();
ARM GAS  C:\Users\barto\AppData\Local\Temp\cc2AQ1Jn.s 			page 58


 2542              		.loc 1 612 0
 2543 042a FFF7FEFF 		bl	coolant_get_state
 2544 042e 0346     		mov	r3, r0
 2545 0430 87F82A30 		strb	r3, [r7, #42]
 613:report.c      ****       if (sp_state || cl_state) {
 2546              		.loc 1 613 0
 2547 0434 97F82B30 		ldrb	r3, [r7, #43]	@ zero_extendqisi2
 2548 0438 002B     		cmp	r3, #0
 2549 043a 03D1     		bne	.L163
 2550              		.loc 1 613 0 is_stmt 0 discriminator 1
 2551 043c 97F82A30 		ldrb	r3, [r7, #42]	@ zero_extendqisi2
 2552 0440 002B     		cmp	r3, #0
 2553 0442 23D0     		beq	.L160
 2554              	.L163:
 614:report.c      ****         printPgmString(PSTR("|A:"));
 2555              		.loc 1 614 0 is_stmt 1
 2556 0444 1E48     		ldr	r0, .L169+32
 2557 0446 FFF7FEFF 		bl	printPgmString
 615:report.c      ****         if (sp_state) { // != SPINDLE_STATE_DISABLE
 2558              		.loc 1 615 0
 2559 044a 97F82B30 		ldrb	r3, [r7, #43]	@ zero_extendqisi2
 2560 044e 002B     		cmp	r3, #0
 2561 0450 0AD0     		beq	.L164
 616:report.c      ****           #ifdef VARIABLE_SPINDLE 
 617:report.c      ****             #ifdef USE_SPINDLE_DIR_AS_ENABLE_PIN
 618:report.c      ****               serial_write('S'); // CW
 619:report.c      ****             #else
 620:report.c      ****               if (sp_state == SPINDLE_STATE_CW) { serial_write('S'); } // CW
 2562              		.loc 1 620 0
 2563 0452 97F82B30 		ldrb	r3, [r7, #43]	@ zero_extendqisi2
 2564 0456 012B     		cmp	r3, #1
 2565 0458 03D1     		bne	.L165
 2566              		.loc 1 620 0 is_stmt 0 discriminator 1
 2567 045a 5320     		movs	r0, #83
 2568 045c FFF7FEFF 		bl	serial_write
 2569 0460 02E0     		b	.L164
 2570              	.L165:
 621:report.c      ****               else { serial_write('C'); } // CCW
 2571              		.loc 1 621 0 is_stmt 1
 2572 0462 4320     		movs	r0, #67
 2573 0464 FFF7FEFF 		bl	serial_write
 2574              	.L164:
 622:report.c      ****             #endif
 623:report.c      ****           #else
 624:report.c      ****             if (sp_state & SPINDLE_STATE_CW) { serial_write('S'); } // CW
 625:report.c      ****             else { serial_write('C'); } // CCW
 626:report.c      ****           #endif
 627:report.c      ****         }
 628:report.c      ****         if (cl_state & COOLANT_STATE_FLOOD) { serial_write('F'); }
 2575              		.loc 1 628 0
 2576 0468 97F82A30 		ldrb	r3, [r7, #42]	@ zero_extendqisi2
 2577 046c 03F00103 		and	r3, r3, #1
 2578 0470 002B     		cmp	r3, #0
 2579 0472 02D0     		beq	.L166
 2580              		.loc 1 628 0 is_stmt 0 discriminator 1
 2581 0474 4620     		movs	r0, #70
 2582 0476 FFF7FEFF 		bl	serial_write
ARM GAS  C:\Users\barto\AppData\Local\Temp\cc2AQ1Jn.s 			page 59


 2583              	.L166:
 629:report.c      ****         #ifdef ENABLE_M7
 630:report.c      ****           if (cl_state & COOLANT_STATE_MIST) { serial_write('M'); }
 2584              		.loc 1 630 0 is_stmt 1
 2585 047a 97F82A30 		ldrb	r3, [r7, #42]	@ zero_extendqisi2
 2586 047e 03F00203 		and	r3, r3, #2
 2587 0482 002B     		cmp	r3, #0
 2588 0484 02D0     		beq	.L160
 2589              		.loc 1 630 0 is_stmt 0 discriminator 1
 2590 0486 4D20     		movs	r0, #77
 2591 0488 FFF7FEFF 		bl	serial_write
 2592              	.L160:
 2593              	.LBE2:
 631:report.c      ****         #endif
 632:report.c      ****       }  
 633:report.c      ****     }
 634:report.c      ****   #endif
 635:report.c      **** 
 636:report.c      ****   serial_write('>');
 2594              		.loc 1 636 0 is_stmt 1
 2595 048c 3E20     		movs	r0, #62
 2596 048e FFF7FEFF 		bl	serial_write
 637:report.c      ****   report_util_line_feed();
 2597              		.loc 1 637 0
 2598 0492 FFF7FEFF 		bl	report_util_line_feed
 638:report.c      **** }
 2599              		.loc 1 638 0
 2600 0496 00BF     		nop
 2601 0498 3437     		adds	r7, r7, #52
 2602              		.cfi_def_cfa_offset 12
 2603 049a BD46     		mov	sp, r7
 2604              		.cfi_def_cfa_register 13
 2605              		@ sp needed
 2606 049c 90BD     		pop	{r4, r7, pc}
 2607              	.L170:
 2608 049e 00BF     		.align	2
 2609              	.L169:
 2610 04a0 2C020000 		.word	.LC53
 2611 04a4 00000000 		.word	settings
 2612 04a8 34020000 		.word	.LC54
 2613 04ac 3C020000 		.word	.LC55
 2614 04b0 00000000 		.word	sys
 2615 04b4 44020000 		.word	.LC56
 2616 04b8 4C020000 		.word	.LC57
 2617 04bc 54020000 		.word	.LC58
 2618 04c0 5C020000 		.word	.LC59
 2619              		.cfi_endproc
 2620              	.LFE86:
 2621              		.size	report_realtime_status, .-report_realtime_status
 2622              		.text
 2623              	.Letext0:
 2624              		.file 2 "c:\\program files (x86)\\cypress\\psoc creator\\4.2\\psoc creator\\import\\gnu\\arm\\5.4.
 2625              		.file 3 "c:\\program files (x86)\\cypress\\psoc creator\\4.2\\psoc creator\\import\\gnu\\arm\\5.4.
 2626              		.file 4 "settings.h"
 2627              		.file 5 "system.h"
 2628              		.file 6 "gcode.h"
 2629              		.file 7 "Generated_Source\\PSoC5/core_cm3.h"
ARM GAS  C:\Users\barto\AppData\Local\Temp\cc2AQ1Jn.s 			page 60

