ARM GAS  C:\Users\barto\AppData\Local\Temp\ccnZJLYH.s 			page 1


   1              		.syntax unified
   2              		.cpu cortex-m3
   3              		.fpu softvfp
   4              		.eabi_attribute 20, 1
   5              		.eabi_attribute 21, 1
   6              		.eabi_attribute 23, 3
   7              		.eabi_attribute 24, 1
   8              		.eabi_attribute 25, 1
   9              		.eabi_attribute 26, 1
  10              		.eabi_attribute 30, 6
  11              		.eabi_attribute 34, 1
  12              		.eabi_attribute 18, 4
  13              		.thumb
  14              		.syntax unified
  15              		.file	"serial.c"
  16              		.text
  17              	.Ltext0:
  18              		.cfi_sections	.debug_frame
  19              		.comm	sys_position,12,4
  20              		.comm	sys_probe_position,12,4
  21              		.comm	sys_probe_state,1,1
  22              		.comm	sys_rt_exec_state,1,1
  23              		.comm	sys_rt_exec_alarm,1,1
  24              		.comm	sys_rt_exec_motion_override,1,1
  25              		.comm	sys_rt_exec_accessory_override,1,1
  26              		.comm	serial_rx_buffer,128,4
  27              		.global	serial_rx_buffer_head
  28              		.bss
  29              		.type	serial_rx_buffer_head, %object
  30              		.size	serial_rx_buffer_head, 1
  31              	serial_rx_buffer_head:
  32 0000 00       		.space	1
  33              		.global	serial_rx_buffer_tail
  34              		.type	serial_rx_buffer_tail, %object
  35              		.size	serial_rx_buffer_tail, 1
  36              	serial_rx_buffer_tail:
  37 0001 00       		.space	1
  38              		.section	.text.serial_get_rx_buffer_available,"ax",%progbits
  39              		.align	2
  40              		.global	serial_get_rx_buffer_available
  41              		.thumb
  42              		.thumb_func
  43              		.type	serial_get_rx_buffer_available, %function
  44              	serial_get_rx_buffer_available:
  45              	.LFB64:
  46              		.file 1 "serial.c"
   1:serial.c      **** /*
   2:serial.c      ****   serial.c - Low level functions for sending and recieving bytes via the serial port
   3:serial.c      ****   Part of Grbl
   4:serial.c      **** 
   5:serial.c      ****   Copyright (c) 2011-2015 Sungeun K. Jeon
   6:serial.c      ****   Copyright (c) 2009-2011 Simen Svale Skogsrud
   7:serial.c      ****       Updated For PSOC BJD 2017
   8:serial.c      **** 
   9:serial.c      ****   Grbl is free software: you can redistribute it and/or modify
  10:serial.c      ****   it under the terms of the GNU General Public License as published by
  11:serial.c      ****   the Free Software Foundation, either version 3 of the License, or
ARM GAS  C:\Users\barto\AppData\Local\Temp\ccnZJLYH.s 			page 2


  12:serial.c      ****   (at your option) any later version.
  13:serial.c      **** 
  14:serial.c      ****   Grbl is distributed in the hope that it will be useful,
  15:serial.c      ****   but WITHOUT ANY WARRANTY; without even the implied warranty of
  16:serial.c      ****   MERCHANTABILITY or FITNESS FOR A PARTICULAR PURPOSE.  See the
  17:serial.c      ****   GNU General Public License for more details.
  18:serial.c      **** 
  19:serial.c      ****   You should have received a copy of the GNU General Public License
  20:serial.c      ****   along with Grbl.  If not, see <http://www.gnu.org/licenses/>.
  21:serial.c      **** */
  22:serial.c      **** 
  23:serial.c      **** 
  24:serial.c      **** #include "grbl.h"
  25:serial.c      **** 
  26:serial.c      **** #define RX_RING_BUFFER (RX_BUFFER_SIZE+1)
  27:serial.c      **** #define TX_RING_BUFFER (TX_BUFFER_SIZE+1)
  28:serial.c      **** 
  29:serial.c      **** uint8_t serial_rx_buffer[RX_BUFFER_SIZE];
  30:serial.c      **** uint8_t serial_rx_buffer_head = 0;
  31:serial.c      **** volatile uint8_t serial_rx_buffer_tail = 0;
  32:serial.c      **** 
  33:serial.c      **** // no grbl +TX buffer required for PSoc verison
  34:serial.c      **** 
  35:serial.c      **** // Returns the number of bytes available in the RX serial buffer.
  36:serial.c      **** uint8_t serial_get_rx_buffer_available()
  37:serial.c      **** {
  47              		.loc 1 37 0
  48              		.cfi_startproc
  49              		@ args = 0, pretend = 0, frame = 8
  50              		@ frame_needed = 1, uses_anonymous_args = 0
  51              		@ link register save eliminated.
  52 0000 80B4     		push	{r7}
  53              		.cfi_def_cfa_offset 4
  54              		.cfi_offset 7, -4
  55 0002 83B0     		sub	sp, sp, #12
  56              		.cfi_def_cfa_offset 16
  57 0004 00AF     		add	r7, sp, #0
  58              		.cfi_def_cfa_register 7
  38:serial.c      ****   uint8_t rtail = serial_rx_buffer_tail; // Copy to limit multiple calls to volatile
  59              		.loc 1 38 0
  60 0006 0E4B     		ldr	r3, .L4
  61 0008 1B78     		ldrb	r3, [r3]
  62 000a FB71     		strb	r3, [r7, #7]
  39:serial.c      ****   if (serial_rx_buffer_head >= rtail) { return(RX_BUFFER_SIZE - (serial_rx_buffer_head-rtail)); }
  63              		.loc 1 39 0
  64 000c 0D4B     		ldr	r3, .L4+4
  65 000e 1B78     		ldrb	r3, [r3]	@ zero_extendqisi2
  66 0010 FA79     		ldrb	r2, [r7, #7]	@ zero_extendqisi2
  67 0012 9A42     		cmp	r2, r3
  68 0014 07D8     		bhi	.L2
  69              		.loc 1 39 0 is_stmt 0 discriminator 1
  70 0016 0B4B     		ldr	r3, .L4+4
  71 0018 1B78     		ldrb	r3, [r3]	@ zero_extendqisi2
  72 001a FA79     		ldrb	r2, [r7, #7]
  73 001c D31A     		subs	r3, r2, r3
  74 001e DBB2     		uxtb	r3, r3
  75 0020 803B     		subs	r3, r3, #128
ARM GAS  C:\Users\barto\AppData\Local\Temp\ccnZJLYH.s 			page 3


  76 0022 DBB2     		uxtb	r3, r3
  77 0024 06E0     		b	.L3
  78              	.L2:
  40:serial.c      ****   return((rtail-serial_rx_buffer_head-1));
  79              		.loc 1 40 0 is_stmt 1
  80 0026 074B     		ldr	r3, .L4+4
  81 0028 1B78     		ldrb	r3, [r3]	@ zero_extendqisi2
  82 002a FA79     		ldrb	r2, [r7, #7]
  83 002c D31A     		subs	r3, r2, r3
  84 002e DBB2     		uxtb	r3, r3
  85 0030 013B     		subs	r3, r3, #1
  86 0032 DBB2     		uxtb	r3, r3
  87              	.L3:
  41:serial.c      **** }
  88              		.loc 1 41 0
  89 0034 1846     		mov	r0, r3
  90 0036 0C37     		adds	r7, r7, #12
  91              		.cfi_def_cfa_offset 4
  92 0038 BD46     		mov	sp, r7
  93              		.cfi_def_cfa_register 13
  94              		@ sp needed
  95 003a 80BC     		pop	{r7}
  96              		.cfi_restore 7
  97              		.cfi_def_cfa_offset 0
  98 003c 7047     		bx	lr
  99              	.L5:
 100 003e 00BF     		.align	2
 101              	.L4:
 102 0040 00000000 		.word	serial_rx_buffer_tail
 103 0044 00000000 		.word	serial_rx_buffer_head
 104              		.cfi_endproc
 105              	.LFE64:
 106              		.size	serial_get_rx_buffer_available, .-serial_get_rx_buffer_available
 107              		.section	.text.serial_get_rx_buffer_count,"ax",%progbits
 108              		.align	2
 109              		.global	serial_get_rx_buffer_count
 110              		.thumb
 111              		.thumb_func
 112              		.type	serial_get_rx_buffer_count, %function
 113              	serial_get_rx_buffer_count:
 114              	.LFB65:
  42:serial.c      **** 
  43:serial.c      **** // Returns the number of bytes used in the RX serial buffer.
  44:serial.c      **** uint8_t serial_get_rx_buffer_count()
  45:serial.c      **** {
 115              		.loc 1 45 0
 116              		.cfi_startproc
 117              		@ args = 0, pretend = 0, frame = 8
 118              		@ frame_needed = 1, uses_anonymous_args = 0
 119              		@ link register save eliminated.
 120 0000 80B4     		push	{r7}
 121              		.cfi_def_cfa_offset 4
 122              		.cfi_offset 7, -4
 123 0002 83B0     		sub	sp, sp, #12
 124              		.cfi_def_cfa_offset 16
 125 0004 00AF     		add	r7, sp, #0
 126              		.cfi_def_cfa_register 7
ARM GAS  C:\Users\barto\AppData\Local\Temp\ccnZJLYH.s 			page 4


  46:serial.c      ****   uint8_t rtail = serial_rx_buffer_tail; // Copy to limit multiple calls to volatile
 127              		.loc 1 46 0
 128 0006 0D4B     		ldr	r3, .L9
 129 0008 1B78     		ldrb	r3, [r3]
 130 000a FB71     		strb	r3, [r7, #7]
  47:serial.c      ****   if (serial_rx_buffer_head >= rtail) { return(serial_rx_buffer_head-rtail); }
 131              		.loc 1 47 0
 132 000c 0C4B     		ldr	r3, .L9+4
 133 000e 1B78     		ldrb	r3, [r3]	@ zero_extendqisi2
 134 0010 FA79     		ldrb	r2, [r7, #7]	@ zero_extendqisi2
 135 0012 9A42     		cmp	r2, r3
 136 0014 05D8     		bhi	.L7
 137              		.loc 1 47 0 is_stmt 0 discriminator 1
 138 0016 0A4B     		ldr	r3, .L9+4
 139 0018 1A78     		ldrb	r2, [r3]	@ zero_extendqisi2
 140 001a FB79     		ldrb	r3, [r7, #7]
 141 001c D31A     		subs	r3, r2, r3
 142 001e DBB2     		uxtb	r3, r3
 143 0020 06E0     		b	.L8
 144              	.L7:
  48:serial.c      ****   return (RX_BUFFER_SIZE - (rtail-serial_rx_buffer_head));
 145              		.loc 1 48 0 is_stmt 1
 146 0022 074B     		ldr	r3, .L9+4
 147 0024 1A78     		ldrb	r2, [r3]	@ zero_extendqisi2
 148 0026 FB79     		ldrb	r3, [r7, #7]
 149 0028 D31A     		subs	r3, r2, r3
 150 002a DBB2     		uxtb	r3, r3
 151 002c 803B     		subs	r3, r3, #128
 152 002e DBB2     		uxtb	r3, r3
 153              	.L8:
  49:serial.c      **** }
 154              		.loc 1 49 0
 155 0030 1846     		mov	r0, r3
 156 0032 0C37     		adds	r7, r7, #12
 157              		.cfi_def_cfa_offset 4
 158 0034 BD46     		mov	sp, r7
 159              		.cfi_def_cfa_register 13
 160              		@ sp needed
 161 0036 80BC     		pop	{r7}
 162              		.cfi_restore 7
 163              		.cfi_def_cfa_offset 0
 164 0038 7047     		bx	lr
 165              	.L10:
 166 003a 00BF     		.align	2
 167              	.L9:
 168 003c 00000000 		.word	serial_rx_buffer_tail
 169 0040 00000000 		.word	serial_rx_buffer_head
 170              		.cfi_endproc
 171              	.LFE65:
 172              		.size	serial_get_rx_buffer_count, .-serial_get_rx_buffer_count
 173              		.section	.text.serial_init,"ax",%progbits
 174              		.align	2
 175              		.global	serial_init
 176              		.thumb
 177              		.thumb_func
 178              		.type	serial_init, %function
 179              	serial_init:
ARM GAS  C:\Users\barto\AppData\Local\Temp\ccnZJLYH.s 			page 5


 180              	.LFB66:
  50:serial.c      **** 
  51:serial.c      **** // uint8_t serial_get_tx_buffer_count() // not req for PSoc
  52:serial.c      **** 
  53:serial.c      **** 
  54:serial.c      **** void serial_init()
  55:serial.c      **** {
 181              		.loc 1 55 0
 182              		.cfi_startproc
 183              		@ args = 0, pretend = 0, frame = 0
 184              		@ frame_needed = 1, uses_anonymous_args = 0
 185 0000 80B5     		push	{r7, lr}
 186              		.cfi_def_cfa_offset 8
 187              		.cfi_offset 7, -8
 188              		.cfi_offset 14, -4
 189 0002 00AF     		add	r7, sp, #0
 190              		.cfi_def_cfa_register 7
  56:serial.c      ****   // Start the component
  57:serial.c      ****    usb_uart_init();
 191              		.loc 1 57 0
 192 0004 FFF7FEFF 		bl	usb_uart_init
  58:serial.c      ****  
  59:serial.c      **** }
 193              		.loc 1 59 0
 194 0008 00BF     		nop
 195 000a 80BD     		pop	{r7, pc}
 196              		.cfi_endproc
 197              	.LFE66:
 198              		.size	serial_init, .-serial_init
 199              		.section	.text.serial_write,"ax",%progbits
 200              		.align	2
 201              		.global	serial_write
 202              		.thumb
 203              		.thumb_func
 204              		.type	serial_write, %function
 205              	serial_write:
 206              	.LFB67:
  60:serial.c      **** 
  61:serial.c      **** // Writes one byte to the TX serial buffer. Called by main program.
  62:serial.c      **** void serial_write(uint8_t data) {
 207              		.loc 1 62 0
 208              		.cfi_startproc
 209              		@ args = 0, pretend = 0, frame = 8
 210              		@ frame_needed = 1, uses_anonymous_args = 0
 211 0000 80B5     		push	{r7, lr}
 212              		.cfi_def_cfa_offset 8
 213              		.cfi_offset 7, -8
 214              		.cfi_offset 14, -4
 215 0002 82B0     		sub	sp, sp, #8
 216              		.cfi_def_cfa_offset 16
 217 0004 00AF     		add	r7, sp, #0
 218              		.cfi_def_cfa_register 7
 219 0006 0346     		mov	r3, r0
 220 0008 FB71     		strb	r3, [r7, #7]
  63:serial.c      ****   // totally rewritten for PSoc  
  64:serial.c      ****   usb_uart_write(data);
 221              		.loc 1 64 0
ARM GAS  C:\Users\barto\AppData\Local\Temp\ccnZJLYH.s 			page 6


 222 000a FB79     		ldrb	r3, [r7, #7]	@ zero_extendqisi2
 223 000c 1846     		mov	r0, r3
 224 000e FFF7FEFF 		bl	usb_uart_write
  65:serial.c      **** }
 225              		.loc 1 65 0
 226 0012 00BF     		nop
 227 0014 0837     		adds	r7, r7, #8
 228              		.cfi_def_cfa_offset 8
 229 0016 BD46     		mov	sp, r7
 230              		.cfi_def_cfa_register 13
 231              		@ sp needed
 232 0018 80BD     		pop	{r7, pc}
 233              		.cfi_endproc
 234              	.LFE67:
 235              		.size	serial_write, .-serial_write
 236 001a 00BF     		.section	.text.serial_read,"ax",%progbits
 237              		.align	2
 238              		.global	serial_read
 239              		.thumb
 240              		.thumb_func
 241              		.type	serial_read, %function
 242              	serial_read:
 243              	.LFB68:
  66:serial.c      **** 
  67:serial.c      **** 
  68:serial.c      **** 
  69:serial.c      **** // Fetches the first byte in the serial read buffer. Called by main program.
  70:serial.c      **** uint8_t serial_read()
  71:serial.c      **** {
 244              		.loc 1 71 0
 245              		.cfi_startproc
 246              		@ args = 0, pretend = 0, frame = 8
 247              		@ frame_needed = 1, uses_anonymous_args = 0
 248              		@ link register save eliminated.
 249 0000 80B4     		push	{r7}
 250              		.cfi_def_cfa_offset 4
 251              		.cfi_offset 7, -4
 252 0002 83B0     		sub	sp, sp, #12
 253              		.cfi_def_cfa_offset 16
 254 0004 00AF     		add	r7, sp, #0
 255              		.cfi_def_cfa_register 7
  72:serial.c      ****   uint8_t tail = serial_rx_buffer_tail; // Temporary serial_rx_buffer_tail (to optimize for volatil
 256              		.loc 1 72 0
 257 0006 0F4B     		ldr	r3, .L17
 258 0008 1B78     		ldrb	r3, [r3]
 259 000a FB71     		strb	r3, [r7, #7]
  73:serial.c      ****   if (serial_rx_buffer_head == tail) {
 260              		.loc 1 73 0
 261 000c 0E4B     		ldr	r3, .L17+4
 262 000e 1B78     		ldrb	r3, [r3]	@ zero_extendqisi2
 263 0010 FA79     		ldrb	r2, [r7, #7]	@ zero_extendqisi2
 264 0012 9A42     		cmp	r2, r3
 265 0014 01D1     		bne	.L14
  74:serial.c      ****     return SERIAL_NO_DATA;
 266              		.loc 1 74 0
 267 0016 FF23     		movs	r3, #255
 268 0018 0FE0     		b	.L15
ARM GAS  C:\Users\barto\AppData\Local\Temp\ccnZJLYH.s 			page 7


 269              	.L14:
 270              	.LBB2:
  75:serial.c      ****   } else {
  76:serial.c      ****     uint8_t data = serial_rx_buffer[tail];
 271              		.loc 1 76 0
 272 001a FB79     		ldrb	r3, [r7, #7]	@ zero_extendqisi2
 273 001c 0B4A     		ldr	r2, .L17+8
 274 001e D35C     		ldrb	r3, [r2, r3]
 275 0020 BB71     		strb	r3, [r7, #6]
  77:serial.c      **** 
  78:serial.c      ****     tail++;
 276              		.loc 1 78 0
 277 0022 FB79     		ldrb	r3, [r7, #7]	@ zero_extendqisi2
 278 0024 0133     		adds	r3, r3, #1
 279 0026 FB71     		strb	r3, [r7, #7]
  79:serial.c      ****     if (tail == RX_RING_BUFFER) { tail = 0; }
 280              		.loc 1 79 0
 281 0028 FB79     		ldrb	r3, [r7, #7]	@ zero_extendqisi2
 282 002a 812B     		cmp	r3, #129
 283 002c 01D1     		bne	.L16
 284              		.loc 1 79 0 is_stmt 0 discriminator 1
 285 002e 0023     		movs	r3, #0
 286 0030 FB71     		strb	r3, [r7, #7]
 287              	.L16:
  80:serial.c      ****     serial_rx_buffer_tail = tail;
 288              		.loc 1 80 0 is_stmt 1
 289 0032 044A     		ldr	r2, .L17
 290 0034 FB79     		ldrb	r3, [r7, #7]
 291 0036 1370     		strb	r3, [r2]
  81:serial.c      **** 
  82:serial.c      ****     return data;
 292              		.loc 1 82 0
 293 0038 BB79     		ldrb	r3, [r7, #6]	@ zero_extendqisi2
 294              	.L15:
 295              	.LBE2:
  83:serial.c      ****   }
  84:serial.c      **** }
 296              		.loc 1 84 0
 297 003a 1846     		mov	r0, r3
 298 003c 0C37     		adds	r7, r7, #12
 299              		.cfi_def_cfa_offset 4
 300 003e BD46     		mov	sp, r7
 301              		.cfi_def_cfa_register 13
 302              		@ sp needed
 303 0040 80BC     		pop	{r7}
 304              		.cfi_restore 7
 305              		.cfi_def_cfa_offset 0
 306 0042 7047     		bx	lr
 307              	.L18:
 308              		.align	2
 309              	.L17:
 310 0044 00000000 		.word	serial_rx_buffer_tail
 311 0048 00000000 		.word	serial_rx_buffer_head
 312 004c 00000000 		.word	serial_rx_buffer
 313              		.cfi_endproc
 314              	.LFE68:
 315              		.size	serial_read, .-serial_read
ARM GAS  C:\Users\barto\AppData\Local\Temp\ccnZJLYH.s 			page 8


 316              		.section	.text.rx_handler,"ax",%progbits
 317              		.align	2
 318              		.global	rx_handler
 319              		.thumb
 320              		.thumb_func
 321              		.type	rx_handler, %function
 322              	rx_handler:
 323              	.LFB69:
  85:serial.c      **** 
  86:serial.c      **** 
  87:serial.c      **** // this was pulled out of the ISR above so that any serial interface can call it
  88:serial.c      **** void rx_handler(char c)
  89:serial.c      **** {
 324              		.loc 1 89 0
 325              		.cfi_startproc
 326              		@ args = 0, pretend = 0, frame = 16
 327              		@ frame_needed = 1, uses_anonymous_args = 0
 328 0000 80B5     		push	{r7, lr}
 329              		.cfi_def_cfa_offset 8
 330              		.cfi_offset 7, -8
 331              		.cfi_offset 14, -4
 332 0002 84B0     		sub	sp, sp, #16
 333              		.cfi_def_cfa_offset 24
 334 0004 00AF     		add	r7, sp, #0
 335              		.cfi_def_cfa_register 7
 336 0006 0346     		mov	r3, r0
 337 0008 FB71     		strb	r3, [r7, #7]
  90:serial.c      ****   uint8_t data = c;  //UDR0;
 338              		.loc 1 90 0
 339 000a FB79     		ldrb	r3, [r7, #7]
 340 000c BB73     		strb	r3, [r7, #14]
  91:serial.c      ****   uint8_t next_head;
  92:serial.c      ****   
  93:serial.c      ****   // Pick off realtime command characters directly from the serial stream. These characters are
  94:serial.c      ****   // not passed into the buffer, but these set system state flag bits for realtime execution.
  95:serial.c      ****   switch (data) {
 341              		.loc 1 95 0
 342 000e BB7B     		ldrb	r3, [r7, #14]	@ zero_extendqisi2
 343 0010 5E2B     		cmp	r3, #94
 344 0012 1BD0     		beq	.L21
 345 0014 5E2B     		cmp	r3, #94
 346 0016 04DC     		bgt	.L22
 347 0018 212B     		cmp	r3, #33
 348 001a 0FD0     		beq	.L23
 349 001c 3F2B     		cmp	r3, #63
 350 001e 05D0     		beq	.L24
 351 0020 17E0     		b	.L20
 352              	.L22:
 353 0022 7E2B     		cmp	r3, #126
 354 0024 06D0     		beq	.L25
 355 0026 842B     		cmp	r3, #132
 356 0028 0CD0     		beq	.L26
 357 002a 12E0     		b	.L20
 358              	.L24:
  96:serial.c      ****     case CMD_STATUS_REPORT: system_set_exec_state_flag(EXEC_STATUS_REPORT); break; // Set as true
 359              		.loc 1 96 0
 360 002c 0120     		movs	r0, #1
ARM GAS  C:\Users\barto\AppData\Local\Temp\ccnZJLYH.s 			page 9


 361 002e FFF7FEFF 		bl	system_set_exec_state_flag
 362 0032 27E0     		b	.L27
 363              	.L25:
  97:serial.c      ****     case CMD_CYCLE_START:   system_set_exec_state_flag(EXEC_CYCLE_START); break; // Set as true
 364              		.loc 1 97 0
 365 0034 0220     		movs	r0, #2
 366 0036 FFF7FEFF 		bl	system_set_exec_state_flag
 367 003a 23E0     		b	.L27
 368              	.L23:
  98:serial.c      ****     case CMD_FEED_HOLD:     system_set_exec_state_flag(EXEC_FEED_HOLD); break; // Set as true
 369              		.loc 1 98 0
 370 003c 0820     		movs	r0, #8
 371 003e FFF7FEFF 		bl	system_set_exec_state_flag
 372 0042 1FE0     		b	.L27
 373              	.L26:
  99:serial.c      ****     case CMD_SAFETY_DOOR:   system_set_exec_state_flag(EXEC_SAFETY_DOOR); break; // Set as true
 374              		.loc 1 99 0
 375 0044 2020     		movs	r0, #32
 376 0046 FFF7FEFF 		bl	system_set_exec_state_flag
 377 004a 1BE0     		b	.L27
 378              	.L21:
 100:serial.c      ****     case CMD_RESET:         mc_reset(); break; // Call motion control reset routine.
 379              		.loc 1 100 0
 380 004c FFF7FEFF 		bl	mc_reset
 381 0050 18E0     		b	.L27
 382              	.L20:
 101:serial.c      ****     default: // Write character to buffer    
 102:serial.c      ****       next_head = serial_rx_buffer_head + 1;
 383              		.loc 1 102 0
 384 0052 0E4B     		ldr	r3, .L30
 385 0054 1B78     		ldrb	r3, [r3]	@ zero_extendqisi2
 386 0056 0133     		adds	r3, r3, #1
 387 0058 FB73     		strb	r3, [r7, #15]
 103:serial.c      ****       if (next_head == RX_BUFFER_SIZE) { next_head = 0; }
 388              		.loc 1 103 0
 389 005a FB7B     		ldrb	r3, [r7, #15]	@ zero_extendqisi2
 390 005c 802B     		cmp	r3, #128
 391 005e 01D1     		bne	.L28
 392              		.loc 1 103 0 is_stmt 0 discriminator 1
 393 0060 0023     		movs	r3, #0
 394 0062 FB73     		strb	r3, [r7, #15]
 395              	.L28:
 104:serial.c      ****     
 105:serial.c      ****       // Write data to buffer unless it is full.
 106:serial.c      ****       if (next_head != serial_rx_buffer_tail) {
 396              		.loc 1 106 0 is_stmt 1
 397 0064 0A4B     		ldr	r3, .L30+4
 398 0066 1B78     		ldrb	r3, [r3]
 399 0068 DBB2     		uxtb	r3, r3
 400 006a FA7B     		ldrb	r2, [r7, #15]	@ zero_extendqisi2
 401 006c 9A42     		cmp	r2, r3
 402 006e 09D0     		beq	.L29
 107:serial.c      ****         serial_rx_buffer[serial_rx_buffer_head] = data;
 403              		.loc 1 107 0
 404 0070 064B     		ldr	r3, .L30
 405 0072 1B78     		ldrb	r3, [r3]	@ zero_extendqisi2
 406 0074 1946     		mov	r1, r3
ARM GAS  C:\Users\barto\AppData\Local\Temp\ccnZJLYH.s 			page 10


 407 0076 074A     		ldr	r2, .L30+8
 408 0078 BB7B     		ldrb	r3, [r7, #14]
 409 007a 5354     		strb	r3, [r2, r1]
 108:serial.c      ****         serial_rx_buffer_head = next_head;
 410              		.loc 1 108 0
 411 007c 034A     		ldr	r2, .L30
 412 007e FB7B     		ldrb	r3, [r7, #15]
 413 0080 1370     		strb	r3, [r2]
 109:serial.c      ****       }
 110:serial.c      ****       //TODO: else alarm on overflow?
 111:serial.c      ****   }
 112:serial.c      **** }
 414              		.loc 1 112 0
 415 0082 FFE7     		b	.L29
 416              	.L27:
 417              	.L29:
 418 0084 00BF     		nop
 419 0086 1037     		adds	r7, r7, #16
 420              		.cfi_def_cfa_offset 8
 421 0088 BD46     		mov	sp, r7
 422              		.cfi_def_cfa_register 13
 423              		@ sp needed
 424 008a 80BD     		pop	{r7, pc}
 425              	.L31:
 426              		.align	2
 427              	.L30:
 428 008c 00000000 		.word	serial_rx_buffer_head
 429 0090 00000000 		.word	serial_rx_buffer_tail
 430 0094 00000000 		.word	serial_rx_buffer
 431              		.cfi_endproc
 432              	.LFE69:
 433              		.size	rx_handler, .-rx_handler
 434              		.section	.text.serial_reset_read_buffer,"ax",%progbits
 435              		.align	2
 436              		.global	serial_reset_read_buffer
 437              		.thumb
 438              		.thumb_func
 439              		.type	serial_reset_read_buffer, %function
 440              	serial_reset_read_buffer:
 441              	.LFB70:
 113:serial.c      **** 
 114:serial.c      **** 
 115:serial.c      **** 
 116:serial.c      **** void serial_reset_read_buffer()
 117:serial.c      **** {
 442              		.loc 1 117 0
 443              		.cfi_startproc
 444              		@ args = 0, pretend = 0, frame = 0
 445              		@ frame_needed = 1, uses_anonymous_args = 0
 446              		@ link register save eliminated.
 447 0000 80B4     		push	{r7}
 448              		.cfi_def_cfa_offset 4
 449              		.cfi_offset 7, -4
 450 0002 00AF     		add	r7, sp, #0
 451              		.cfi_def_cfa_register 7
 118:serial.c      ****   serial_rx_buffer_tail = serial_rx_buffer_head;
 452              		.loc 1 118 0
ARM GAS  C:\Users\barto\AppData\Local\Temp\ccnZJLYH.s 			page 11


 453 0004 034B     		ldr	r3, .L33
 454 0006 1A78     		ldrb	r2, [r3]	@ zero_extendqisi2
 455 0008 034B     		ldr	r3, .L33+4
 456 000a 1A70     		strb	r2, [r3]
 119:serial.c      **** }
 457              		.loc 1 119 0
 458 000c 00BF     		nop
 459 000e BD46     		mov	sp, r7
 460              		.cfi_def_cfa_register 13
 461              		@ sp needed
 462 0010 80BC     		pop	{r7}
 463              		.cfi_restore 7
 464              		.cfi_def_cfa_offset 0
 465 0012 7047     		bx	lr
 466              	.L34:
 467              		.align	2
 468              	.L33:
 469 0014 00000000 		.word	serial_rx_buffer_head
 470 0018 00000000 		.word	serial_rx_buffer_tail
 471              		.cfi_endproc
 472              	.LFE70:
 473              		.size	serial_reset_read_buffer, .-serial_reset_read_buffer
 474              		.text
 475              	.Letext0:
 476              		.file 2 "c:\\program files (x86)\\cypress\\psoc creator\\4.2\\psoc creator\\import\\gnu\\arm\\5.4.
 477              		.file 3 "c:\\program files (x86)\\cypress\\psoc creator\\4.2\\psoc creator\\import\\gnu\\arm\\5.4.
 478              		.file 4 "Generated_Source\\PSoC5/core_cm3.h"
 479              		.file 5 "system.h"