ARM GAS  C:\Users\barto\AppData\Local\Temp\ccAE0yU8.s 			page 1


   1              		.syntax unified
   2              		.cpu cortex-m3
   3              		.fpu softvfp
   4              		.eabi_attribute 20, 1
   5              		.eabi_attribute 21, 1
   6              		.eabi_attribute 23, 3
   7              		.eabi_attribute 24, 1
   8              		.eabi_attribute 25, 1
   9              		.eabi_attribute 26, 1
  10              		.eabi_attribute 30, 6
  11              		.eabi_attribute 34, 1
  12              		.eabi_attribute 18, 4
  13              		.thumb
  14              		.syntax unified
  15              		.file	"spindle_control.c"
  16              		.text
  17              	.Ltext0:
  18              		.cfi_sections	.debug_frame
  19              		.comm	sys_position,12,4
  20              		.comm	sys_probe_position,12,4
  21              		.comm	sys_probe_state,1,1
  22              		.comm	sys_rt_exec_state,1,1
  23              		.comm	sys_rt_exec_alarm,1,1
  24              		.comm	sys_rt_exec_motion_override,1,1
  25              		.comm	sys_rt_exec_accessory_override,1,1
  26              		.bss
  27              		.align	2
  28              	pwm_gradient:
  29 0000 00000000 		.space	4
  30              		.global	__aeabi_fsub
  31              		.global	__aeabi_fdiv
  32              		.section	.text.spindle_init,"ax",%progbits
  33              		.align	2
  34              		.global	spindle_init
  35              		.thumb
  36              		.thumb_func
  37              		.type	spindle_init, %function
  38              	spindle_init:
  39              	.LFB64:
  40              		.file 1 "spindle_control.c"
   1:spindle_control.c **** /*
   2:spindle_control.c ****   spindle_control.c - spindle control methods
   3:spindle_control.c ****   Part of Grbl
   4:spindle_control.c **** 
   5:spindle_control.c ****   Copyright (c) 2012-2016 Sungeun K. Jeon for Gnea Research LLC
   6:spindle_control.c ****   Copyright (c) 2009-2011 Simen Svale Skogsrud
   7:spindle_control.c ****       Updated For PSOC BJD 2017
   8:spindle_control.c **** 
   9:spindle_control.c ****   Grbl is free software: you can redistribute it and/or modify
  10:spindle_control.c ****   it under the terms of the GNU General Public License as published by
  11:spindle_control.c ****   the Free Software Foundation, either version 3 of the License, or
  12:spindle_control.c ****   (at your option) any later version.
  13:spindle_control.c **** 
  14:spindle_control.c ****   Grbl is distributed in the hope that it will be useful,
  15:spindle_control.c ****   but WITHOUT ANY WARRANTY; without even the implied warranty of
  16:spindle_control.c ****   MERCHANTABILITY or FITNESS FOR A PARTICULAR PURPOSE.  See the
  17:spindle_control.c ****   GNU General Public License for more details.
ARM GAS  C:\Users\barto\AppData\Local\Temp\ccAE0yU8.s 			page 2


  18:spindle_control.c **** 
  19:spindle_control.c ****   You should have received a copy of the GNU General Public License
  20:spindle_control.c ****   along with Grbl.  If not, see <http://www.gnu.org/licenses/>.
  21:spindle_control.c **** */
  22:spindle_control.c **** 
  23:spindle_control.c **** #include "grbl.h"
  24:spindle_control.c **** 
  25:spindle_control.c **** 
  26:spindle_control.c **** #ifdef VARIABLE_SPINDLE
  27:spindle_control.c ****   static float pwm_gradient; // Precalulated value to speed up rpm to PWM conversions.
  28:spindle_control.c **** #endif
  29:spindle_control.c **** 
  30:spindle_control.c **** // PSoc Rewrite
  31:spindle_control.c **** void spindle_init()
  32:spindle_control.c **** {
  41              		.loc 1 32 0
  42              		.cfi_startproc
  43              		@ args = 0, pretend = 0, frame = 0
  44              		@ frame_needed = 1, uses_anonymous_args = 0
  45 0000 80B5     		push	{r7, lr}
  46              		.cfi_def_cfa_offset 8
  47              		.cfi_offset 7, -8
  48              		.cfi_offset 14, -4
  49 0002 00AF     		add	r7, sp, #0
  50              		.cfi_def_cfa_register 7
  33:spindle_control.c ****   #ifdef VARIABLE_SPINDLE    
  34:spindle_control.c ****     pwm_gradient = SPINDLE_PWM_RANGE/(settings.rpm_max-settings.rpm_min);
  51              		.loc 1 34 0
  52 0004 0B4B     		ldr	r3, .L2
  53 0006 1A6C     		ldr	r2, [r3, #64]	@ float
  54 0008 0A4B     		ldr	r3, .L2
  55 000a 5B6C     		ldr	r3, [r3, #68]	@ float
  56 000c 1946     		mov	r1, r3
  57 000e 1046     		mov	r0, r2
  58 0010 FFF7FEFF 		bl	__aeabi_fsub
  59 0014 0346     		mov	r3, r0
  60 0016 1946     		mov	r1, r3
  61 0018 0748     		ldr	r0, .L2+4
  62 001a FFF7FEFF 		bl	__aeabi_fdiv
  63 001e 0346     		mov	r3, r0
  64 0020 1A46     		mov	r2, r3
  65 0022 064B     		ldr	r3, .L2+8
  66 0024 1A60     		str	r2, [r3]	@ float
  35:spindle_control.c ****     PWM_Spindle_Start();
  67              		.loc 1 35 0
  68 0026 FFF7FEFF 		bl	PWM_Spindle_Start
  36:spindle_control.c **** 
  37:spindle_control.c ****   #else
  38:spindle_control.c **** 
  39:spindle_control.c ****     // Configure no variable spindle and only enable pin.
  40:spindle_control.c ****     // TO DO Unsupported PSoC option right now
  41:spindle_control.c **** 
  42:spindle_control.c ****   #endif
  43:spindle_control.c **** 
  44:spindle_control.c ****   spindle_stop();
  69              		.loc 1 44 0
  70 002a FFF7FEFF 		bl	spindle_stop
ARM GAS  C:\Users\barto\AppData\Local\Temp\ccAE0yU8.s 			page 3


  45:spindle_control.c **** }
  71              		.loc 1 45 0
  72 002e 00BF     		nop
  73 0030 80BD     		pop	{r7, pc}
  74              	.L3:
  75 0032 00BF     		.align	2
  76              	.L2:
  77 0034 00000000 		.word	settings
  78 0038 00007E43 		.word	1132331008
  79 003c 00000000 		.word	pwm_gradient
  80              		.cfi_endproc
  81              	.LFE64:
  82              		.size	spindle_init, .-spindle_init
  83              		.section	.text.spindle_get_state,"ax",%progbits
  84              		.align	2
  85              		.global	spindle_get_state
  86              		.thumb
  87              		.thumb_func
  88              		.type	spindle_get_state, %function
  89              	spindle_get_state:
  90              	.LFB65:
  46:spindle_control.c **** 
  47:spindle_control.c **** 
  48:spindle_control.c **** uint8_t spindle_get_state()
  49:spindle_control.c **** {
  91              		.loc 1 49 0
  92              		.cfi_startproc
  93              		@ args = 0, pretend = 0, frame = 0
  94              		@ frame_needed = 1, uses_anonymous_args = 0
  95 0000 80B5     		push	{r7, lr}
  96              		.cfi_def_cfa_offset 8
  97              		.cfi_offset 7, -8
  98              		.cfi_offset 14, -4
  99 0002 00AF     		add	r7, sp, #0
 100              		.cfi_def_cfa_register 7
  50:spindle_control.c **** 	#ifdef VARIABLE_SPINDLE
  51:spindle_control.c ****     #ifdef USE_SPINDLE_DIR_AS_ENABLE_PIN
  52:spindle_control.c **** 		  // Not Supported in PSoC Yet
  53:spindle_control.c ****     #else
  54:spindle_control.c ****       
  55:spindle_control.c ****       if (Pin_Spindle_Enable_Read()) 
 101              		.loc 1 55 0
 102 0004 FFF7FEFF 		bl	Pin_Spindle_Enable_Read
 103 0008 0346     		mov	r3, r0
 104 000a 002B     		cmp	r3, #0
 105 000c 08D0     		beq	.L5
  56:spindle_control.c ****       { // Check if PWM is enabled.
  57:spindle_control.c ****         if (Pin_Spindle_Direction_Read())
 106              		.loc 1 57 0
 107 000e FFF7FEFF 		bl	Pin_Spindle_Direction_Read
 108 0012 0346     		mov	r3, r0
 109 0014 002B     		cmp	r3, #0
 110 0016 01D0     		beq	.L6
  58:spindle_control.c ****           { return(SPINDLE_STATE_CCW); }
 111              		.loc 1 58 0
 112 0018 0223     		movs	r3, #2
 113 001a 02E0     		b	.L7
ARM GAS  C:\Users\barto\AppData\Local\Temp\ccAE0yU8.s 			page 4


 114              	.L6:
  59:spindle_control.c ****         else 
  60:spindle_control.c ****           { return(SPINDLE_STATE_CW); }
 115              		.loc 1 60 0
 116 001c 0123     		movs	r3, #1
 117 001e 00E0     		b	.L7
 118              	.L5:
  61:spindle_control.c ****       }
  62:spindle_control.c ****     #endif
  63:spindle_control.c **** 	#else
  64:spindle_control.c **** 		// Not Supported in PSoC Yet
  65:spindle_control.c **** 	#endif
  66:spindle_control.c **** 	return(SPINDLE_STATE_DISABLE);
 119              		.loc 1 66 0
 120 0020 0023     		movs	r3, #0
 121              	.L7:
  67:spindle_control.c **** }
 122              		.loc 1 67 0
 123 0022 1846     		mov	r0, r3
 124 0024 80BD     		pop	{r7, pc}
 125              		.cfi_endproc
 126              	.LFE65:
 127              		.size	spindle_get_state, .-spindle_get_state
 128 0026 00BF     		.section	.text.spindle_stop,"ax",%progbits
 129              		.align	2
 130              		.global	spindle_stop
 131              		.thumb
 132              		.thumb_func
 133              		.type	spindle_stop, %function
 134              	spindle_stop:
 135              	.LFB66:
  68:spindle_control.c **** 
  69:spindle_control.c **** 
  70:spindle_control.c **** // Disables the spindle and sets PWM output to zero when PWM variable spindle speed is enabled.
  71:spindle_control.c **** // Called by various main program and ISR routines. Keep routine small, fast, and efficient.
  72:spindle_control.c **** // Called by spindle_init(), spindle_set_speed(), spindle_set_state(), and mc_reset().
  73:spindle_control.c ****       // PSoC rewrite
  74:spindle_control.c **** void spindle_stop()
  75:spindle_control.c **** {
 136              		.loc 1 75 0
 137              		.cfi_startproc
 138              		@ args = 0, pretend = 0, frame = 0
 139              		@ frame_needed = 1, uses_anonymous_args = 0
 140 0000 80B5     		push	{r7, lr}
 141              		.cfi_def_cfa_offset 8
 142              		.cfi_offset 7, -8
 143              		.cfi_offset 14, -4
 144 0002 00AF     		add	r7, sp, #0
 145              		.cfi_def_cfa_register 7
  76:spindle_control.c ****   #ifdef VARIABLE_SPINDLE
  77:spindle_control.c ****     PWM_Spindle_WriteCompare(0);
 146              		.loc 1 77 0
 147 0004 0020     		movs	r0, #0
 148 0006 FFF7FEFF 		bl	PWM_Spindle_WriteCompare
  78:spindle_control.c ****   #else
  79:spindle_control.c ****     // TO DO Unsupported in PSoC
  80:spindle_control.c ****   #endif
ARM GAS  C:\Users\barto\AppData\Local\Temp\ccAE0yU8.s 			page 5


  81:spindle_control.c **** }
 149              		.loc 1 81 0
 150 000a 00BF     		nop
 151 000c 80BD     		pop	{r7, pc}
 152              		.cfi_endproc
 153              	.LFE66:
 154              		.size	spindle_stop, .-spindle_stop
 155 000e 00BF     		.section	.text.spindle_set_speed,"ax",%progbits
 156              		.align	2
 157              		.global	spindle_set_speed
 158              		.thumb
 159              		.thumb_func
 160              		.type	spindle_set_speed, %function
 161              	spindle_set_speed:
 162              	.LFB67:
  82:spindle_control.c **** 
  83:spindle_control.c **** 
  84:spindle_control.c **** #ifdef VARIABLE_SPINDLE
  85:spindle_control.c ****   // Sets spindle speed PWM output and enable pin, if configured. Called by spindle_set_state()
  86:spindle_control.c ****   // and stepper ISR. Keep routine small and efficient.
  87:spindle_control.c ****   // PSoC Rewrite
  88:spindle_control.c ****   void spindle_set_speed(uint8_t pwm_value)
  89:spindle_control.c ****   {   
 163              		.loc 1 89 0
 164              		.cfi_startproc
 165              		@ args = 0, pretend = 0, frame = 8
 166              		@ frame_needed = 1, uses_anonymous_args = 0
 167 0000 80B5     		push	{r7, lr}
 168              		.cfi_def_cfa_offset 8
 169              		.cfi_offset 7, -8
 170              		.cfi_offset 14, -4
 171 0002 82B0     		sub	sp, sp, #8
 172              		.cfi_def_cfa_offset 16
 173 0004 00AF     		add	r7, sp, #0
 174              		.cfi_def_cfa_register 7
 175 0006 0346     		mov	r3, r0
 176 0008 FB71     		strb	r3, [r7, #7]
  90:spindle_control.c ****     PWM_Spindle_WriteCompare(pwm_value);
 177              		.loc 1 90 0
 178 000a FB79     		ldrb	r3, [r7, #7]	@ zero_extendqisi2
 179 000c 1846     		mov	r0, r3
 180 000e FFF7FEFF 		bl	PWM_Spindle_WriteCompare
  91:spindle_control.c ****   }
 181              		.loc 1 91 0
 182 0012 00BF     		nop
 183 0014 0837     		adds	r7, r7, #8
 184              		.cfi_def_cfa_offset 8
 185 0016 BD46     		mov	sp, r7
 186              		.cfi_def_cfa_register 13
 187              		@ sp needed
 188 0018 80BD     		pop	{r7, pc}
 189              		.cfi_endproc
 190              	.LFE67:
 191              		.size	spindle_set_speed, .-spindle_set_speed
 192              		.global	__aeabi_i2d
 193              		.global	__aeabi_dmul
 194              		.global	__aeabi_d2iz
ARM GAS  C:\Users\barto\AppData\Local\Temp\ccAE0yU8.s 			page 6


 195              		.global	__aeabi_f2iz
 196 001a 00BF     		.section	.text.spindle_compute_pwm_value,"ax",%progbits
 197              		.align	2
 198              		.global	spindle_compute_pwm_value
 199              		.thumb
 200              		.thumb_func
 201              		.type	spindle_compute_pwm_value, %function
 202              	spindle_compute_pwm_value:
 203              	.LFB68:
  92:spindle_control.c ****   // Called by spindle_set_state() and step segment generator. Keep routine small and efficient.
  93:spindle_control.c ****   int spindle_compute_pwm_value(int rpm) // 328p PWM register is 8-bit.
  94:spindle_control.c ****   {
 204              		.loc 1 94 0
 205              		.cfi_startproc
 206              		@ args = 0, pretend = 0, frame = 16
 207              		@ frame_needed = 1, uses_anonymous_args = 0
 208 0000 B0B5     		push	{r4, r5, r7, lr}
 209              		.cfi_def_cfa_offset 16
 210              		.cfi_offset 4, -16
 211              		.cfi_offset 5, -12
 212              		.cfi_offset 7, -8
 213              		.cfi_offset 14, -4
 214 0002 86B0     		sub	sp, sp, #24
 215              		.cfi_def_cfa_offset 40
 216 0004 02AF     		add	r7, sp, #8
 217              		.cfi_def_cfa 7, 32
 218 0006 7860     		str	r0, [r7, #4]
  95:spindle_control.c ****     int pwm_value;   
  96:spindle_control.c ****     
  97:spindle_control.c ****     rpm *= (0.010*sys.spindle_speed_ovr); // Scale by spindle speed override value.
 219              		.loc 1 97 0
 220 0008 7868     		ldr	r0, [r7, #4]
 221 000a FFF7FEFF 		bl	__aeabi_i2d
 222 000e 0446     		mov	r4, r0
 223 0010 0D46     		mov	r5, r1
 224 0012 234B     		ldr	r3, .L12+8
 225 0014 5B7A     		ldrb	r3, [r3, #9]	@ zero_extendqisi2
 226 0016 1846     		mov	r0, r3
 227 0018 FFF7FEFF 		bl	__aeabi_i2d
 228 001c 1EA3     		adr	r3, .L12
 229 001e D3E90023 		ldrd	r2, [r3]
 230 0022 FFF7FEFF 		bl	__aeabi_dmul
 231 0026 0246     		mov	r2, r0
 232 0028 0B46     		mov	r3, r1
 233 002a 2046     		mov	r0, r4
 234 002c 2946     		mov	r1, r5
 235 002e FFF7FEFF 		bl	__aeabi_dmul
 236 0032 0346     		mov	r3, r0
 237 0034 0C46     		mov	r4, r1
 238 0036 1846     		mov	r0, r3
 239 0038 2146     		mov	r1, r4
 240 003a FFF7FEFF 		bl	__aeabi_d2iz
 241 003e 0346     		mov	r3, r0
 242 0040 7B60     		str	r3, [r7, #4]
  98:spindle_control.c ****     
  99:spindle_control.c ****     // PSoC removed a bunch of stuff
 100:spindle_control.c ****     
ARM GAS  C:\Users\barto\AppData\Local\Temp\ccAE0yU8.s 			page 7


 101:spindle_control.c ****     rpm = constrain(rpm, settings.rpm_min, settings.rpm_max);
 243              		.loc 1 101 0
 244 0042 184B     		ldr	r3, .L12+12
 245 0044 5B6C     		ldr	r3, [r3, #68]	@ float
 246 0046 1846     		mov	r0, r3
 247 0048 FFF7FEFF 		bl	__aeabi_f2iz
 248 004c 0446     		mov	r4, r0
 249 004e 154B     		ldr	r3, .L12+12
 250 0050 1B6C     		ldr	r3, [r3, #64]	@ float
 251 0052 1846     		mov	r0, r3
 252 0054 FFF7FEFF 		bl	__aeabi_f2iz
 253 0058 0346     		mov	r3, r0
 254 005a 1A46     		mov	r2, r3
 255 005c 2146     		mov	r1, r4
 256 005e 7868     		ldr	r0, [r7, #4]
 257 0060 FFF7FEFF 		bl	constrain
 258 0064 7860     		str	r0, [r7, #4]
 102:spindle_control.c ****     
 103:spindle_control.c ****     //printPgmString(PSTR("ok"));
 104:spindle_control.c ****     //print_uint8_base10(pwm_value); 
 105:spindle_control.c ****     
 106:spindle_control.c ****     pwm_value = map(rpm, settings.rpm_min, settings.rpm_max, 0, SPINDLE_PWM_MAX_VALUE);
 259              		.loc 1 106 0
 260 0066 0F4B     		ldr	r3, .L12+12
 261 0068 5B6C     		ldr	r3, [r3, #68]	@ float
 262 006a 1846     		mov	r0, r3
 263 006c FFF7FEFF 		bl	__aeabi_f2iz
 264 0070 0446     		mov	r4, r0
 265 0072 0C4B     		ldr	r3, .L12+12
 266 0074 1B6C     		ldr	r3, [r3, #64]	@ float
 267 0076 1846     		mov	r0, r3
 268 0078 FFF7FEFF 		bl	__aeabi_f2iz
 269 007c 0246     		mov	r2, r0
 270 007e FF23     		movs	r3, #255
 271 0080 0093     		str	r3, [sp]
 272 0082 0023     		movs	r3, #0
 273 0084 2146     		mov	r1, r4
 274 0086 7868     		ldr	r0, [r7, #4]
 275 0088 FFF7FEFF 		bl	map
 276 008c F860     		str	r0, [r7, #12]
 107:spindle_control.c ****     
 108:spindle_control.c ****     return(pwm_value);
 277              		.loc 1 108 0
 278 008e FB68     		ldr	r3, [r7, #12]
 109:spindle_control.c ****   }
 279              		.loc 1 109 0
 280 0090 1846     		mov	r0, r3
 281 0092 1037     		adds	r7, r7, #16
 282              		.cfi_def_cfa_offset 16
 283 0094 BD46     		mov	sp, r7
 284              		.cfi_def_cfa_register 13
 285              		@ sp needed
 286 0096 B0BD     		pop	{r4, r5, r7, pc}
 287              	.L13:
 288              		.align	3
 289              	.L12:
 290 0098 7B14AE47 		.word	1202590843
ARM GAS  C:\Users\barto\AppData\Local\Temp\ccAE0yU8.s 			page 8


 291 009c E17A843F 		.word	1065646817
 292 00a0 00000000 		.word	sys
 293 00a4 00000000 		.word	settings
 294              		.cfi_endproc
 295              	.LFE68:
 296              		.size	spindle_compute_pwm_value, .-spindle_compute_pwm_value
 297              		.section	.text.spindle_set_state,"ax",%progbits
 298              		.align	2
 299              		.global	spindle_set_state
 300              		.thumb
 301              		.thumb_func
 302              		.type	spindle_set_state, %function
 303              	spindle_set_state:
 304              	.LFB69:
 110:spindle_control.c **** #endif
 111:spindle_control.c **** 
 112:spindle_control.c **** 
 113:spindle_control.c **** // Immediately sets spindle running state with direction and spindle rpm via PWM, if enabled.
 114:spindle_control.c **** // Called by g-code parser spindle_sync(), parking retract and restore, g-code program end,
 115:spindle_control.c **** // sleep, and spindle stop override.
 116:spindle_control.c **** #ifdef VARIABLE_SPINDLE
 117:spindle_control.c ****   void spindle_set_state(uint8_t state, float rpm)
 118:spindle_control.c **** #else
 119:spindle_control.c ****   void _spindle_set_state(uint8_t state)
 120:spindle_control.c **** #endif
 121:spindle_control.c **** {
 305              		.loc 1 121 0
 306              		.cfi_startproc
 307              		@ args = 0, pretend = 0, frame = 8
 308              		@ frame_needed = 1, uses_anonymous_args = 0
 309 0000 80B5     		push	{r7, lr}
 310              		.cfi_def_cfa_offset 8
 311              		.cfi_offset 7, -8
 312              		.cfi_offset 14, -4
 313 0002 82B0     		sub	sp, sp, #8
 314              		.cfi_def_cfa_offset 16
 315 0004 00AF     		add	r7, sp, #0
 316              		.cfi_def_cfa_register 7
 317 0006 0346     		mov	r3, r0
 318 0008 3960     		str	r1, [r7]	@ float
 319 000a FB71     		strb	r3, [r7, #7]
 122:spindle_control.c ****   if (sys.abort) { return; } // Block during abort.
 320              		.loc 1 122 0
 321 000c 1B4B     		ldr	r3, .L21
 322 000e 5B78     		ldrb	r3, [r3, #1]	@ zero_extendqisi2
 323 0010 002B     		cmp	r3, #0
 324 0012 2FD1     		bne	.L20
 123:spindle_control.c ****   if (state == SPINDLE_DISABLE) { // Halt or set spindle direction and rpm.
 325              		.loc 1 123 0
 326 0014 FB79     		ldrb	r3, [r7, #7]	@ zero_extendqisi2
 327 0016 002B     		cmp	r3, #0
 328 0018 06D1     		bne	.L17
 124:spindle_control.c ****   
 125:spindle_control.c ****     #ifdef VARIABLE_SPINDLE
 126:spindle_control.c ****       sys.spindle_speed = 0.0;
 329              		.loc 1 126 0
 330 001a 184B     		ldr	r3, .L21
ARM GAS  C:\Users\barto\AppData\Local\Temp\ccAE0yU8.s 			page 9


 331 001c 4FF00002 		mov	r2, #0
 332 0020 1A61     		str	r2, [r3, #16]	@ float
 127:spindle_control.c ****     #endif
 128:spindle_control.c ****     spindle_stop();
 333              		.loc 1 128 0
 334 0022 FFF7FEFF 		bl	spindle_stop
 335 0026 21E0     		b	.L18
 336              	.L17:
 129:spindle_control.c ****   
 130:spindle_control.c ****   } else {
 131:spindle_control.c ****   
 132:spindle_control.c ****     #ifndef USE_SPINDLE_DIR_AS_ENABLE_PIN
 133:spindle_control.c ****       Pin_Spindle_Direction_Write(state == SPINDLE_ENABLE_CW);  // PSoC Rewrite       
 337              		.loc 1 133 0
 338 0028 FB79     		ldrb	r3, [r7, #7]	@ zero_extendqisi2
 339 002a 102B     		cmp	r3, #16
 340 002c 0CBF     		ite	eq
 341 002e 0123     		moveq	r3, #1
 342 0030 0023     		movne	r3, #0
 343 0032 DBB2     		uxtb	r3, r3
 344 0034 1846     		mov	r0, r3
 345 0036 FFF7FEFF 		bl	Pin_Spindle_Direction_Write
 134:spindle_control.c ****     #endif
 135:spindle_control.c ****   
 136:spindle_control.c ****     #ifdef VARIABLE_SPINDLE
 137:spindle_control.c ****       // NOTE: Assumes all calls to this function is when Grbl is not moving or must remain off.
 138:spindle_control.c ****       if (settings.flags & BITFLAG_LASER_MODE) { 
 346              		.loc 1 138 0
 347 003a 114B     		ldr	r3, .L21+4
 348 003c 93F84830 		ldrb	r3, [r3, #72]	@ zero_extendqisi2
 349 0040 03F00203 		and	r3, r3, #2
 350 0044 002B     		cmp	r3, #0
 351 0046 05D0     		beq	.L19
 139:spindle_control.c ****         if (state == SPINDLE_ENABLE_CCW) { rpm = 0.0; } // TODO: May need to be rpm_min*(100/MAX_SP
 352              		.loc 1 139 0
 353 0048 FB79     		ldrb	r3, [r7, #7]	@ zero_extendqisi2
 354 004a 202B     		cmp	r3, #32
 355 004c 02D1     		bne	.L19
 356              		.loc 1 139 0 is_stmt 0 discriminator 1
 357 004e 4FF00003 		mov	r3, #0
 358 0052 3B60     		str	r3, [r7]	@ float
 359              	.L19:
 140:spindle_control.c ****       }
 141:spindle_control.c ****       spindle_set_speed(spindle_compute_pwm_value(rpm));
 360              		.loc 1 141 0 is_stmt 1
 361 0054 3868     		ldr	r0, [r7]	@ float
 362 0056 FFF7FEFF 		bl	__aeabi_f2iz
 363 005a 0346     		mov	r3, r0
 364 005c 1846     		mov	r0, r3
 365 005e FFF7FEFF 		bl	spindle_compute_pwm_value
 366 0062 0346     		mov	r3, r0
 367 0064 DBB2     		uxtb	r3, r3
 368 0066 1846     		mov	r0, r3
 369 0068 FFF7FEFF 		bl	spindle_set_speed
 370              	.L18:
 142:spindle_control.c ****     #endif
 143:spindle_control.c ****     #if defined(USE_SPINDLE_DIR_AS_ENABLE_PIN) || !defined(VARIABLE_SPINDLE)
ARM GAS  C:\Users\barto\AppData\Local\Temp\ccAE0yU8.s 			page 10


 144:spindle_control.c ****       // NOTE: Without variable spindle, the enable bit should just turn on or off, regardless
 145:spindle_control.c ****       // if the spindle speed value is zero, as its ignored anyhow.
 146:spindle_control.c ****       #ifdef INVERT_SPINDLE_ENABLE_PIN
 147:spindle_control.c ****         SPINDLE_ENABLE_PORT &= ~(1<<SPINDLE_ENABLE_BIT);
 148:spindle_control.c ****       #else
 149:spindle_control.c ****         SPINDLE_ENABLE_PORT |= (1<<SPINDLE_ENABLE_BIT);
 150:spindle_control.c ****       #endif    
 151:spindle_control.c ****     #endif
 152:spindle_control.c ****   
 153:spindle_control.c ****   }
 154:spindle_control.c ****   
 155:spindle_control.c ****   sys.report_ovr_counter = 0; // Set to report change immediately
 371              		.loc 1 155 0
 372 006c 034B     		ldr	r3, .L21
 373 006e 0022     		movs	r2, #0
 374 0070 DA72     		strb	r2, [r3, #11]
 375 0072 00E0     		b	.L14
 376              	.L20:
 122:spindle_control.c ****   if (state == SPINDLE_DISABLE) { // Halt or set spindle direction and rpm.
 377              		.loc 1 122 0
 378 0074 00BF     		nop
 379              	.L14:
 156:spindle_control.c **** }
 380              		.loc 1 156 0
 381 0076 0837     		adds	r7, r7, #8
 382              		.cfi_def_cfa_offset 8
 383 0078 BD46     		mov	sp, r7
 384              		.cfi_def_cfa_register 13
 385              		@ sp needed
 386 007a 80BD     		pop	{r7, pc}
 387              	.L22:
 388              		.align	2
 389              	.L21:
 390 007c 00000000 		.word	sys
 391 0080 00000000 		.word	settings
 392              		.cfi_endproc
 393              	.LFE69:
 394              		.size	spindle_set_state, .-spindle_set_state
 395              		.section	.text.spindle_sync,"ax",%progbits
 396              		.align	2
 397              		.global	spindle_sync
 398              		.thumb
 399              		.thumb_func
 400              		.type	spindle_sync, %function
 401              	spindle_sync:
 402              	.LFB70:
 157:spindle_control.c **** 
 158:spindle_control.c **** 
 159:spindle_control.c **** // G-code parser entry-point for setting spindle state. Forces a planner buffer sync and bails 
 160:spindle_control.c **** // if an abort or check-mode is active.
 161:spindle_control.c **** #ifdef VARIABLE_SPINDLE
 162:spindle_control.c ****   void spindle_sync(uint8_t state, float rpm)
 163:spindle_control.c ****   {
 403              		.loc 1 163 0
 404              		.cfi_startproc
 405              		@ args = 0, pretend = 0, frame = 8
 406              		@ frame_needed = 1, uses_anonymous_args = 0
ARM GAS  C:\Users\barto\AppData\Local\Temp\ccAE0yU8.s 			page 11


 407 0000 80B5     		push	{r7, lr}
 408              		.cfi_def_cfa_offset 8
 409              		.cfi_offset 7, -8
 410              		.cfi_offset 14, -4
 411 0002 82B0     		sub	sp, sp, #8
 412              		.cfi_def_cfa_offset 16
 413 0004 00AF     		add	r7, sp, #0
 414              		.cfi_def_cfa_register 7
 415 0006 0346     		mov	r3, r0
 416 0008 3960     		str	r1, [r7]	@ float
 417 000a FB71     		strb	r3, [r7, #7]
 164:spindle_control.c ****     if (sys.state == STATE_CHECK_MODE) { return; }
 418              		.loc 1 164 0
 419 000c 074B     		ldr	r3, .L27
 420 000e 1B78     		ldrb	r3, [r3]	@ zero_extendqisi2
 421 0010 022B     		cmp	r3, #2
 422 0012 07D0     		beq	.L26
 165:spindle_control.c ****     protocol_buffer_synchronize(); // Empty planner buffer to ensure spindle is set when programmed
 423              		.loc 1 165 0
 424 0014 FFF7FEFF 		bl	protocol_buffer_synchronize
 166:spindle_control.c ****     spindle_set_state(state,rpm);
 425              		.loc 1 166 0
 426 0018 FB79     		ldrb	r3, [r7, #7]	@ zero_extendqisi2
 427 001a 3968     		ldr	r1, [r7]	@ float
 428 001c 1846     		mov	r0, r3
 429 001e FFF7FEFF 		bl	spindle_set_state
 430 0022 00E0     		b	.L23
 431              	.L26:
 164:spindle_control.c ****     if (sys.state == STATE_CHECK_MODE) { return; }
 432              		.loc 1 164 0
 433 0024 00BF     		nop
 434              	.L23:
 167:spindle_control.c ****   }
 435              		.loc 1 167 0
 436 0026 0837     		adds	r7, r7, #8
 437              		.cfi_def_cfa_offset 8
 438 0028 BD46     		mov	sp, r7
 439              		.cfi_def_cfa_register 13
 440              		@ sp needed
 441 002a 80BD     		pop	{r7, pc}
 442              	.L28:
 443              		.align	2
 444              	.L27:
 445 002c 00000000 		.word	sys
 446              		.cfi_endproc
 447              	.LFE70:
 448              		.size	spindle_sync, .-spindle_sync
 449              		.text
 450              	.Letext0:
 451              		.file 2 "c:\\program files (x86)\\cypress\\psoc creator\\4.2\\psoc creator\\import\\gnu\\arm\\5.4.
 452              		.file 3 "c:\\program files (x86)\\cypress\\psoc creator\\4.2\\psoc creator\\import\\gnu\\arm\\5.4.
 453              		.file 4 "settings.h"
 454              		.file 5 "system.h"
 455              		.file 6 "Generated_Source\\PSoC5/core_cm3.h"