ARM GAS  C:\Users\barto\AppData\Local\Temp\cc1xUybq.s 			page 1


   1              		.syntax unified
   2              		.cpu cortex-m3
   3              		.fpu softvfp
   4              		.eabi_attribute 20, 1
   5              		.eabi_attribute 21, 1
   6              		.eabi_attribute 23, 3
   7              		.eabi_attribute 24, 1
   8              		.eabi_attribute 25, 1
   9              		.eabi_attribute 26, 1
  10              		.eabi_attribute 30, 6
  11              		.eabi_attribute 34, 1
  12              		.eabi_attribute 18, 4
  13              		.thumb
  14              		.syntax unified
  15              		.file	"system.c"
  16              		.text
  17              	.Ltext0:
  18              		.cfi_sections	.debug_frame
  19              		.comm	sys_position,12,4
  20              		.comm	sys_probe_position,12,4
  21              		.comm	sys_probe_state,1,1
  22              		.comm	sys_rt_exec_state,1,1
  23              		.comm	sys_rt_exec_alarm,1,1
  24              		.comm	sys_rt_exec_motion_override,1,1
  25              		.comm	sys_rt_exec_accessory_override,1,1
  26              		.section	.text.system_init,"ax",%progbits
  27              		.align	2
  28              		.global	system_init
  29              		.thumb
  30              		.thumb_func
  31              		.type	system_init, %function
  32              	system_init:
  33              	.LFB64:
  34              		.file 1 "system.c"
   1:system.c      **** /*
   2:system.c      ****   system.c - Handles system level commands and real-time processes
   3:system.c      ****   Part of Grbl
   4:system.c      **** 
   5:system.c      ****   Copyright (c) 2014-2015 Sungeun K. Jeon  
   6:system.c      ****       Updated For PSOC BJD 2017
   7:system.c      **** 
   8:system.c      ****   Grbl is free software: you can redistribute it and/or modify
   9:system.c      ****   it under the terms of the GNU General Public License as published by
  10:system.c      ****   the Free Software Foundation, either version 3 of the License, or
  11:system.c      ****   (at your option) any later version.
  12:system.c      **** 
  13:system.c      ****   Grbl is distributed in the hope that it will be useful,
  14:system.c      ****   but WITHOUT ANY WARRANTY; without even the implied warranty of
  15:system.c      ****   MERCHANTABILITY or FITNESS FOR A PARTICULAR PURPOSE.  See the
  16:system.c      ****   GNU General Public License for more details.
  17:system.c      **** 
  18:system.c      ****   You should have received a copy of the GNU General Public License
  19:system.c      ****   along with Grbl.  If not, see <http://www.gnu.org/licenses/>.
  20:system.c      **** */
  21:system.c      **** 
  22:system.c      **** #include "grbl.h"
  23:system.c      **** 
ARM GAS  C:\Users\barto\AppData\Local\Temp\cc1xUybq.s 			page 2


  24:system.c      **** void system_init()
  25:system.c      **** {
  35              		.loc 1 25 0
  36              		.cfi_startproc
  37              		@ args = 0, pretend = 0, frame = 0
  38              		@ frame_needed = 1, uses_anonymous_args = 0
  39 0000 80B5     		push	{r7, lr}
  40              		.cfi_def_cfa_offset 8
  41              		.cfi_offset 7, -8
  42              		.cfi_offset 14, -4
  43 0002 00AF     		add	r7, sp, #0
  44              		.cfi_def_cfa_register 7
  26:system.c      ****   // setup of control pins is done in hardware
  27:system.c      ****   
  28:system.c      ****   isr_Control_StartEx(control_isr_handler);
  45              		.loc 1 28 0
  46 0004 0348     		ldr	r0, .L2
  47 0006 FFF7FEFF 		bl	isr_Control_StartEx
  29:system.c      ****   Status_Control_InterruptEnable();
  48              		.loc 1 29 0
  49 000a FFF7FEFF 		bl	Status_Control_InterruptEnable
  30:system.c      ****   
  31:system.c      **** }
  50              		.loc 1 31 0
  51 000e 00BF     		nop
  52 0010 80BD     		pop	{r7, pc}
  53              	.L3:
  54 0012 00BF     		.align	2
  55              	.L2:
  56 0014 00000000 		.word	control_isr_handler
  57              		.cfi_endproc
  58              	.LFE64:
  59              		.size	system_init, .-system_init
  60              		.section	.text.system_control_get_state,"ax",%progbits
  61              		.align	2
  62              		.global	system_control_get_state
  63              		.thumb
  64              		.thumb_func
  65              		.type	system_control_get_state, %function
  66              	system_control_get_state:
  67              	.LFB65:
  32:system.c      **** 
  33:system.c      **** // Returns control pin state as a uint8 bitfield. Each bit indicates the input pin state, where 
  34:system.c      **** // triggered is 1 and not triggered is 0. Invert mask is applied. Bitfield organization is
  35:system.c      **** // defined by the CONTROL_PIN_INDEX in the header file.
  36:system.c      **** uint8_t system_control_get_state()
  37:system.c      **** {
  68              		.loc 1 37 0
  69              		.cfi_startproc
  70              		@ args = 0, pretend = 0, frame = 0
  71              		@ frame_needed = 1, uses_anonymous_args = 0
  72 0000 80B5     		push	{r7, lr}
  73              		.cfi_def_cfa_offset 8
  74              		.cfi_offset 7, -8
  75              		.cfi_offset 14, -4
  76 0002 00AF     		add	r7, sp, #0
  77              		.cfi_def_cfa_register 7
ARM GAS  C:\Users\barto\AppData\Local\Temp\cc1xUybq.s 			page 3


  38:system.c      ****    /*
  39:system.c      ****     This is simplified over grbl because the pins are always in the same order
  40:system.c      ****     in the status register regardless of the placement.  Inverted applications
  41:system.c      ****     will be handle using a logic NOT
  42:system.c      ****    */
  43:system.c      ****    return(Status_Control_Read());  
  78              		.loc 1 43 0
  79 0004 FFF7FEFF 		bl	Status_Control_Read
  80 0008 0346     		mov	r3, r0
  44:system.c      ****   
  45:system.c      **** }
  81              		.loc 1 45 0
  82 000a 1846     		mov	r0, r3
  83 000c 80BD     		pop	{r7, pc}
  84              		.cfi_endproc
  85              	.LFE65:
  86              		.size	system_control_get_state, .-system_control_get_state
  87 000e 00BF     		.section	.text.control_isr_handler,"ax",%progbits
  88              		.align	2
  89              		.global	control_isr_handler
  90              		.thumb
  91              		.thumb_func
  92              		.type	control_isr_handler, %function
  93              	control_isr_handler:
  94              	.LFB66:
  46:system.c      **** 
  47:system.c      **** // Pin change interrupt for pin-out commands, i.e. cycle start, feed hold, and reset. Sets
  48:system.c      **** // only the realtime command execute variable to have the main program execute these when 
  49:system.c      **** // its ready. This works exactly like the character-based realtime commands when picked off
  50:system.c      **** // directly from the incoming serial data stream.
  51:system.c      **** CY_ISR (control_isr_handler) //ISR(CONTROL_INT_vect) 
  52:system.c      **** {
  95              		.loc 1 52 0
  96              		.cfi_startproc
  97              		@ args = 0, pretend = 0, frame = 8
  98              		@ frame_needed = 1, uses_anonymous_args = 0
  99 0000 80B5     		push	{r7, lr}
 100              		.cfi_def_cfa_offset 8
 101              		.cfi_offset 7, -8
 102              		.cfi_offset 14, -4
 103 0002 82B0     		sub	sp, sp, #8
 104              		.cfi_def_cfa_offset 16
 105 0004 00AF     		add	r7, sp, #0
 106              		.cfi_def_cfa_register 7
  53:system.c      ****   uint8_t pin = system_control_get_state();
 107              		.loc 1 53 0
 108 0006 FFF7FEFF 		bl	system_control_get_state
 109 000a 0346     		mov	r3, r0
 110 000c FB71     		strb	r3, [r7, #7]
  54:system.c      ****   if (pin) {
 111              		.loc 1 54 0
 112 000e FB79     		ldrb	r3, [r7, #7]	@ zero_extendqisi2
 113 0010 002B     		cmp	r3, #0
 114 0012 22D0     		beq	.L7
  55:system.c      ****     if (bit_istrue(pin,CONTROL_PIN_INDEX_RESET)) {
 115              		.loc 1 55 0
 116 0014 FB79     		ldrb	r3, [r7, #7]	@ zero_extendqisi2
ARM GAS  C:\Users\barto\AppData\Local\Temp\cc1xUybq.s 			page 4


 117 0016 03F00103 		and	r3, r3, #1
 118 001a 002B     		cmp	r3, #0
 119 001c 02D0     		beq	.L8
  56:system.c      ****       mc_reset();
 120              		.loc 1 56 0
 121 001e FFF7FEFF 		bl	mc_reset
 122 0022 1AE0     		b	.L7
 123              	.L8:
  57:system.c      ****     } else if (bit_istrue(pin,CONTROL_PIN_INDEX_CYCLE_START)) {
 124              		.loc 1 57 0
 125 0024 FB79     		ldrb	r3, [r7, #7]	@ zero_extendqisi2
 126 0026 03F00403 		and	r3, r3, #4
 127 002a 002B     		cmp	r3, #0
 128 002c 08D0     		beq	.L9
  58:system.c      ****       bit_true(sys_rt_exec_state, EXEC_CYCLE_START);
 129              		.loc 1 58 0
 130 002e 0E4B     		ldr	r3, .L10
 131 0030 1B78     		ldrb	r3, [r3]
 132 0032 DBB2     		uxtb	r3, r3
 133 0034 43F00203 		orr	r3, r3, #2
 134 0038 DAB2     		uxtb	r2, r3
 135 003a 0B4B     		ldr	r3, .L10
 136 003c 1A70     		strb	r2, [r3]
 137 003e 0CE0     		b	.L7
 138              	.L9:
  59:system.c      ****     #ifndef ENABLE_SAFETY_DOOR_INPUT_PIN
  60:system.c      ****       } else if (bit_istrue(pin,CONTROL_PIN_INDEX_FEED_HOLD)) {
 139              		.loc 1 60 0
 140 0040 FB79     		ldrb	r3, [r7, #7]	@ zero_extendqisi2
 141 0042 03F00203 		and	r3, r3, #2
 142 0046 002B     		cmp	r3, #0
 143 0048 07D0     		beq	.L7
  61:system.c      ****         bit_true(sys_rt_exec_state, EXEC_FEED_HOLD);
 144              		.loc 1 61 0
 145 004a 074B     		ldr	r3, .L10
 146 004c 1B78     		ldrb	r3, [r3]
 147 004e DBB2     		uxtb	r3, r3
 148 0050 43F00803 		orr	r3, r3, #8
 149 0054 DAB2     		uxtb	r2, r3
 150 0056 044B     		ldr	r3, .L10
 151 0058 1A70     		strb	r2, [r3]
 152              	.L7:
  62:system.c      ****     #else
  63:system.c      ****       } else if (bit_istrue(pin,CONTROL_PIN_INDEX_SAFETY_DOOR)) {
  64:system.c      ****         bit_true(sys_rt_exec_state, EXEC_SAFETY_DOOR);
  65:system.c      ****     #endif
  66:system.c      ****     }
  67:system.c      ****   }
  68:system.c      ****     
  69:system.c      ****   isr_Control_ClearPending();
 153              		.loc 1 69 0
 154 005a FFF7FEFF 		bl	isr_Control_ClearPending
  70:system.c      ****   
  71:system.c      **** }
 155              		.loc 1 71 0
 156 005e 00BF     		nop
 157 0060 0837     		adds	r7, r7, #8
ARM GAS  C:\Users\barto\AppData\Local\Temp\cc1xUybq.s 			page 5


 158              		.cfi_def_cfa_offset 8
 159 0062 BD46     		mov	sp, r7
 160              		.cfi_def_cfa_register 13
 161              		@ sp needed
 162 0064 80BD     		pop	{r7, pc}
 163              	.L11:
 164 0066 00BF     		.align	2
 165              	.L10:
 166 0068 00000000 		.word	sys_rt_exec_state
 167              		.cfi_endproc
 168              	.LFE66:
 169              		.size	control_isr_handler, .-control_isr_handler
 170              		.section	.text.system_check_safety_door_ajar,"ax",%progbits
 171              		.align	2
 172              		.global	system_check_safety_door_ajar
 173              		.thumb
 174              		.thumb_func
 175              		.type	system_check_safety_door_ajar, %function
 176              	system_check_safety_door_ajar:
 177              	.LFB67:
  72:system.c      **** 
  73:system.c      **** // Returns if safety door is ajar(T) or closed(F), based on pin state.
  74:system.c      **** uint8_t system_check_safety_door_ajar()
  75:system.c      **** {
 178              		.loc 1 75 0
 179              		.cfi_startproc
 180              		@ args = 0, pretend = 0, frame = 0
 181              		@ frame_needed = 1, uses_anonymous_args = 0
 182              		@ link register save eliminated.
 183 0000 80B4     		push	{r7}
 184              		.cfi_def_cfa_offset 4
 185              		.cfi_offset 7, -4
 186 0002 00AF     		add	r7, sp, #0
 187              		.cfi_def_cfa_register 7
  76:system.c      ****   #ifdef ENABLE_SAFETY_DOOR_INPUT_PIN
  77:system.c      ****     return(system_control_get_state() & CONTROL_PIN_INDEX_SAFETY_DOOR);
  78:system.c      ****   #else
  79:system.c      ****     return(false); // Input pin not enabled, so just return that it's closed.
 188              		.loc 1 79 0
 189 0004 0023     		movs	r3, #0
  80:system.c      ****   #endif
  81:system.c      **** }
 190              		.loc 1 81 0
 191 0006 1846     		mov	r0, r3
 192 0008 BD46     		mov	sp, r7
 193              		.cfi_def_cfa_register 13
 194              		@ sp needed
 195 000a 80BC     		pop	{r7}
 196              		.cfi_restore 7
 197              		.cfi_def_cfa_offset 0
 198 000c 7047     		bx	lr
 199              		.cfi_endproc
 200              	.LFE67:
 201              		.size	system_check_safety_door_ajar, .-system_check_safety_door_ajar
 202 000e 00BF     		.section	.text.system_execute_startup,"ax",%progbits
 203              		.align	2
 204              		.global	system_execute_startup
ARM GAS  C:\Users\barto\AppData\Local\Temp\cc1xUybq.s 			page 6


 205              		.thumb
 206              		.thumb_func
 207              		.type	system_execute_startup, %function
 208              	system_execute_startup:
 209              	.LFB68:
  82:system.c      **** 
  83:system.c      **** 
  84:system.c      **** // Executes user startup script, if stored.
  85:system.c      **** void system_execute_startup(char *line)
  86:system.c      **** {
 210              		.loc 1 86 0
 211              		.cfi_startproc
 212              		@ args = 0, pretend = 0, frame = 16
 213              		@ frame_needed = 1, uses_anonymous_args = 0
 214 0000 80B5     		push	{r7, lr}
 215              		.cfi_def_cfa_offset 8
 216              		.cfi_offset 7, -8
 217              		.cfi_offset 14, -4
 218 0002 84B0     		sub	sp, sp, #16
 219              		.cfi_def_cfa_offset 24
 220 0004 00AF     		add	r7, sp, #0
 221              		.cfi_def_cfa_register 7
 222 0006 7860     		str	r0, [r7, #4]
  87:system.c      ****   uint8_t n;
  88:system.c      ****   for (n=0; n < N_STARTUP_LINE; n++) {
 223              		.loc 1 88 0
 224 0008 0023     		movs	r3, #0
 225 000a FB73     		strb	r3, [r7, #15]
 226 000c 20E0     		b	.L15
 227              	.L18:
  89:system.c      ****     if (!(settings_read_startup_line(n, line))) {
 228              		.loc 1 89 0
 229 000e FB7B     		ldrb	r3, [r7, #15]	@ zero_extendqisi2
 230 0010 7968     		ldr	r1, [r7, #4]
 231 0012 1846     		mov	r0, r3
 232 0014 FFF7FEFF 		bl	settings_read_startup_line
 233 0018 0346     		mov	r3, r0
 234 001a 002B     		cmp	r3, #0
 235 001c 07D1     		bne	.L16
  90:system.c      ****       line[0] = 0;
 236              		.loc 1 90 0
 237 001e 7B68     		ldr	r3, [r7, #4]
 238 0020 0022     		movs	r2, #0
 239 0022 1A70     		strb	r2, [r3]
  91:system.c      ****       report_execute_startup_message(line,STATUS_SETTING_READ_FAIL);
 240              		.loc 1 91 0
 241 0024 0721     		movs	r1, #7
 242 0026 7868     		ldr	r0, [r7, #4]
 243 0028 FFF7FEFF 		bl	report_execute_startup_message
 244 002c 0DE0     		b	.L17
 245              	.L16:
  92:system.c      ****     } else {
  93:system.c      ****       if (line[0] != 0) {
 246              		.loc 1 93 0
 247 002e 7B68     		ldr	r3, [r7, #4]
 248 0030 1B78     		ldrb	r3, [r3]	@ zero_extendqisi2
 249 0032 002B     		cmp	r3, #0
ARM GAS  C:\Users\barto\AppData\Local\Temp\cc1xUybq.s 			page 7


 250 0034 09D0     		beq	.L17
 251              	.LBB2:
  94:system.c      ****         uint8_t status_code = gc_execute_line(line);
 252              		.loc 1 94 0
 253 0036 7868     		ldr	r0, [r7, #4]
 254 0038 FFF7FEFF 		bl	gc_execute_line
 255 003c 0346     		mov	r3, r0
 256 003e BB73     		strb	r3, [r7, #14]
  95:system.c      ****         report_execute_startup_message(line,status_code);
 257              		.loc 1 95 0
 258 0040 BB7B     		ldrb	r3, [r7, #14]	@ zero_extendqisi2
 259 0042 1946     		mov	r1, r3
 260 0044 7868     		ldr	r0, [r7, #4]
 261 0046 FFF7FEFF 		bl	report_execute_startup_message
 262              	.L17:
 263              	.LBE2:
  88:system.c      ****     if (!(settings_read_startup_line(n, line))) {
 264              		.loc 1 88 0 discriminator 2
 265 004a FB7B     		ldrb	r3, [r7, #15]	@ zero_extendqisi2
 266 004c 0133     		adds	r3, r3, #1
 267 004e FB73     		strb	r3, [r7, #15]
 268              	.L15:
  88:system.c      ****     if (!(settings_read_startup_line(n, line))) {
 269              		.loc 1 88 0 is_stmt 0 discriminator 1
 270 0050 FB7B     		ldrb	r3, [r7, #15]	@ zero_extendqisi2
 271 0052 012B     		cmp	r3, #1
 272 0054 DBD9     		bls	.L18
  96:system.c      ****       }
  97:system.c      ****     }
  98:system.c      ****   }
  99:system.c      **** }
 273              		.loc 1 99 0 is_stmt 1
 274 0056 00BF     		nop
 275 0058 1037     		adds	r7, r7, #16
 276              		.cfi_def_cfa_offset 8
 277 005a BD46     		mov	sp, r7
 278              		.cfi_def_cfa_register 13
 279              		@ sp needed
 280 005c 80BD     		pop	{r7, pc}
 281              		.cfi_endproc
 282              	.LFE68:
 283              		.size	system_execute_startup, .-system_execute_startup
 284              		.global	__aeabi_f2d
 285              		.global	__aeabi_d2uiz
 286              		.global	__aeabi_fcmpgt
 287              		.global	__aeabi_f2uiz
 288 005e 00BF     		.section	.text.system_execute_line,"ax",%progbits
 289              		.align	2
 290              		.global	system_execute_line
 291              		.thumb
 292              		.thumb_func
 293              		.type	system_execute_line, %function
 294              	system_execute_line:
 295              	.LFB69:
 100:system.c      **** 
 101:system.c      **** // Directs and executes one line of formatted input from protocol_process. While mostly
 102:system.c      **** // incoming streaming g-code blocks, this also executes Grbl internal commands, such as
ARM GAS  C:\Users\barto\AppData\Local\Temp\cc1xUybq.s 			page 8


 103:system.c      **** // settings, initiating the homing cycle, and toggling switch states. This differs from
 104:system.c      **** // the realtime command module by being susceptible to when Grbl is ready to execute the
 105:system.c      **** // next line during a cycle, so for switches like block delete, the switch only effects
 106:system.c      **** // the lines that are processed afterward, not necessarily real-time during a cycle,
 107:system.c      **** // since there are motions already stored in the buffer. However, this 'lag' should not
 108:system.c      **** // be an issue, since these commands are not typically used during a cycle.
 109:system.c      **** uint8_t system_execute_line(char *line)
 110:system.c      **** {
 296              		.loc 1 110 0
 297              		.cfi_startproc
 298              		@ args = 0, pretend = 0, frame = 24
 299              		@ frame_needed = 1, uses_anonymous_args = 0
 300 0000 90B5     		push	{r4, r7, lr}
 301              		.cfi_def_cfa_offset 12
 302              		.cfi_offset 4, -12
 303              		.cfi_offset 7, -8
 304              		.cfi_offset 14, -4
 305 0002 87B0     		sub	sp, sp, #28
 306              		.cfi_def_cfa_offset 40
 307 0004 00AF     		add	r7, sp, #0
 308              		.cfi_def_cfa_register 7
 309 0006 7860     		str	r0, [r7, #4]
 111:system.c      ****   uint8_t char_counter = 1;
 310              		.loc 1 111 0
 311 0008 0123     		movs	r3, #1
 312 000a BB75     		strb	r3, [r7, #22]
 112:system.c      ****   uint8_t helper_var = 0; // Helper variable
 313              		.loc 1 112 0
 314 000c 0023     		movs	r3, #0
 315 000e FB75     		strb	r3, [r7, #23]
 113:system.c      ****   float parameter, value;
 114:system.c      ****   switch( line[char_counter] ) {
 316              		.loc 1 114 0
 317 0010 BB7D     		ldrb	r3, [r7, #22]	@ zero_extendqisi2
 318 0012 1A46     		mov	r2, r3
 319 0014 7B68     		ldr	r3, [r7, #4]
 320 0016 1344     		add	r3, r3, r2
 321 0018 1B78     		ldrb	r3, [r3]	@ zero_extendqisi2
 322 001a 432B     		cmp	r3, #67
 323 001c 26D0     		beq	.L21
 324 001e 432B     		cmp	r3, #67
 325 0020 04DC     		bgt	.L22
 326 0022 002B     		cmp	r3, #0
 327 0024 09D0     		beq	.L23
 328 0026 242B     		cmp	r3, #36
 329 0028 20D0     		beq	.L21
 330 002a 6DE0     		b	.L20
 331              	.L22:
 332 002c 4A2B     		cmp	r3, #74
 333 002e 07D0     		beq	.L24
 334 0030 582B     		cmp	r3, #88
 335 0032 1BD0     		beq	.L21
 336 0034 472B     		cmp	r3, #71
 337 0036 19D0     		beq	.L21
 338 0038 66E0     		b	.L20
 339              	.L23:
 115:system.c      ****     case 0 : report_grbl_help(); break;
ARM GAS  C:\Users\barto\AppData\Local\Temp\cc1xUybq.s 			page 9


 340              		.loc 1 115 0
 341 003a FFF7FEFF 		bl	report_grbl_help
 342 003e 6BE2     		b	.L25
 343              	.L24:
 116:system.c      ****     case 'J' : // Jogging
 117:system.c      ****       // Execute only if in IDLE or JOG states.
 118:system.c      ****       if (sys.state != STATE_IDLE && sys.state != STATE_JOG) { return(STATUS_IDLE_ERROR); }
 344              		.loc 1 118 0
 345 0040 B24B     		ldr	r3, .L97
 346 0042 1B78     		ldrb	r3, [r3]	@ zero_extendqisi2
 347 0044 002B     		cmp	r3, #0
 348 0046 05D0     		beq	.L26
 349              		.loc 1 118 0 is_stmt 0 discriminator 1
 350 0048 B04B     		ldr	r3, .L97
 351 004a 1B78     		ldrb	r3, [r3]	@ zero_extendqisi2
 352 004c 202B     		cmp	r3, #32
 353 004e 01D0     		beq	.L26
 354              		.loc 1 118 0 discriminator 2
 355 0050 0823     		movs	r3, #8
 356 0052 62E2     		b	.L91
 357              	.L26:
 119:system.c      ****       if(line[2] != '=') { return(STATUS_INVALID_STATEMENT); }
 358              		.loc 1 119 0 is_stmt 1
 359 0054 7B68     		ldr	r3, [r7, #4]
 360 0056 0233     		adds	r3, r3, #2
 361 0058 1B78     		ldrb	r3, [r3]	@ zero_extendqisi2
 362 005a 3D2B     		cmp	r3, #61
 363 005c 01D0     		beq	.L28
 364              		.loc 1 119 0 is_stmt 0 discriminator 1
 365 005e 0323     		movs	r3, #3
 366 0060 5BE2     		b	.L91
 367              	.L28:
 120:system.c      ****       return(gc_execute_line(line)); // NOTE: $J= is ignored inside g-code parser and used to detec
 368              		.loc 1 120 0 is_stmt 1
 369 0062 7868     		ldr	r0, [r7, #4]
 370 0064 FFF7FEFF 		bl	gc_execute_line
 371 0068 0346     		mov	r3, r0
 372 006a 56E2     		b	.L91
 373              	.L21:
 121:system.c      ****       break;
 122:system.c      ****     case '$': case 'G': case 'C': case 'X':
 123:system.c      ****       if ( line[2] != 0 ) { return(STATUS_INVALID_STATEMENT); }
 374              		.loc 1 123 0
 375 006c 7B68     		ldr	r3, [r7, #4]
 376 006e 0233     		adds	r3, r3, #2
 377 0070 1B78     		ldrb	r3, [r3]	@ zero_extendqisi2
 378 0072 002B     		cmp	r3, #0
 379 0074 01D0     		beq	.L29
 380              		.loc 1 123 0 is_stmt 0 discriminator 1
 381 0076 0323     		movs	r3, #3
 382 0078 4FE2     		b	.L91
 383              	.L29:
 124:system.c      ****       switch( line[1] ) {
 384              		.loc 1 124 0 is_stmt 1
 385 007a 7B68     		ldr	r3, [r7, #4]
 386 007c 0133     		adds	r3, r3, #1
 387 007e 1B78     		ldrb	r3, [r3]	@ zero_extendqisi2
ARM GAS  C:\Users\barto\AppData\Local\Temp\cc1xUybq.s 			page 10


 388 0080 432B     		cmp	r3, #67
 389 0082 17D0     		beq	.L31
 390 0084 432B     		cmp	r3, #67
 391 0086 02DC     		bgt	.L32
 392 0088 242B     		cmp	r3, #36
 393 008a 05D0     		beq	.L33
 125:system.c      ****         case '$' : // Prints Grbl settings
 126:system.c      ****           if ( sys.state & (STATE_CYCLE | STATE_HOLD) ) { return(STATUS_IDLE_ERROR); } // Block dur
 127:system.c      ****           else { report_grbl_settings(); }
 128:system.c      ****           break;
 129:system.c      ****         case 'G' : // Prints gcode parser state
 130:system.c      ****           // TODO: Move this to realtime commands for GUIs to request this data during suspend-stat
 131:system.c      ****           report_gcode_modes();
 132:system.c      ****           break;
 133:system.c      ****         case 'C' : // Set check g-code mode [IDLE/CHECK]
 134:system.c      ****           // Perform reset when toggling off. Check g-code mode should only work if Grbl
 135:system.c      ****           // is idle and ready, regardless of alarm locks. This is mainly to keep things
 136:system.c      ****           // simple and consistent.
 137:system.c      ****           if ( sys.state == STATE_CHECK_MODE ) {
 138:system.c      ****             mc_reset();
 139:system.c      ****             report_feedback_message(MESSAGE_DISABLED);
 140:system.c      ****           } else {
 141:system.c      ****             if (sys.state) { return(STATUS_IDLE_ERROR); } // Requires no alarm mode.
 142:system.c      ****             sys.state = STATE_CHECK_MODE;
 143:system.c      ****             report_feedback_message(MESSAGE_ENABLED);
 144:system.c      ****           }
 145:system.c      ****           break;
 146:system.c      ****         case 'X' : // Disable alarm lock [ALARM]
 147:system.c      ****           if (sys.state == STATE_ALARM) {
 148:system.c      ****             // Block if safety door is ajar.
 149:system.c      ****             if (system_check_safety_door_ajar()) { return(STATUS_CHECK_DOOR); }
 150:system.c      ****             report_feedback_message(MESSAGE_ALARM_UNLOCK);
 151:system.c      ****             sys.state = STATE_IDLE;
 152:system.c      ****             // Don't run startup script. Prevents stored moves in startup from causing accidents.
 153:system.c      ****           } // Otherwise, no effect.
 154:system.c      ****           break;
 155:system.c      ****       }
 156:system.c      ****       break;
 394              		.loc 1 156 0
 395 008c 44E2     		b	.L25
 396              	.L32:
 124:system.c      ****       switch( line[1] ) {
 397              		.loc 1 124 0
 398 008e 472B     		cmp	r3, #71
 399 0090 0DD0     		beq	.L34
 400 0092 582B     		cmp	r3, #88
 401 0094 25D0     		beq	.L35
 402              		.loc 1 156 0
 403 0096 3FE2     		b	.L25
 404              	.L33:
 126:system.c      ****           else { report_grbl_settings(); }
 405              		.loc 1 126 0
 406 0098 9C4B     		ldr	r3, .L97
 407 009a 1B78     		ldrb	r3, [r3]	@ zero_extendqisi2
 408 009c 03F01803 		and	r3, r3, #24
 409 00a0 002B     		cmp	r3, #0
 410 00a2 01D0     		beq	.L36
ARM GAS  C:\Users\barto\AppData\Local\Temp\cc1xUybq.s 			page 11


 126:system.c      ****           else { report_grbl_settings(); }
 411              		.loc 1 126 0 is_stmt 0 discriminator 1
 412 00a4 0823     		movs	r3, #8
 413 00a6 38E2     		b	.L91
 414              	.L36:
 127:system.c      ****           break;
 415              		.loc 1 127 0 is_stmt 1
 416 00a8 FFF7FEFF 		bl	report_grbl_settings
 128:system.c      ****         case 'G' : // Prints gcode parser state
 417              		.loc 1 128 0
 418 00ac 2BE0     		b	.L30
 419              	.L34:
 131:system.c      ****           break;
 420              		.loc 1 131 0
 421 00ae FFF7FEFF 		bl	report_gcode_modes
 132:system.c      ****         case 'C' : // Set check g-code mode [IDLE/CHECK]
 422              		.loc 1 132 0
 423 00b2 28E0     		b	.L30
 424              	.L31:
 137:system.c      ****             mc_reset();
 425              		.loc 1 137 0
 426 00b4 954B     		ldr	r3, .L97
 427 00b6 1B78     		ldrb	r3, [r3]	@ zero_extendqisi2
 428 00b8 022B     		cmp	r3, #2
 429 00ba 05D1     		bne	.L37
 138:system.c      ****             report_feedback_message(MESSAGE_DISABLED);
 430              		.loc 1 138 0
 431 00bc FFF7FEFF 		bl	mc_reset
 139:system.c      ****           } else {
 432              		.loc 1 139 0
 433 00c0 0520     		movs	r0, #5
 434 00c2 FFF7FEFF 		bl	report_feedback_message
 145:system.c      ****         case 'X' : // Disable alarm lock [ALARM]
 435              		.loc 1 145 0
 436 00c6 1EE0     		b	.L30
 437              	.L37:
 141:system.c      ****             sys.state = STATE_CHECK_MODE;
 438              		.loc 1 141 0
 439 00c8 904B     		ldr	r3, .L97
 440 00ca 1B78     		ldrb	r3, [r3]	@ zero_extendqisi2
 441 00cc 002B     		cmp	r3, #0
 442 00ce 01D0     		beq	.L39
 141:system.c      ****             sys.state = STATE_CHECK_MODE;
 443              		.loc 1 141 0 is_stmt 0 discriminator 1
 444 00d0 0823     		movs	r3, #8
 445 00d2 22E2     		b	.L91
 446              	.L39:
 142:system.c      ****             report_feedback_message(MESSAGE_ENABLED);
 447              		.loc 1 142 0 is_stmt 1
 448 00d4 8D4B     		ldr	r3, .L97
 449 00d6 0222     		movs	r2, #2
 450 00d8 1A70     		strb	r2, [r3]
 143:system.c      ****           }
 451              		.loc 1 143 0
 452 00da 0420     		movs	r0, #4
 453 00dc FFF7FEFF 		bl	report_feedback_message
 145:system.c      ****         case 'X' : // Disable alarm lock [ALARM]
ARM GAS  C:\Users\barto\AppData\Local\Temp\cc1xUybq.s 			page 12


 454              		.loc 1 145 0
 455 00e0 11E0     		b	.L30
 456              	.L35:
 147:system.c      ****             // Block if safety door is ajar.
 457              		.loc 1 147 0
 458 00e2 8A4B     		ldr	r3, .L97
 459 00e4 1B78     		ldrb	r3, [r3]	@ zero_extendqisi2
 460 00e6 012B     		cmp	r3, #1
 461 00e8 0CD1     		bne	.L95
 149:system.c      ****             report_feedback_message(MESSAGE_ALARM_UNLOCK);
 462              		.loc 1 149 0
 463 00ea FFF7FEFF 		bl	system_check_safety_door_ajar
 464 00ee 0346     		mov	r3, r0
 465 00f0 002B     		cmp	r3, #0
 466 00f2 01D0     		beq	.L41
 149:system.c      ****             report_feedback_message(MESSAGE_ALARM_UNLOCK);
 467              		.loc 1 149 0 is_stmt 0 discriminator 1
 468 00f4 0D23     		movs	r3, #13
 469 00f6 10E2     		b	.L91
 470              	.L41:
 150:system.c      ****             sys.state = STATE_IDLE;
 471              		.loc 1 150 0 is_stmt 1
 472 00f8 0320     		movs	r0, #3
 473 00fa FFF7FEFF 		bl	report_feedback_message
 151:system.c      ****             // Don't run startup script. Prevents stored moves in startup from causing accidents.
 474              		.loc 1 151 0
 475 00fe 834B     		ldr	r3, .L97
 476 0100 0022     		movs	r2, #0
 477 0102 1A70     		strb	r2, [r3]
 478              	.L95:
 154:system.c      ****       }
 479              		.loc 1 154 0
 480 0104 00BF     		nop
 481              	.L30:
 482              		.loc 1 156 0 discriminator 1
 483 0106 07E2     		b	.L25
 484              	.L20:
 157:system.c      ****     default :
 158:system.c      ****       // Block any system command that requires the state as IDLE/ALARM. (i.e. EEPROM, homing)
 159:system.c      ****       if ( !(sys.state == STATE_IDLE || sys.state == STATE_ALARM) ) { return(STATUS_IDLE_ERROR); }
 485              		.loc 1 159 0
 486 0108 804B     		ldr	r3, .L97
 487 010a 1B78     		ldrb	r3, [r3]	@ zero_extendqisi2
 488 010c 002B     		cmp	r3, #0
 489 010e 05D0     		beq	.L42
 490              		.loc 1 159 0 is_stmt 0 discriminator 1
 491 0110 7E4B     		ldr	r3, .L97
 492 0112 1B78     		ldrb	r3, [r3]	@ zero_extendqisi2
 493 0114 012B     		cmp	r3, #1
 494 0116 01D0     		beq	.L42
 495              		.loc 1 159 0 discriminator 2
 496 0118 0823     		movs	r3, #8
 497 011a FEE1     		b	.L91
 498              	.L42:
 160:system.c      ****       switch( line[1] ) {
 499              		.loc 1 160 0 is_stmt 1
 500 011c 7B68     		ldr	r3, [r7, #4]
ARM GAS  C:\Users\barto\AppData\Local\Temp\cc1xUybq.s 			page 13


 501 011e 0133     		adds	r3, r3, #1
 502 0120 1B78     		ldrb	r3, [r3]	@ zero_extendqisi2
 503 0122 233B     		subs	r3, r3, #35
 504 0124 302B     		cmp	r3, #48
 505 0126 00F27481 		bhi	.L43
 506 012a 01A2     		adr	r2, .L45
 507 012c 52F823F0 		ldr	pc, [r2, r3, lsl #2]
 508              		.p2align 2
 509              	.L45:
 510 0130 F5010000 		.word	.L44+1
 511 0134 13040000 		.word	.L43+1
 512 0138 13040000 		.word	.L43+1
 513 013c 13040000 		.word	.L43+1
 514 0140 13040000 		.word	.L43+1
 515 0144 13040000 		.word	.L43+1
 516 0148 13040000 		.word	.L43+1
 517 014c 13040000 		.word	.L43+1
 518 0150 13040000 		.word	.L43+1
 519 0154 13040000 		.word	.L43+1
 520 0158 13040000 		.word	.L43+1
 521 015c 13040000 		.word	.L43+1
 522 0160 13040000 		.word	.L43+1
 523 0164 13040000 		.word	.L43+1
 524 0168 13040000 		.word	.L43+1
 525 016c 13040000 		.word	.L43+1
 526 0170 13040000 		.word	.L43+1
 527 0174 13040000 		.word	.L43+1
 528 0178 13040000 		.word	.L43+1
 529 017c 13040000 		.word	.L43+1
 530 0180 13040000 		.word	.L43+1
 531 0184 13040000 		.word	.L43+1
 532 0188 13040000 		.word	.L43+1
 533 018c 13040000 		.word	.L43+1
 534 0190 13040000 		.word	.L43+1
 535 0194 13040000 		.word	.L43+1
 536 0198 13040000 		.word	.L43+1
 537 019c 13040000 		.word	.L43+1
 538 01a0 13040000 		.word	.L43+1
 539 01a4 13040000 		.word	.L43+1
 540 01a8 13040000 		.word	.L43+1
 541 01ac 13040000 		.word	.L43+1
 542 01b0 13040000 		.word	.L43+1
 543 01b4 13040000 		.word	.L43+1
 544 01b8 13040000 		.word	.L43+1
 545 01bc 13040000 		.word	.L43+1
 546 01c0 13040000 		.word	.L43+1
 547 01c4 09020000 		.word	.L46+1
 548 01c8 CF020000 		.word	.L47+1
 549 01cc 13040000 		.word	.L43+1
 550 01d0 13040000 		.word	.L43+1
 551 01d4 13040000 		.word	.L43+1
 552 01d8 13040000 		.word	.L43+1
 553 01dc B7030000 		.word	.L48+1
 554 01e0 13040000 		.word	.L43+1
 555 01e4 13040000 		.word	.L43+1
 556 01e8 13040000 		.word	.L43+1
 557 01ec 4F030000 		.word	.L49+1
ARM GAS  C:\Users\barto\AppData\Local\Temp\cc1xUybq.s 			page 14


 558 01f0 A5020000 		.word	.L50+1
 559              		.p2align 1
 560              	.L44:
 161:system.c      ****         case '#' : // Print Grbl NGC parameters
 162:system.c      ****           if ( line[2] != 0 ) { return(STATUS_INVALID_STATEMENT); }
 561              		.loc 1 162 0
 562 01f4 7B68     		ldr	r3, [r7, #4]
 563 01f6 0233     		adds	r3, r3, #2
 564 01f8 1B78     		ldrb	r3, [r3]	@ zero_extendqisi2
 565 01fa 002B     		cmp	r3, #0
 566 01fc 01D0     		beq	.L51
 567              		.loc 1 162 0 is_stmt 0 discriminator 1
 568 01fe 0323     		movs	r3, #3
 569 0200 8BE1     		b	.L91
 570              	.L51:
 163:system.c      ****           else { report_ngc_parameters(); }
 571              		.loc 1 163 0 is_stmt 1
 572 0202 FFF7FEFF 		bl	report_ngc_parameters
 164:system.c      ****           break;
 573              		.loc 1 164 0
 574 0206 87E1     		b	.L25
 575              	.L46:
 165:system.c      ****         case 'H' : // Perform homing cycle [IDLE/ALARM]
 166:system.c      ****           if (bit_isfalse(settings.flags,BITFLAG_HOMING_ENABLE)) {return(STATUS_SETTING_DISABLED); 
 576              		.loc 1 166 0
 577 0208 414B     		ldr	r3, .L97+4
 578 020a 93F84830 		ldrb	r3, [r3, #72]	@ zero_extendqisi2
 579 020e 03F01003 		and	r3, r3, #16
 580 0212 002B     		cmp	r3, #0
 581 0214 01D1     		bne	.L52
 582              		.loc 1 166 0 is_stmt 0 discriminator 1
 583 0216 0523     		movs	r3, #5
 584 0218 7FE1     		b	.L91
 585              	.L52:
 167:system.c      ****           if (system_check_safety_door_ajar()) { return(STATUS_CHECK_DOOR); } // Block if safety do
 586              		.loc 1 167 0 is_stmt 1
 587 021a FFF7FEFF 		bl	system_check_safety_door_ajar
 588 021e 0346     		mov	r3, r0
 589 0220 002B     		cmp	r3, #0
 590 0222 01D0     		beq	.L53
 591              		.loc 1 167 0 is_stmt 0 discriminator 1
 592 0224 0D23     		movs	r3, #13
 593 0226 78E1     		b	.L91
 594              	.L53:
 168:system.c      ****           sys.state = STATE_HOMING; // Set system state variable
 595              		.loc 1 168 0 is_stmt 1
 596 0228 384B     		ldr	r3, .L97
 597 022a 0422     		movs	r2, #4
 598 022c 1A70     		strb	r2, [r3]
 169:system.c      ****           if (line[2] == 0) {
 599              		.loc 1 169 0
 600 022e 7B68     		ldr	r3, [r7, #4]
 601 0230 0233     		adds	r3, r3, #2
 602 0232 1B78     		ldrb	r3, [r3]	@ zero_extendqisi2
 603 0234 002B     		cmp	r3, #0
 604 0236 03D1     		bne	.L54
 170:system.c      ****             mc_homing_cycle(HOMING_CYCLE_ALL);
ARM GAS  C:\Users\barto\AppData\Local\Temp\cc1xUybq.s 			page 15


 605              		.loc 1 170 0
 606 0238 0020     		movs	r0, #0
 607 023a FFF7FEFF 		bl	mc_homing_cycle
 608 023e 1DE0     		b	.L55
 609              	.L54:
 171:system.c      ****           #ifdef HOMING_SINGLE_AXIS_COMMANDS
 172:system.c      ****             } else if (line[3] == 0) {
 610              		.loc 1 172 0
 611 0240 7B68     		ldr	r3, [r7, #4]
 612 0242 0333     		adds	r3, r3, #3
 613 0244 1B78     		ldrb	r3, [r3]	@ zero_extendqisi2
 614 0246 002B     		cmp	r3, #0
 615 0248 16D1     		bne	.L56
 173:system.c      ****               switch (line[2]) {
 616              		.loc 1 173 0
 617 024a 7B68     		ldr	r3, [r7, #4]
 618 024c 0233     		adds	r3, r3, #2
 619 024e 1B78     		ldrb	r3, [r3]	@ zero_extendqisi2
 620 0250 592B     		cmp	r3, #89
 621 0252 07D0     		beq	.L58
 622 0254 5A2B     		cmp	r3, #90
 623 0256 09D0     		beq	.L59
 624 0258 582B     		cmp	r3, #88
 625 025a 0BD1     		bne	.L92
 174:system.c      ****                 case 'X': mc_homing_cycle(HOMING_CYCLE_X); break;
 626              		.loc 1 174 0
 627 025c 0120     		movs	r0, #1
 628 025e FFF7FEFF 		bl	mc_homing_cycle
 629 0262 0BE0     		b	.L55
 630              	.L58:
 175:system.c      ****                 case 'Y': mc_homing_cycle(HOMING_CYCLE_Y); break;
 631              		.loc 1 175 0
 632 0264 0220     		movs	r0, #2
 633 0266 FFF7FEFF 		bl	mc_homing_cycle
 634 026a 07E0     		b	.L55
 635              	.L59:
 176:system.c      ****                 case 'Z': mc_homing_cycle(HOMING_CYCLE_Z); break;
 636              		.loc 1 176 0
 637 026c 0420     		movs	r0, #4
 638 026e FFF7FEFF 		bl	mc_homing_cycle
 639 0272 03E0     		b	.L55
 640              	.L92:
 177:system.c      ****                 default: return(STATUS_INVALID_STATEMENT);
 641              		.loc 1 177 0
 642 0274 0323     		movs	r3, #3
 643 0276 50E1     		b	.L91
 644              	.L56:
 178:system.c      ****               }
 179:system.c      ****           #endif
 180:system.c      ****           } else { return(STATUS_INVALID_STATEMENT); }
 645              		.loc 1 180 0
 646 0278 0323     		movs	r3, #3
 647 027a 4EE1     		b	.L91
 648              	.L55:
 181:system.c      ****           if (!sys.abort) {  // Execute startup scripts after successful homing.
 649              		.loc 1 181 0
 650 027c 234B     		ldr	r3, .L97
ARM GAS  C:\Users\barto\AppData\Local\Temp\cc1xUybq.s 			page 16


 651 027e 5B78     		ldrb	r3, [r3, #1]	@ zero_extendqisi2
 652 0280 002B     		cmp	r3, #0
 653 0282 40F04881 		bne	.L96
 182:system.c      ****             sys.state = STATE_IDLE; // Set to IDLE when complete.
 654              		.loc 1 182 0
 655 0286 214B     		ldr	r3, .L97
 656 0288 0022     		movs	r2, #0
 657 028a 1A70     		strb	r2, [r3]
 183:system.c      ****             st_go_idle(); // Set steppers to the settings idle state before returning.
 658              		.loc 1 183 0
 659 028c FFF7FEFF 		bl	st_go_idle
 184:system.c      ****             if (line[2] == 0) { system_execute_startup(line); }
 660              		.loc 1 184 0
 661 0290 7B68     		ldr	r3, [r7, #4]
 662 0292 0233     		adds	r3, r3, #2
 663 0294 1B78     		ldrb	r3, [r3]	@ zero_extendqisi2
 664 0296 002B     		cmp	r3, #0
 665 0298 40F03D81 		bne	.L96
 666              		.loc 1 184 0 is_stmt 0 discriminator 1
 667 029c 7868     		ldr	r0, [r7, #4]
 668 029e FFF7FEFF 		bl	system_execute_startup
 185:system.c      ****           }
 186:system.c      ****           break;
 669              		.loc 1 186 0 is_stmt 1 discriminator 1
 670 02a2 38E1     		b	.L96
 671              	.L50:
 187:system.c      ****         case 'S' : // Puts Grbl to sleep [IDLE/ALARM]
 188:system.c      ****           if ((line[2] != 'L') || (line[3] != 'P') || (line[4] != 0)) { return(STATUS_INVALID_STATE
 672              		.loc 1 188 0
 673 02a4 7B68     		ldr	r3, [r7, #4]
 674 02a6 0233     		adds	r3, r3, #2
 675 02a8 1B78     		ldrb	r3, [r3]	@ zero_extendqisi2
 676 02aa 4C2B     		cmp	r3, #76
 677 02ac 09D1     		bne	.L63
 678              		.loc 1 188 0 is_stmt 0 discriminator 2
 679 02ae 7B68     		ldr	r3, [r7, #4]
 680 02b0 0333     		adds	r3, r3, #3
 681 02b2 1B78     		ldrb	r3, [r3]	@ zero_extendqisi2
 682 02b4 502B     		cmp	r3, #80
 683 02b6 04D1     		bne	.L63
 684              		.loc 1 188 0 discriminator 4
 685 02b8 7B68     		ldr	r3, [r7, #4]
 686 02ba 0433     		adds	r3, r3, #4
 687 02bc 1B78     		ldrb	r3, [r3]	@ zero_extendqisi2
 688 02be 002B     		cmp	r3, #0
 689 02c0 01D0     		beq	.L64
 690              	.L63:
 691              		.loc 1 188 0 discriminator 5
 692 02c2 0323     		movs	r3, #3
 693 02c4 29E1     		b	.L91
 694              	.L64:
 189:system.c      ****           system_set_exec_state_flag(EXEC_SLEEP); // Set to execute sleep mode immediately
 695              		.loc 1 189 0 is_stmt 1
 696 02c6 8020     		movs	r0, #128
 697 02c8 FFF7FEFF 		bl	system_set_exec_state_flag
 190:system.c      ****           break;
 698              		.loc 1 190 0
ARM GAS  C:\Users\barto\AppData\Local\Temp\cc1xUybq.s 			page 17


 699 02cc 24E1     		b	.L25
 700              	.L47:
 191:system.c      ****         case 'I' : // Print or store build info. [IDLE/ALARM]
 192:system.c      ****           if ( line[++char_counter] == 0 ) {
 701              		.loc 1 192 0
 702 02ce BB7D     		ldrb	r3, [r7, #22]	@ zero_extendqisi2
 703 02d0 0133     		adds	r3, r3, #1
 704 02d2 DBB2     		uxtb	r3, r3
 705 02d4 BB75     		strb	r3, [r7, #22]
 706 02d6 BB7D     		ldrb	r3, [r7, #22]	@ zero_extendqisi2
 707 02d8 1A46     		mov	r2, r3
 708 02da 7B68     		ldr	r3, [r7, #4]
 709 02dc 1344     		add	r3, r3, r2
 710 02de 1B78     		ldrb	r3, [r3]	@ zero_extendqisi2
 711 02e0 002B     		cmp	r3, #0
 712 02e2 06D1     		bne	.L65
 193:system.c      ****             settings_read_build_info(line);
 713              		.loc 1 193 0
 714 02e4 7868     		ldr	r0, [r7, #4]
 715 02e6 FFF7FEFF 		bl	settings_read_build_info
 194:system.c      ****             report_build_info(line);
 716              		.loc 1 194 0
 717 02ea 7868     		ldr	r0, [r7, #4]
 718 02ec FFF7FEFF 		bl	report_build_info
 195:system.c      ****           #ifdef ENABLE_BUILD_INFO_WRITE_COMMAND
 196:system.c      ****             } else { // Store startup line [IDLE/ALARM]
 197:system.c      ****               if(line[char_counter++] != '=') { return(STATUS_INVALID_STATEMENT); }
 198:system.c      ****               helper_var = char_counter; // Set helper variable as counter to start of user info li
 199:system.c      ****               do {
 200:system.c      ****                 line[char_counter-helper_var] = line[char_counter];
 201:system.c      ****               } while (line[char_counter++] != 0);
 202:system.c      ****               settings_store_build_info(line);
 203:system.c      ****           #endif
 204:system.c      ****           }
 205:system.c      ****           break;
 719              		.loc 1 205 0
 720 02f0 12E1     		b	.L25
 721              	.L65:
 197:system.c      ****               helper_var = char_counter; // Set helper variable as counter to start of user info li
 722              		.loc 1 197 0
 723 02f2 BB7D     		ldrb	r3, [r7, #22]	@ zero_extendqisi2
 724 02f4 5A1C     		adds	r2, r3, #1
 725 02f6 D2B2     		uxtb	r2, r2
 726 02f8 BA75     		strb	r2, [r7, #22]
 727 02fa 1A46     		mov	r2, r3
 728 02fc 7B68     		ldr	r3, [r7, #4]
 729 02fe 1344     		add	r3, r3, r2
 730 0300 1B78     		ldrb	r3, [r3]	@ zero_extendqisi2
 731 0302 3D2B     		cmp	r3, #61
 732 0304 06D0     		beq	.L67
 197:system.c      ****               helper_var = char_counter; // Set helper variable as counter to start of user info li
 733              		.loc 1 197 0 is_stmt 0 discriminator 1
 734 0306 0323     		movs	r3, #3
 735 0308 07E1     		b	.L91
 736              	.L98:
 737 030a 00BF     		.align	2
 738              	.L97:
ARM GAS  C:\Users\barto\AppData\Local\Temp\cc1xUybq.s 			page 18


 739 030c 00000000 		.word	sys
 740 0310 00000000 		.word	settings
 741              	.L67:
 198:system.c      ****               do {
 742              		.loc 1 198 0 is_stmt 1
 743 0314 BB7D     		ldrb	r3, [r7, #22]
 744 0316 FB75     		strb	r3, [r7, #23]
 745              	.L68:
 200:system.c      ****               } while (line[char_counter++] != 0);
 746              		.loc 1 200 0 discriminator 1
 747 0318 BB7D     		ldrb	r3, [r7, #22]	@ zero_extendqisi2
 748 031a 1A46     		mov	r2, r3
 749 031c FB7D     		ldrb	r3, [r7, #23]	@ zero_extendqisi2
 750 031e D31A     		subs	r3, r2, r3
 751 0320 1A46     		mov	r2, r3
 752 0322 7B68     		ldr	r3, [r7, #4]
 753 0324 1344     		add	r3, r3, r2
 754 0326 BA7D     		ldrb	r2, [r7, #22]	@ zero_extendqisi2
 755 0328 1146     		mov	r1, r2
 756 032a 7A68     		ldr	r2, [r7, #4]
 757 032c 0A44     		add	r2, r2, r1
 758 032e 1278     		ldrb	r2, [r2]	@ zero_extendqisi2
 759 0330 1A70     		strb	r2, [r3]
 201:system.c      ****               settings_store_build_info(line);
 760              		.loc 1 201 0 discriminator 1
 761 0332 BB7D     		ldrb	r3, [r7, #22]	@ zero_extendqisi2
 762 0334 5A1C     		adds	r2, r3, #1
 763 0336 D2B2     		uxtb	r2, r2
 764 0338 BA75     		strb	r2, [r7, #22]
 765 033a 1A46     		mov	r2, r3
 766 033c 7B68     		ldr	r3, [r7, #4]
 767 033e 1344     		add	r3, r3, r2
 768 0340 1B78     		ldrb	r3, [r3]	@ zero_extendqisi2
 769 0342 002B     		cmp	r3, #0
 770 0344 E8D1     		bne	.L68
 202:system.c      ****           #endif
 771              		.loc 1 202 0
 772 0346 7868     		ldr	r0, [r7, #4]
 773 0348 FFF7FEFF 		bl	settings_store_build_info
 774              		.loc 1 205 0
 775 034c E4E0     		b	.L25
 776              	.L49:
 206:system.c      ****         case 'R' : // Restore defaults [IDLE/ALARM]
 207:system.c      ****           if ((line[2] != 'S') || (line[3] != 'T') || (line[4] != '=') || (line[6] != 0)) { return(
 777              		.loc 1 207 0
 778 034e 7B68     		ldr	r3, [r7, #4]
 779 0350 0233     		adds	r3, r3, #2
 780 0352 1B78     		ldrb	r3, [r3]	@ zero_extendqisi2
 781 0354 532B     		cmp	r3, #83
 782 0356 0ED1     		bne	.L69
 783              		.loc 1 207 0 is_stmt 0 discriminator 2
 784 0358 7B68     		ldr	r3, [r7, #4]
 785 035a 0333     		adds	r3, r3, #3
 786 035c 1B78     		ldrb	r3, [r3]	@ zero_extendqisi2
 787 035e 542B     		cmp	r3, #84
 788 0360 09D1     		bne	.L69
 789              		.loc 1 207 0 discriminator 4
ARM GAS  C:\Users\barto\AppData\Local\Temp\cc1xUybq.s 			page 19


 790 0362 7B68     		ldr	r3, [r7, #4]
 791 0364 0433     		adds	r3, r3, #4
 792 0366 1B78     		ldrb	r3, [r3]	@ zero_extendqisi2
 793 0368 3D2B     		cmp	r3, #61
 794 036a 04D1     		bne	.L69
 795              		.loc 1 207 0 discriminator 6
 796 036c 7B68     		ldr	r3, [r7, #4]
 797 036e 0633     		adds	r3, r3, #6
 798 0370 1B78     		ldrb	r3, [r3]	@ zero_extendqisi2
 799 0372 002B     		cmp	r3, #0
 800 0374 01D0     		beq	.L70
 801              	.L69:
 802              		.loc 1 207 0 discriminator 7
 803 0376 0323     		movs	r3, #3
 804 0378 CFE0     		b	.L91
 805              	.L70:
 208:system.c      ****           switch (line[5]) {
 806              		.loc 1 208 0 is_stmt 1
 807 037a 7B68     		ldr	r3, [r7, #4]
 808 037c 0533     		adds	r3, r3, #5
 809 037e 1B78     		ldrb	r3, [r3]	@ zero_extendqisi2
 810 0380 242B     		cmp	r3, #36
 811 0382 04D0     		beq	.L72
 812 0384 2A2B     		cmp	r3, #42
 813 0386 0AD0     		beq	.L73
 814 0388 232B     		cmp	r3, #35
 815 038a 04D0     		beq	.L74
 816 038c 0BE0     		b	.L93
 817              	.L72:
 209:system.c      ****             #ifdef ENABLE_RESTORE_EEPROM_DEFAULT_SETTINGS
 210:system.c      ****               case '$': settings_restore(SETTINGS_RESTORE_DEFAULTS); break;
 818              		.loc 1 210 0
 819 038e 0120     		movs	r0, #1
 820 0390 FFF7FEFF 		bl	settings_restore
 821 0394 09E0     		b	.L75
 822              	.L74:
 211:system.c      ****             #endif
 212:system.c      ****             #ifdef ENABLE_RESTORE_EEPROM_CLEAR_PARAMETERS
 213:system.c      ****               case '#': settings_restore(SETTINGS_RESTORE_PARAMETERS); break;
 823              		.loc 1 213 0
 824 0396 0220     		movs	r0, #2
 825 0398 FFF7FEFF 		bl	settings_restore
 826 039c 05E0     		b	.L75
 827              	.L73:
 214:system.c      ****             #endif
 215:system.c      ****             #ifdef ENABLE_RESTORE_EEPROM_WIPE_ALL
 216:system.c      ****               case '*': settings_restore(SETTINGS_RESTORE_ALL); break;
 828              		.loc 1 216 0
 829 039e FF20     		movs	r0, #255
 830 03a0 FFF7FEFF 		bl	settings_restore
 831 03a4 01E0     		b	.L75
 832              	.L93:
 217:system.c      ****             #endif
 218:system.c      ****             default: return(STATUS_INVALID_STATEMENT);
 833              		.loc 1 218 0
 834 03a6 0323     		movs	r3, #3
 835 03a8 B7E0     		b	.L91
ARM GAS  C:\Users\barto\AppData\Local\Temp\cc1xUybq.s 			page 20


 836              	.L75:
 219:system.c      ****           }
 220:system.c      ****           report_feedback_message(MESSAGE_RESTORE_DEFAULTS);
 837              		.loc 1 220 0
 838 03aa 0920     		movs	r0, #9
 839 03ac FFF7FEFF 		bl	report_feedback_message
 221:system.c      ****           mc_reset(); // Force reset to ensure settings are initialized correctly.
 840              		.loc 1 221 0
 841 03b0 FFF7FEFF 		bl	mc_reset
 222:system.c      ****           break;
 842              		.loc 1 222 0
 843 03b4 B0E0     		b	.L25
 844              	.L48:
 223:system.c      ****         case 'N' : // Startup lines. [IDLE/ALARM]
 224:system.c      ****           if ( line[++char_counter] == 0 ) { // Print startup lines
 845              		.loc 1 224 0
 846 03b6 BB7D     		ldrb	r3, [r7, #22]	@ zero_extendqisi2
 847 03b8 0133     		adds	r3, r3, #1
 848 03ba DBB2     		uxtb	r3, r3
 849 03bc BB75     		strb	r3, [r7, #22]
 850 03be BB7D     		ldrb	r3, [r7, #22]	@ zero_extendqisi2
 851 03c0 1A46     		mov	r2, r3
 852 03c2 7B68     		ldr	r3, [r7, #4]
 853 03c4 1344     		add	r3, r3, r2
 854 03c6 1B78     		ldrb	r3, [r3]	@ zero_extendqisi2
 855 03c8 002B     		cmp	r3, #0
 856 03ca 1AD1     		bne	.L76
 225:system.c      ****             for (helper_var=0; helper_var < N_STARTUP_LINE; helper_var++) {
 857              		.loc 1 225 0
 858 03cc 0023     		movs	r3, #0
 859 03ce FB75     		strb	r3, [r7, #23]
 860 03d0 13E0     		b	.L77
 861              	.L80:
 226:system.c      ****               if (!(settings_read_startup_line(helper_var, line))) {
 862              		.loc 1 226 0
 863 03d2 FB7D     		ldrb	r3, [r7, #23]	@ zero_extendqisi2
 864 03d4 7968     		ldr	r1, [r7, #4]
 865 03d6 1846     		mov	r0, r3
 866 03d8 FFF7FEFF 		bl	settings_read_startup_line
 867 03dc 0346     		mov	r3, r0
 868 03de 002B     		cmp	r3, #0
 869 03e0 03D1     		bne	.L78
 227:system.c      ****                 report_status_message(STATUS_SETTING_READ_FAIL);
 870              		.loc 1 227 0
 871 03e2 0720     		movs	r0, #7
 872 03e4 FFF7FEFF 		bl	report_status_message
 873 03e8 04E0     		b	.L79
 874              	.L78:
 228:system.c      ****               } else {
 229:system.c      ****                 report_startup_line(helper_var,line);
 875              		.loc 1 229 0
 876 03ea FB7D     		ldrb	r3, [r7, #23]	@ zero_extendqisi2
 877 03ec 7968     		ldr	r1, [r7, #4]
 878 03ee 1846     		mov	r0, r3
 879 03f0 FFF7FEFF 		bl	report_startup_line
 880              	.L79:
 225:system.c      ****               if (!(settings_read_startup_line(helper_var, line))) {
ARM GAS  C:\Users\barto\AppData\Local\Temp\cc1xUybq.s 			page 21


 881              		.loc 1 225 0 discriminator 2
 882 03f4 FB7D     		ldrb	r3, [r7, #23]	@ zero_extendqisi2
 883 03f6 0133     		adds	r3, r3, #1
 884 03f8 FB75     		strb	r3, [r7, #23]
 885              	.L77:
 225:system.c      ****               if (!(settings_read_startup_line(helper_var, line))) {
 886              		.loc 1 225 0 is_stmt 0 discriminator 1
 887 03fa FB7D     		ldrb	r3, [r7, #23]	@ zero_extendqisi2
 888 03fc 012B     		cmp	r3, #1
 889 03fe E8D9     		bls	.L80
 230:system.c      ****               }
 231:system.c      ****             }
 232:system.c      ****             break;
 890              		.loc 1 232 0 is_stmt 1
 891 0400 8AE0     		b	.L25
 892              	.L76:
 233:system.c      ****           } else { // Store startup line [IDLE Only] Prevents motion during ALARM.
 234:system.c      ****             if (sys.state != STATE_IDLE) { return(STATUS_IDLE_ERROR); } // Store only when idle.
 893              		.loc 1 234 0
 894 0402 484B     		ldr	r3, .L99
 895 0404 1B78     		ldrb	r3, [r3]	@ zero_extendqisi2
 896 0406 002B     		cmp	r3, #0
 897 0408 01D0     		beq	.L81
 898              		.loc 1 234 0 is_stmt 0 discriminator 1
 899 040a 0823     		movs	r3, #8
 900 040c 85E0     		b	.L91
 901              	.L81:
 235:system.c      ****             helper_var = true;  // Set helper_var to flag storing method.
 902              		.loc 1 235 0 is_stmt 1
 903 040e 0123     		movs	r3, #1
 904 0410 FB75     		strb	r3, [r7, #23]
 905              	.L43:
 236:system.c      ****             // No break. Continues into default: to read remaining command characters.
 237:system.c      ****           }
 238:system.c      ****         default :  // Storing setting methods [IDLE/ALARM]
 239:system.c      ****           if(!read_float(line, &char_counter, &parameter)) { return(STATUS_BAD_NUMBER_FORMAT); }
 906              		.loc 1 239 0
 907 0412 07F11002 		add	r2, r7, #16
 908 0416 07F11603 		add	r3, r7, #22
 909 041a 1946     		mov	r1, r3
 910 041c 7868     		ldr	r0, [r7, #4]
 911 041e FFF7FEFF 		bl	read_float
 912 0422 0346     		mov	r3, r0
 913 0424 002B     		cmp	r3, #0
 914 0426 01D1     		bne	.L82
 915              		.loc 1 239 0 is_stmt 0 discriminator 1
 916 0428 0223     		movs	r3, #2
 917 042a 76E0     		b	.L91
 918              	.L82:
 240:system.c      ****           if(line[char_counter++] != '=') { return(STATUS_INVALID_STATEMENT); }
 919              		.loc 1 240 0 is_stmt 1
 920 042c BB7D     		ldrb	r3, [r7, #22]	@ zero_extendqisi2
 921 042e 5A1C     		adds	r2, r3, #1
 922 0430 D2B2     		uxtb	r2, r2
 923 0432 BA75     		strb	r2, [r7, #22]
 924 0434 1A46     		mov	r2, r3
 925 0436 7B68     		ldr	r3, [r7, #4]
ARM GAS  C:\Users\barto\AppData\Local\Temp\cc1xUybq.s 			page 22


 926 0438 1344     		add	r3, r3, r2
 927 043a 1B78     		ldrb	r3, [r3]	@ zero_extendqisi2
 928 043c 3D2B     		cmp	r3, #61
 929 043e 01D0     		beq	.L83
 930              		.loc 1 240 0 is_stmt 0 discriminator 1
 931 0440 0323     		movs	r3, #3
 932 0442 6AE0     		b	.L91
 933              	.L83:
 241:system.c      ****           if (helper_var) { // Store startup line
 934              		.loc 1 241 0 is_stmt 1
 935 0444 FB7D     		ldrb	r3, [r7, #23]	@ zero_extendqisi2
 936 0446 002B     		cmp	r3, #0
 937 0448 3AD0     		beq	.L84
 242:system.c      ****             // Prepare sending gcode block to gcode parser by shifting all characters
 243:system.c      ****             helper_var = char_counter; // Set helper variable as counter to start of gcode block
 938              		.loc 1 243 0
 939 044a BB7D     		ldrb	r3, [r7, #22]
 940 044c FB75     		strb	r3, [r7, #23]
 941              	.L85:
 244:system.c      ****             do {
 245:system.c      ****               line[char_counter-helper_var] = line[char_counter];
 942              		.loc 1 245 0 discriminator 1
 943 044e BB7D     		ldrb	r3, [r7, #22]	@ zero_extendqisi2
 944 0450 1A46     		mov	r2, r3
 945 0452 FB7D     		ldrb	r3, [r7, #23]	@ zero_extendqisi2
 946 0454 D31A     		subs	r3, r2, r3
 947 0456 1A46     		mov	r2, r3
 948 0458 7B68     		ldr	r3, [r7, #4]
 949 045a 1344     		add	r3, r3, r2
 950 045c BA7D     		ldrb	r2, [r7, #22]	@ zero_extendqisi2
 951 045e 1146     		mov	r1, r2
 952 0460 7A68     		ldr	r2, [r7, #4]
 953 0462 0A44     		add	r2, r2, r1
 954 0464 1278     		ldrb	r2, [r2]	@ zero_extendqisi2
 955 0466 1A70     		strb	r2, [r3]
 246:system.c      ****             } while (line[char_counter++] != 0);
 956              		.loc 1 246 0 discriminator 1
 957 0468 BB7D     		ldrb	r3, [r7, #22]	@ zero_extendqisi2
 958 046a 5A1C     		adds	r2, r3, #1
 959 046c D2B2     		uxtb	r2, r2
 960 046e BA75     		strb	r2, [r7, #22]
 961 0470 1A46     		mov	r2, r3
 962 0472 7B68     		ldr	r3, [r7, #4]
 963 0474 1344     		add	r3, r3, r2
 964 0476 1B78     		ldrb	r3, [r3]	@ zero_extendqisi2
 965 0478 002B     		cmp	r3, #0
 966 047a E8D1     		bne	.L85
 247:system.c      ****             // Execute gcode block to ensure block is valid.
 248:system.c      ****             helper_var = gc_execute_line(line); // Set helper_var to returned status code.
 967              		.loc 1 248 0
 968 047c 7868     		ldr	r0, [r7, #4]
 969 047e FFF7FEFF 		bl	gc_execute_line
 970 0482 0346     		mov	r3, r0
 971 0484 FB75     		strb	r3, [r7, #23]
 249:system.c      ****             if (helper_var) { return(helper_var); }
 972              		.loc 1 249 0
 973 0486 FB7D     		ldrb	r3, [r7, #23]	@ zero_extendqisi2
ARM GAS  C:\Users\barto\AppData\Local\Temp\cc1xUybq.s 			page 23


 974 0488 002B     		cmp	r3, #0
 975 048a 01D0     		beq	.L86
 976              		.loc 1 249 0 is_stmt 0 discriminator 1
 977 048c FB7D     		ldrb	r3, [r7, #23]	@ zero_extendqisi2
 978 048e 44E0     		b	.L91
 979              	.L86:
 250:system.c      ****             else {
 251:system.c      ****               helper_var = trunc(parameter); // Set helper_var to int value of parameter
 980              		.loc 1 251 0 is_stmt 1
 981 0490 3B69     		ldr	r3, [r7, #16]	@ float
 982 0492 1846     		mov	r0, r3
 983 0494 FFF7FEFF 		bl	__aeabi_f2d
 984 0498 0346     		mov	r3, r0
 985 049a 0C46     		mov	r4, r1
 986 049c 1846     		mov	r0, r3
 987 049e 2146     		mov	r1, r4
 988 04a0 FFF7FEFF 		bl	trunc
 989 04a4 0346     		mov	r3, r0
 990 04a6 0C46     		mov	r4, r1
 991 04a8 1846     		mov	r0, r3
 992 04aa 2146     		mov	r1, r4
 993 04ac FFF7FEFF 		bl	__aeabi_d2uiz
 994 04b0 0346     		mov	r3, r0
 995 04b2 FB75     		strb	r3, [r7, #23]
 252:system.c      ****               settings_store_startup_line(helper_var,line);
 996              		.loc 1 252 0
 997 04b4 FB7D     		ldrb	r3, [r7, #23]	@ zero_extendqisi2
 998 04b6 7968     		ldr	r1, [r7, #4]
 999 04b8 1846     		mov	r0, r3
 1000 04ba FFF7FEFF 		bl	settings_store_startup_line
 1001 04be 2BE0     		b	.L25
 1002              	.L84:
 253:system.c      ****             }
 254:system.c      ****           } else { // Store global setting.
 255:system.c      ****             if(!read_float(line, &char_counter, &value)) { return(STATUS_BAD_NUMBER_FORMAT); }
 1003              		.loc 1 255 0
 1004 04c0 07F10C02 		add	r2, r7, #12
 1005 04c4 07F11603 		add	r3, r7, #22
 1006 04c8 1946     		mov	r1, r3
 1007 04ca 7868     		ldr	r0, [r7, #4]
 1008 04cc FFF7FEFF 		bl	read_float
 1009 04d0 0346     		mov	r3, r0
 1010 04d2 002B     		cmp	r3, #0
 1011 04d4 01D1     		bne	.L87
 1012              		.loc 1 255 0 is_stmt 0 discriminator 1
 1013 04d6 0223     		movs	r3, #2
 1014 04d8 1FE0     		b	.L91
 1015              	.L87:
 256:system.c      ****             if((line[char_counter] != 0) || (parameter > 255)) { return(STATUS_INVALID_STATEMENT); 
 1016              		.loc 1 256 0 is_stmt 1
 1017 04da BB7D     		ldrb	r3, [r7, #22]	@ zero_extendqisi2
 1018 04dc 1A46     		mov	r2, r3
 1019 04de 7B68     		ldr	r3, [r7, #4]
 1020 04e0 1344     		add	r3, r3, r2
 1021 04e2 1B78     		ldrb	r3, [r3]	@ zero_extendqisi2
 1022 04e4 002B     		cmp	r3, #0
 1023 04e6 07D1     		bne	.L88
ARM GAS  C:\Users\barto\AppData\Local\Temp\cc1xUybq.s 			page 24


 1024              		.loc 1 256 0 is_stmt 0 discriminator 2
 1025 04e8 3B69     		ldr	r3, [r7, #16]	@ float
 1026 04ea 0F49     		ldr	r1, .L99+4
 1027 04ec 1846     		mov	r0, r3
 1028 04ee FFF7FEFF 		bl	__aeabi_fcmpgt
 1029 04f2 0346     		mov	r3, r0
 1030 04f4 002B     		cmp	r3, #0
 1031 04f6 01D0     		beq	.L94
 1032              	.L88:
 1033              		.loc 1 256 0 discriminator 3
 1034 04f8 0323     		movs	r3, #3
 1035 04fa 0EE0     		b	.L91
 1036              	.L94:
 257:system.c      ****             return(settings_store_global_setting((uint8_t)parameter, value));
 1037              		.loc 1 257 0 is_stmt 1
 1038 04fc 3B69     		ldr	r3, [r7, #16]	@ float
 1039 04fe 1846     		mov	r0, r3
 1040 0500 FFF7FEFF 		bl	__aeabi_f2uiz
 1041 0504 0346     		mov	r3, r0
 1042 0506 DBB2     		uxtb	r3, r3
 1043 0508 FA68     		ldr	r2, [r7, #12]	@ float
 1044 050a 1146     		mov	r1, r2
 1045 050c 1846     		mov	r0, r3
 1046 050e FFF7FEFF 		bl	settings_store_global_setting
 1047 0512 0346     		mov	r3, r0
 1048 0514 01E0     		b	.L91
 1049              	.L96:
 186:system.c      ****         case 'S' : // Puts Grbl to sleep [IDLE/ALARM]
 1050              		.loc 1 186 0
 1051 0516 00BF     		nop
 1052              	.L25:
 258:system.c      ****           }
 259:system.c      ****       }
 260:system.c      ****   }
 261:system.c      ****   return(STATUS_OK); // If '$' command makes it to here, then everything's ok.
 1053              		.loc 1 261 0
 1054 0518 0023     		movs	r3, #0
 1055              	.L91:
 262:system.c      **** }
 1056              		.loc 1 262 0 discriminator 3
 1057 051a 1846     		mov	r0, r3
 1058 051c 1C37     		adds	r7, r7, #28
 1059              		.cfi_def_cfa_offset 12
 1060 051e BD46     		mov	sp, r7
 1061              		.cfi_def_cfa_register 13
 1062              		@ sp needed
 1063 0520 90BD     		pop	{r4, r7, pc}
 1064              	.L100:
 1065 0522 00BF     		.align	2
 1066              	.L99:
 1067 0524 00000000 		.word	sys
 1068 0528 00007F43 		.word	1132396544
 1069              		.cfi_endproc
 1070              	.LFE69:
 1071              		.size	system_execute_line, .-system_execute_line
 1072              		.section	.text.system_flag_wco_change,"ax",%progbits
 1073              		.align	2
ARM GAS  C:\Users\barto\AppData\Local\Temp\cc1xUybq.s 			page 25


 1074              		.global	system_flag_wco_change
 1075              		.thumb
 1076              		.thumb_func
 1077              		.type	system_flag_wco_change, %function
 1078              	system_flag_wco_change:
 1079              	.LFB70:
 263:system.c      **** 
 264:system.c      **** 
 265:system.c      **** 
 266:system.c      **** void system_flag_wco_change()
 267:system.c      **** {
 1080              		.loc 1 267 0
 1081              		.cfi_startproc
 1082              		@ args = 0, pretend = 0, frame = 0
 1083              		@ frame_needed = 1, uses_anonymous_args = 0
 1084 0000 80B5     		push	{r7, lr}
 1085              		.cfi_def_cfa_offset 8
 1086              		.cfi_offset 7, -8
 1087              		.cfi_offset 14, -4
 1088 0002 00AF     		add	r7, sp, #0
 1089              		.cfi_def_cfa_register 7
 268:system.c      ****   #ifdef FORCE_BUFFER_SYNC_DURING_WCO_CHANGE
 269:system.c      ****     protocol_buffer_synchronize();
 1090              		.loc 1 269 0
 1091 0004 FFF7FEFF 		bl	protocol_buffer_synchronize
 270:system.c      ****   #endif
 271:system.c      ****   sys.report_wco_counter = 0;
 1092              		.loc 1 271 0
 1093 0008 024B     		ldr	r3, .L102
 1094 000a 0022     		movs	r2, #0
 1095 000c 1A73     		strb	r2, [r3, #12]
 272:system.c      **** }
 1096              		.loc 1 272 0
 1097 000e 00BF     		nop
 1098 0010 80BD     		pop	{r7, pc}
 1099              	.L103:
 1100 0012 00BF     		.align	2
 1101              	.L102:
 1102 0014 00000000 		.word	sys
 1103              		.cfi_endproc
 1104              	.LFE70:
 1105              		.size	system_flag_wco_change, .-system_flag_wco_change
 1106              		.global	__aeabi_i2f
 1107              		.global	__aeabi_fdiv
 1108              		.section	.text.system_convert_axis_steps_to_mpos,"ax",%progbits
 1109              		.align	2
 1110              		.global	system_convert_axis_steps_to_mpos
 1111              		.thumb
 1112              		.thumb_func
 1113              		.type	system_convert_axis_steps_to_mpos, %function
 1114              	system_convert_axis_steps_to_mpos:
 1115              	.LFB71:
 273:system.c      **** 
 274:system.c      **** 
 275:system.c      **** // Returns machine position of axis 'idx'. Must be sent a 'step' array.
 276:system.c      **** // NOTE: If motor steps and machine position are not in the same coordinate frame, this function
 277:system.c      **** //   serves as a central place to compute the transformation.
ARM GAS  C:\Users\barto\AppData\Local\Temp\cc1xUybq.s 			page 26


 278:system.c      **** float system_convert_axis_steps_to_mpos(int32_t *steps, uint8_t idx)
 279:system.c      **** {
 1116              		.loc 1 279 0
 1117              		.cfi_startproc
 1118              		@ args = 0, pretend = 0, frame = 16
 1119              		@ frame_needed = 1, uses_anonymous_args = 0
 1120 0000 80B5     		push	{r7, lr}
 1121              		.cfi_def_cfa_offset 8
 1122              		.cfi_offset 7, -8
 1123              		.cfi_offset 14, -4
 1124 0002 84B0     		sub	sp, sp, #16
 1125              		.cfi_def_cfa_offset 24
 1126 0004 00AF     		add	r7, sp, #0
 1127              		.cfi_def_cfa_register 7
 1128 0006 7860     		str	r0, [r7, #4]
 1129 0008 0B46     		mov	r3, r1
 1130 000a FB70     		strb	r3, [r7, #3]
 280:system.c      ****   float pos;
 281:system.c      ****   #ifdef COREXY
 282:system.c      ****     if (idx==X_AXIS) {
 1131              		.loc 1 282 0
 1132 000c FB78     		ldrb	r3, [r7, #3]	@ zero_extendqisi2
 1133 000e 002B     		cmp	r3, #0
 1134 0010 10D1     		bne	.L105
 283:system.c      ****       pos = (float)system_convert_corexy_to_x_axis_steps(steps) / settings.steps_per_mm[idx];
 1135              		.loc 1 283 0
 1136 0012 7868     		ldr	r0, [r7, #4]
 1137 0014 FFF7FEFF 		bl	system_convert_corexy_to_x_axis_steps
 1138 0018 0346     		mov	r3, r0
 1139 001a 1846     		mov	r0, r3
 1140 001c FFF7FEFF 		bl	__aeabi_i2f
 1141 0020 FB78     		ldrb	r3, [r7, #3]	@ zero_extendqisi2
 1142 0022 194A     		ldr	r2, .L109
 1143 0024 52F82330 		ldr	r3, [r2, r3, lsl #2]	@ float
 1144 0028 1946     		mov	r1, r3
 1145 002a FFF7FEFF 		bl	__aeabi_fdiv
 1146 002e 0346     		mov	r3, r0
 1147 0030 FB60     		str	r3, [r7, #12]	@ float
 1148 0032 24E0     		b	.L106
 1149              	.L105:
 284:system.c      ****     } else if (idx==Y_AXIS) {
 1150              		.loc 1 284 0
 1151 0034 FB78     		ldrb	r3, [r7, #3]	@ zero_extendqisi2
 1152 0036 012B     		cmp	r3, #1
 1153 0038 10D1     		bne	.L107
 285:system.c      ****       pos = (float)system_convert_corexy_to_y_axis_steps(steps) / settings.steps_per_mm[idx];
 1154              		.loc 1 285 0
 1155 003a 7868     		ldr	r0, [r7, #4]
 1156 003c FFF7FEFF 		bl	system_convert_corexy_to_y_axis_steps
 1157 0040 0346     		mov	r3, r0
 1158 0042 1846     		mov	r0, r3
 1159 0044 FFF7FEFF 		bl	__aeabi_i2f
 1160 0048 FB78     		ldrb	r3, [r7, #3]	@ zero_extendqisi2
 1161 004a 0F4A     		ldr	r2, .L109
 1162 004c 52F82330 		ldr	r3, [r2, r3, lsl #2]	@ float
 1163 0050 1946     		mov	r1, r3
 1164 0052 FFF7FEFF 		bl	__aeabi_fdiv
ARM GAS  C:\Users\barto\AppData\Local\Temp\cc1xUybq.s 			page 27


 1165 0056 0346     		mov	r3, r0
 1166 0058 FB60     		str	r3, [r7, #12]	@ float
 1167 005a 10E0     		b	.L106
 1168              	.L107:
 286:system.c      ****     } else {
 287:system.c      ****       pos = steps[idx]/settings.steps_per_mm[idx];
 1169              		.loc 1 287 0
 1170 005c FB78     		ldrb	r3, [r7, #3]	@ zero_extendqisi2
 1171 005e 9B00     		lsls	r3, r3, #2
 1172 0060 7A68     		ldr	r2, [r7, #4]
 1173 0062 1344     		add	r3, r3, r2
 1174 0064 1B68     		ldr	r3, [r3]
 1175 0066 1846     		mov	r0, r3
 1176 0068 FFF7FEFF 		bl	__aeabi_i2f
 1177 006c FB78     		ldrb	r3, [r7, #3]	@ zero_extendqisi2
 1178 006e 064A     		ldr	r2, .L109
 1179 0070 52F82330 		ldr	r3, [r2, r3, lsl #2]	@ float
 1180 0074 1946     		mov	r1, r3
 1181 0076 FFF7FEFF 		bl	__aeabi_fdiv
 1182 007a 0346     		mov	r3, r0
 1183 007c FB60     		str	r3, [r7, #12]	@ float
 1184              	.L106:
 288:system.c      ****     }
 289:system.c      ****   #else
 290:system.c      ****     pos = steps[idx]/settings.steps_per_mm[idx];
 291:system.c      ****   #endif
 292:system.c      ****   return(pos);
 1185              		.loc 1 292 0
 1186 007e FB68     		ldr	r3, [r7, #12]	@ float
 293:system.c      **** }
 1187              		.loc 1 293 0
 1188 0080 1846     		mov	r0, r3
 1189 0082 1037     		adds	r7, r7, #16
 1190              		.cfi_def_cfa_offset 8
 1191 0084 BD46     		mov	sp, r7
 1192              		.cfi_def_cfa_register 13
 1193              		@ sp needed
 1194 0086 80BD     		pop	{r7, pc}
 1195              	.L110:
 1196              		.align	2
 1197              	.L109:
 1198 0088 00000000 		.word	settings
 1199              		.cfi_endproc
 1200              	.LFE71:
 1201              		.size	system_convert_axis_steps_to_mpos, .-system_convert_axis_steps_to_mpos
 1202              		.section	.text.system_convert_array_steps_to_mpos,"ax",%progbits
 1203              		.align	2
 1204              		.global	system_convert_array_steps_to_mpos
 1205              		.thumb
 1206              		.thumb_func
 1207              		.type	system_convert_array_steps_to_mpos, %function
 1208              	system_convert_array_steps_to_mpos:
 1209              	.LFB72:
 294:system.c      **** 
 295:system.c      **** 
 296:system.c      **** void system_convert_array_steps_to_mpos(float *position, int32_t *steps)
 297:system.c      **** {
ARM GAS  C:\Users\barto\AppData\Local\Temp\cc1xUybq.s 			page 28


 1210              		.loc 1 297 0
 1211              		.cfi_startproc
 1212              		@ args = 0, pretend = 0, frame = 16
 1213              		@ frame_needed = 1, uses_anonymous_args = 0
 1214 0000 90B5     		push	{r4, r7, lr}
 1215              		.cfi_def_cfa_offset 12
 1216              		.cfi_offset 4, -12
 1217              		.cfi_offset 7, -8
 1218              		.cfi_offset 14, -4
 1219 0002 85B0     		sub	sp, sp, #20
 1220              		.cfi_def_cfa_offset 32
 1221 0004 00AF     		add	r7, sp, #0
 1222              		.cfi_def_cfa_register 7
 1223 0006 7860     		str	r0, [r7, #4]
 1224 0008 3960     		str	r1, [r7]
 298:system.c      ****   uint8_t idx;
 299:system.c      ****   for (idx=0; idx<N_AXIS; idx++) {
 1225              		.loc 1 299 0
 1226 000a 0023     		movs	r3, #0
 1227 000c FB73     		strb	r3, [r7, #15]
 1228 000e 0DE0     		b	.L112
 1229              	.L113:
 300:system.c      ****     position[idx] = system_convert_axis_steps_to_mpos(steps, idx);
 1230              		.loc 1 300 0 discriminator 3
 1231 0010 FB7B     		ldrb	r3, [r7, #15]	@ zero_extendqisi2
 1232 0012 9B00     		lsls	r3, r3, #2
 1233 0014 7A68     		ldr	r2, [r7, #4]
 1234 0016 D418     		adds	r4, r2, r3
 1235 0018 FB7B     		ldrb	r3, [r7, #15]	@ zero_extendqisi2
 1236 001a 1946     		mov	r1, r3
 1237 001c 3868     		ldr	r0, [r7]
 1238 001e FFF7FEFF 		bl	system_convert_axis_steps_to_mpos
 1239 0022 0346     		mov	r3, r0
 1240 0024 2360     		str	r3, [r4]	@ float
 299:system.c      ****     position[idx] = system_convert_axis_steps_to_mpos(steps, idx);
 1241              		.loc 1 299 0 discriminator 3
 1242 0026 FB7B     		ldrb	r3, [r7, #15]	@ zero_extendqisi2
 1243 0028 0133     		adds	r3, r3, #1
 1244 002a FB73     		strb	r3, [r7, #15]
 1245              	.L112:
 299:system.c      ****     position[idx] = system_convert_axis_steps_to_mpos(steps, idx);
 1246              		.loc 1 299 0 is_stmt 0 discriminator 1
 1247 002c FB7B     		ldrb	r3, [r7, #15]	@ zero_extendqisi2
 1248 002e 022B     		cmp	r3, #2
 1249 0030 EED9     		bls	.L113
 301:system.c      ****   }
 302:system.c      ****   return;
 1250              		.loc 1 302 0 is_stmt 1
 1251 0032 00BF     		nop
 303:system.c      **** }
 1252              		.loc 1 303 0
 1253 0034 1437     		adds	r7, r7, #20
 1254              		.cfi_def_cfa_offset 12
 1255 0036 BD46     		mov	sp, r7
 1256              		.cfi_def_cfa_register 13
 1257              		@ sp needed
 1258 0038 90BD     		pop	{r4, r7, pc}
ARM GAS  C:\Users\barto\AppData\Local\Temp\cc1xUybq.s 			page 29


 1259              		.cfi_endproc
 1260              	.LFE72:
 1261              		.size	system_convert_array_steps_to_mpos, .-system_convert_array_steps_to_mpos
 1262 003a 00BF     		.section	.text.system_convert_corexy_to_x_axis_steps,"ax",%progbits
 1263              		.align	2
 1264              		.global	system_convert_corexy_to_x_axis_steps
 1265              		.thumb
 1266              		.thumb_func
 1267              		.type	system_convert_corexy_to_x_axis_steps, %function
 1268              	system_convert_corexy_to_x_axis_steps:
 1269              	.LFB73:
 304:system.c      **** 
 305:system.c      **** 
 306:system.c      **** // CoreXY calculation only. Returns x or y-axis "steps" based on CoreXY motor steps.
 307:system.c      **** #ifdef COREXY
 308:system.c      ****   int32_t system_convert_corexy_to_x_axis_steps(int32_t *steps)
 309:system.c      ****   {
 1270              		.loc 1 309 0
 1271              		.cfi_startproc
 1272              		@ args = 0, pretend = 0, frame = 8
 1273              		@ frame_needed = 1, uses_anonymous_args = 0
 1274              		@ link register save eliminated.
 1275 0000 80B4     		push	{r7}
 1276              		.cfi_def_cfa_offset 4
 1277              		.cfi_offset 7, -4
 1278 0002 83B0     		sub	sp, sp, #12
 1279              		.cfi_def_cfa_offset 16
 1280 0004 00AF     		add	r7, sp, #0
 1281              		.cfi_def_cfa_register 7
 1282 0006 7860     		str	r0, [r7, #4]
 310:system.c      ****     return( (steps[A_MOTOR] + steps[B_MOTOR])/2 );
 1283              		.loc 1 310 0
 1284 0008 7B68     		ldr	r3, [r7, #4]
 1285 000a 1A68     		ldr	r2, [r3]
 1286 000c 7B68     		ldr	r3, [r7, #4]
 1287 000e 0433     		adds	r3, r3, #4
 1288 0010 1B68     		ldr	r3, [r3]
 1289 0012 1344     		add	r3, r3, r2
 1290 0014 DA0F     		lsrs	r2, r3, #31
 1291 0016 1344     		add	r3, r3, r2
 1292 0018 5B10     		asrs	r3, r3, #1
 311:system.c      ****   }
 1293              		.loc 1 311 0
 1294 001a 1846     		mov	r0, r3
 1295 001c 0C37     		adds	r7, r7, #12
 1296              		.cfi_def_cfa_offset 4
 1297 001e BD46     		mov	sp, r7
 1298              		.cfi_def_cfa_register 13
 1299              		@ sp needed
 1300 0020 80BC     		pop	{r7}
 1301              		.cfi_restore 7
 1302              		.cfi_def_cfa_offset 0
 1303 0022 7047     		bx	lr
 1304              		.cfi_endproc
 1305              	.LFE73:
 1306              		.size	system_convert_corexy_to_x_axis_steps, .-system_convert_corexy_to_x_axis_steps
 1307              		.section	.text.system_convert_corexy_to_y_axis_steps,"ax",%progbits
ARM GAS  C:\Users\barto\AppData\Local\Temp\cc1xUybq.s 			page 30


 1308              		.align	2
 1309              		.global	system_convert_corexy_to_y_axis_steps
 1310              		.thumb
 1311              		.thumb_func
 1312              		.type	system_convert_corexy_to_y_axis_steps, %function
 1313              	system_convert_corexy_to_y_axis_steps:
 1314              	.LFB74:
 312:system.c      ****   int32_t system_convert_corexy_to_y_axis_steps(int32_t *steps)
 313:system.c      ****   {
 1315              		.loc 1 313 0
 1316              		.cfi_startproc
 1317              		@ args = 0, pretend = 0, frame = 8
 1318              		@ frame_needed = 1, uses_anonymous_args = 0
 1319              		@ link register save eliminated.
 1320 0000 80B4     		push	{r7}
 1321              		.cfi_def_cfa_offset 4
 1322              		.cfi_offset 7, -4
 1323 0002 83B0     		sub	sp, sp, #12
 1324              		.cfi_def_cfa_offset 16
 1325 0004 00AF     		add	r7, sp, #0
 1326              		.cfi_def_cfa_register 7
 1327 0006 7860     		str	r0, [r7, #4]
 314:system.c      ****     return( (steps[A_MOTOR] - steps[B_MOTOR])/2 );
 1328              		.loc 1 314 0
 1329 0008 7B68     		ldr	r3, [r7, #4]
 1330 000a 1A68     		ldr	r2, [r3]
 1331 000c 7B68     		ldr	r3, [r7, #4]
 1332 000e 0433     		adds	r3, r3, #4
 1333 0010 1B68     		ldr	r3, [r3]
 1334 0012 D31A     		subs	r3, r2, r3
 1335 0014 DA0F     		lsrs	r2, r3, #31
 1336 0016 1344     		add	r3, r3, r2
 1337 0018 5B10     		asrs	r3, r3, #1
 315:system.c      ****   }
 1338              		.loc 1 315 0
 1339 001a 1846     		mov	r0, r3
 1340 001c 0C37     		adds	r7, r7, #12
 1341              		.cfi_def_cfa_offset 4
 1342 001e BD46     		mov	sp, r7
 1343              		.cfi_def_cfa_register 13
 1344              		@ sp needed
 1345 0020 80BC     		pop	{r7}
 1346              		.cfi_restore 7
 1347              		.cfi_def_cfa_offset 0
 1348 0022 7047     		bx	lr
 1349              		.cfi_endproc
 1350              	.LFE74:
 1351              		.size	system_convert_corexy_to_y_axis_steps, .-system_convert_corexy_to_y_axis_steps
 1352              		.global	__aeabi_fcmpeq
 1353              		.global	__aeabi_fcmplt
 1354              		.section	.text.system_check_travel_limits,"ax",%progbits
 1355              		.align	2
 1356              		.global	system_check_travel_limits
 1357              		.thumb
 1358              		.thumb_func
 1359              		.type	system_check_travel_limits, %function
 1360              	system_check_travel_limits:
ARM GAS  C:\Users\barto\AppData\Local\Temp\cc1xUybq.s 			page 31


 1361              	.LFB75:
 316:system.c      **** #endif
 317:system.c      **** 
 318:system.c      **** 
 319:system.c      **** // Checks and reports if target array exceeds machine travel limits.
 320:system.c      **** uint8_t system_check_travel_limits(float *target)
 321:system.c      **** {
 1362              		.loc 1 321 0
 1363              		.cfi_startproc
 1364              		@ args = 0, pretend = 0, frame = 16
 1365              		@ frame_needed = 1, uses_anonymous_args = 0
 1366 0000 80B5     		push	{r7, lr}
 1367              		.cfi_def_cfa_offset 8
 1368              		.cfi_offset 7, -8
 1369              		.cfi_offset 14, -4
 1370 0002 84B0     		sub	sp, sp, #16
 1371              		.cfi_def_cfa_offset 24
 1372 0004 00AF     		add	r7, sp, #0
 1373              		.cfi_def_cfa_register 7
 1374 0006 7860     		str	r0, [r7, #4]
 322:system.c      ****    uint8_t idx;
 323:system.c      ****   for (idx=0; idx<N_AXIS; idx++) {
 1375              		.loc 1 323 0
 1376 0008 0023     		movs	r3, #0
 1377 000a FB73     		strb	r3, [r7, #15]
 1378 000c 30E0     		b	.L120
 1379              	.L126:
 324:system.c      ****     // allow disabling soft limit per axis by setting max travel to zero
 325:system.c      ****     if (settings.max_travel[idx]) {
 1380              		.loc 1 325 0
 1381 000e FB7B     		ldrb	r3, [r7, #15]	@ zero_extendqisi2
 1382 0010 1B4A     		ldr	r2, .L128
 1383 0012 0833     		adds	r3, r3, #8
 1384 0014 9B00     		lsls	r3, r3, #2
 1385 0016 1344     		add	r3, r3, r2
 1386 0018 5B68     		ldr	r3, [r3, #4]	@ float
 1387 001a 4FF00001 		mov	r1, #0
 1388 001e 1846     		mov	r0, r3
 1389 0020 FFF7FEFF 		bl	__aeabi_fcmpeq
 1390 0024 0346     		mov	r3, r0
 1391 0026 002B     		cmp	r3, #0
 1392 0028 1FD1     		bne	.L121
 326:system.c      ****       #ifdef HOMING_FORCE_SET_ORIGIN
 327:system.c      ****         // When homing forced set origin is enabled, soft limits checks need to account for directi
 328:system.c      ****         // NOTE: max_travel is stored as negative
 329:system.c      ****         if (bit_istrue(settings.homing_dir_mask,bit(idx))) {
 330:system.c      ****           if (target[idx] < 0 || target[idx] > -settings.max_travel[idx]) { return(true); }
 331:system.c      ****         } else {
 332:system.c      ****           if (target[idx] > 0 || target[idx] < settings.max_travel[idx]) { return(true); }
 333:system.c      ****         }
 334:system.c      ****       #else
 335:system.c      ****         // NOTE: max_travel is stored as negative
 336:system.c      ****         if (target[idx] > 0 || target[idx] < settings.max_travel[idx]) { return(true); }
 1393              		.loc 1 336 0
 1394 002a FB7B     		ldrb	r3, [r7, #15]	@ zero_extendqisi2
 1395 002c 9B00     		lsls	r3, r3, #2
 1396 002e 7A68     		ldr	r2, [r7, #4]
ARM GAS  C:\Users\barto\AppData\Local\Temp\cc1xUybq.s 			page 32


 1397 0030 1344     		add	r3, r3, r2
 1398 0032 1B68     		ldr	r3, [r3]	@ float
 1399 0034 4FF00001 		mov	r1, #0
 1400 0038 1846     		mov	r0, r3
 1401 003a FFF7FEFF 		bl	__aeabi_fcmpgt
 1402 003e 0346     		mov	r3, r0
 1403 0040 002B     		cmp	r3, #0
 1404 0042 10D1     		bne	.L123
 1405              		.loc 1 336 0 is_stmt 0 discriminator 2
 1406 0044 FB7B     		ldrb	r3, [r7, #15]	@ zero_extendqisi2
 1407 0046 9B00     		lsls	r3, r3, #2
 1408 0048 7A68     		ldr	r2, [r7, #4]
 1409 004a 1344     		add	r3, r3, r2
 1410 004c 1868     		ldr	r0, [r3]	@ float
 1411 004e FB7B     		ldrb	r3, [r7, #15]	@ zero_extendqisi2
 1412 0050 0B4A     		ldr	r2, .L128
 1413 0052 0833     		adds	r3, r3, #8
 1414 0054 9B00     		lsls	r3, r3, #2
 1415 0056 1344     		add	r3, r3, r2
 1416 0058 5B68     		ldr	r3, [r3, #4]	@ float
 1417 005a 1946     		mov	r1, r3
 1418 005c FFF7FEFF 		bl	__aeabi_fcmplt
 1419 0060 0346     		mov	r3, r0
 1420 0062 002B     		cmp	r3, #0
 1421 0064 01D0     		beq	.L121
 1422              	.L123:
 1423              		.loc 1 336 0 discriminator 3
 1424 0066 0123     		movs	r3, #1
 1425 0068 06E0     		b	.L125
 1426              	.L121:
 323:system.c      ****     // allow disabling soft limit per axis by setting max travel to zero
 1427              		.loc 1 323 0 is_stmt 1 discriminator 2
 1428 006a FB7B     		ldrb	r3, [r7, #15]	@ zero_extendqisi2
 1429 006c 0133     		adds	r3, r3, #1
 1430 006e FB73     		strb	r3, [r7, #15]
 1431              	.L120:
 323:system.c      ****     // allow disabling soft limit per axis by setting max travel to zero
 1432              		.loc 1 323 0 is_stmt 0 discriminator 1
 1433 0070 FB7B     		ldrb	r3, [r7, #15]	@ zero_extendqisi2
 1434 0072 022B     		cmp	r3, #2
 1435 0074 CBD9     		bls	.L126
 337:system.c      ****     #endif
 338:system.c      ****   }
 339:system.c      ****   }
 340:system.c      ****   return(false);
 1436              		.loc 1 340 0 is_stmt 1
 1437 0076 0023     		movs	r3, #0
 1438              	.L125:
 341:system.c      **** }
 1439              		.loc 1 341 0
 1440 0078 1846     		mov	r0, r3
 1441 007a 1037     		adds	r7, r7, #16
 1442              		.cfi_def_cfa_offset 8
 1443 007c BD46     		mov	sp, r7
 1444              		.cfi_def_cfa_register 13
 1445              		@ sp needed
 1446 007e 80BD     		pop	{r7, pc}
ARM GAS  C:\Users\barto\AppData\Local\Temp\cc1xUybq.s 			page 33


 1447              	.L129:
 1448              		.align	2
 1449              	.L128:
 1450 0080 00000000 		.word	settings
 1451              		.cfi_endproc
 1452              	.LFE75:
 1453              		.size	system_check_travel_limits, .-system_check_travel_limits
 1454              		.section	.text.system_set_exec_state_flag,"ax",%progbits
 1455              		.align	2
 1456              		.global	system_set_exec_state_flag
 1457              		.thumb
 1458              		.thumb_func
 1459              		.type	system_set_exec_state_flag, %function
 1460              	system_set_exec_state_flag:
 1461              	.LFB76:
 342:system.c      **** 
 343:system.c      **** 
 344:system.c      **** // Special handlers for setting and clearing Grbl's real-time execution flags.
 345:system.c      **** void system_set_exec_state_flag(uint8_t mask) {  
 1462              		.loc 1 345 0
 1463              		.cfi_startproc
 1464              		@ args = 0, pretend = 0, frame = 8
 1465              		@ frame_needed = 1, uses_anonymous_args = 0
 1466              		@ link register save eliminated.
 1467 0000 80B4     		push	{r7}
 1468              		.cfi_def_cfa_offset 4
 1469              		.cfi_offset 7, -4
 1470 0002 83B0     		sub	sp, sp, #12
 1471              		.cfi_def_cfa_offset 16
 1472 0004 00AF     		add	r7, sp, #0
 1473              		.cfi_def_cfa_register 7
 1474 0006 0346     		mov	r3, r0
 1475 0008 FB71     		strb	r3, [r7, #7]
 346:system.c      ****   CyGlobalIntDisable; 
 1476              		.loc 1 346 0
 1477              		.syntax unified
 1478              	@ 346 "system.c" 1
 1479 000a 72B6     		CPSID   i
 1480              	@ 0 "" 2
 347:system.c      ****   sys_rt_exec_state |= (mask);
 1481              		.loc 1 347 0
 1482              		.thumb
 1483              		.syntax unified
 1484 000c 064B     		ldr	r3, .L131
 1485 000e 1B78     		ldrb	r3, [r3]
 1486 0010 DAB2     		uxtb	r2, r3
 1487 0012 FB79     		ldrb	r3, [r7, #7]
 1488 0014 1343     		orrs	r3, r3, r2
 1489 0016 DAB2     		uxtb	r2, r3
 1490 0018 034B     		ldr	r3, .L131
 1491 001a 1A70     		strb	r2, [r3]
 348:system.c      ****   CyGlobalIntEnable;
 1492              		.loc 1 348 0
 1493              		.syntax unified
 1494              	@ 348 "system.c" 1
 1495 001c 62B6     		CPSIE   i
 1496              	@ 0 "" 2
ARM GAS  C:\Users\barto\AppData\Local\Temp\cc1xUybq.s 			page 34


 349:system.c      **** }
 1497              		.loc 1 349 0
 1498              		.thumb
 1499              		.syntax unified
 1500 001e 00BF     		nop
 1501 0020 0C37     		adds	r7, r7, #12
 1502              		.cfi_def_cfa_offset 4
 1503 0022 BD46     		mov	sp, r7
 1504              		.cfi_def_cfa_register 13
 1505              		@ sp needed
 1506 0024 80BC     		pop	{r7}
 1507              		.cfi_restore 7
 1508              		.cfi_def_cfa_offset 0
 1509 0026 7047     		bx	lr
 1510              	.L132:
 1511              		.align	2
 1512              	.L131:
 1513 0028 00000000 		.word	sys_rt_exec_state
 1514              		.cfi_endproc
 1515              	.LFE76:
 1516              		.size	system_set_exec_state_flag, .-system_set_exec_state_flag
 1517              		.section	.text.system_clear_exec_state_flag,"ax",%progbits
 1518              		.align	2
 1519              		.global	system_clear_exec_state_flag
 1520              		.thumb
 1521              		.thumb_func
 1522              		.type	system_clear_exec_state_flag, %function
 1523              	system_clear_exec_state_flag:
 1524              	.LFB77:
 350:system.c      **** 
 351:system.c      **** void system_clear_exec_state_flag(uint8_t mask) {
 1525              		.loc 1 351 0
 1526              		.cfi_startproc
 1527              		@ args = 0, pretend = 0, frame = 8
 1528              		@ frame_needed = 1, uses_anonymous_args = 0
 1529              		@ link register save eliminated.
 1530 0000 80B4     		push	{r7}
 1531              		.cfi_def_cfa_offset 4
 1532              		.cfi_offset 7, -4
 1533 0002 83B0     		sub	sp, sp, #12
 1534              		.cfi_def_cfa_offset 16
 1535 0004 00AF     		add	r7, sp, #0
 1536              		.cfi_def_cfa_register 7
 1537 0006 0346     		mov	r3, r0
 1538 0008 FB71     		strb	r3, [r7, #7]
 352:system.c      ****   CyGlobalIntDisable; 
 1539              		.loc 1 352 0
 1540              		.syntax unified
 1541              	@ 352 "system.c" 1
 1542 000a 72B6     		CPSID   i
 1543              	@ 0 "" 2
 353:system.c      ****   sys_rt_exec_state &= ~(mask);
 1544              		.loc 1 353 0
 1545              		.thumb
 1546              		.syntax unified
 1547 000c 97F90730 		ldrsb	r3, [r7, #7]
 1548 0010 DB43     		mvns	r3, r3
ARM GAS  C:\Users\barto\AppData\Local\Temp\cc1xUybq.s 			page 35


 1549 0012 5AB2     		sxtb	r2, r3
 1550 0014 074B     		ldr	r3, .L134
 1551 0016 1B78     		ldrb	r3, [r3]
 1552 0018 DBB2     		uxtb	r3, r3
 1553 001a 5BB2     		sxtb	r3, r3
 1554 001c 1340     		ands	r3, r3, r2
 1555 001e 5BB2     		sxtb	r3, r3
 1556 0020 DAB2     		uxtb	r2, r3
 1557 0022 044B     		ldr	r3, .L134
 1558 0024 1A70     		strb	r2, [r3]
 354:system.c      ****   CyGlobalIntEnable;
 1559              		.loc 1 354 0
 1560              		.syntax unified
 1561              	@ 354 "system.c" 1
 1562 0026 62B6     		CPSIE   i
 1563              	@ 0 "" 2
 355:system.c      **** }
 1564              		.loc 1 355 0
 1565              		.thumb
 1566              		.syntax unified
 1567 0028 00BF     		nop
 1568 002a 0C37     		adds	r7, r7, #12
 1569              		.cfi_def_cfa_offset 4
 1570 002c BD46     		mov	sp, r7
 1571              		.cfi_def_cfa_register 13
 1572              		@ sp needed
 1573 002e 80BC     		pop	{r7}
 1574              		.cfi_restore 7
 1575              		.cfi_def_cfa_offset 0
 1576 0030 7047     		bx	lr
 1577              	.L135:
 1578 0032 00BF     		.align	2
 1579              	.L134:
 1580 0034 00000000 		.word	sys_rt_exec_state
 1581              		.cfi_endproc
 1582              	.LFE77:
 1583              		.size	system_clear_exec_state_flag, .-system_clear_exec_state_flag
 1584              		.section	.text.system_set_exec_alarm,"ax",%progbits
 1585              		.align	2
 1586              		.global	system_set_exec_alarm
 1587              		.thumb
 1588              		.thumb_func
 1589              		.type	system_set_exec_alarm, %function
 1590              	system_set_exec_alarm:
 1591              	.LFB78:
 356:system.c      **** 
 357:system.c      **** void system_set_exec_alarm(uint8_t code) {
 1592              		.loc 1 357 0
 1593              		.cfi_startproc
 1594              		@ args = 0, pretend = 0, frame = 8
 1595              		@ frame_needed = 1, uses_anonymous_args = 0
 1596              		@ link register save eliminated.
 1597 0000 80B4     		push	{r7}
 1598              		.cfi_def_cfa_offset 4
 1599              		.cfi_offset 7, -4
 1600 0002 83B0     		sub	sp, sp, #12
 1601              		.cfi_def_cfa_offset 16
ARM GAS  C:\Users\barto\AppData\Local\Temp\cc1xUybq.s 			page 36


 1602 0004 00AF     		add	r7, sp, #0
 1603              		.cfi_def_cfa_register 7
 1604 0006 0346     		mov	r3, r0
 1605 0008 FB71     		strb	r3, [r7, #7]
 358:system.c      ****   CyGlobalIntDisable;  
 1606              		.loc 1 358 0
 1607              		.syntax unified
 1608              	@ 358 "system.c" 1
 1609 000a 72B6     		CPSID   i
 1610              	@ 0 "" 2
 359:system.c      ****   sys_rt_exec_alarm = code;
 1611              		.loc 1 359 0
 1612              		.thumb
 1613              		.syntax unified
 1614 000c 044A     		ldr	r2, .L137
 1615 000e FB79     		ldrb	r3, [r7, #7]
 1616 0010 1370     		strb	r3, [r2]
 360:system.c      ****   CyGlobalIntEnable;
 1617              		.loc 1 360 0
 1618              		.syntax unified
 1619              	@ 360 "system.c" 1
 1620 0012 62B6     		CPSIE   i
 1621              	@ 0 "" 2
 361:system.c      **** }
 1622              		.loc 1 361 0
 1623              		.thumb
 1624              		.syntax unified
 1625 0014 00BF     		nop
 1626 0016 0C37     		adds	r7, r7, #12
 1627              		.cfi_def_cfa_offset 4
 1628 0018 BD46     		mov	sp, r7
 1629              		.cfi_def_cfa_register 13
 1630              		@ sp needed
 1631 001a 80BC     		pop	{r7}
 1632              		.cfi_restore 7
 1633              		.cfi_def_cfa_offset 0
 1634 001c 7047     		bx	lr
 1635              	.L138:
 1636 001e 00BF     		.align	2
 1637              	.L137:
 1638 0020 00000000 		.word	sys_rt_exec_alarm
 1639              		.cfi_endproc
 1640              	.LFE78:
 1641              		.size	system_set_exec_alarm, .-system_set_exec_alarm
 1642              		.section	.text.system_clear_exec_alarm,"ax",%progbits
 1643              		.align	2
 1644              		.global	system_clear_exec_alarm
 1645              		.thumb
 1646              		.thumb_func
 1647              		.type	system_clear_exec_alarm, %function
 1648              	system_clear_exec_alarm:
 1649              	.LFB79:
 362:system.c      **** 
 363:system.c      **** void system_clear_exec_alarm() {
 1650              		.loc 1 363 0
 1651              		.cfi_startproc
 1652              		@ args = 0, pretend = 0, frame = 0
ARM GAS  C:\Users\barto\AppData\Local\Temp\cc1xUybq.s 			page 37


 1653              		@ frame_needed = 1, uses_anonymous_args = 0
 1654              		@ link register save eliminated.
 1655 0000 80B4     		push	{r7}
 1656              		.cfi_def_cfa_offset 4
 1657              		.cfi_offset 7, -4
 1658 0002 00AF     		add	r7, sp, #0
 1659              		.cfi_def_cfa_register 7
 364:system.c      ****   CyGlobalIntDisable;
 1660              		.loc 1 364 0
 1661              		.syntax unified
 1662              	@ 364 "system.c" 1
 1663 0004 72B6     		CPSID   i
 1664              	@ 0 "" 2
 365:system.c      ****   sys_rt_exec_alarm = 0;
 1665              		.loc 1 365 0
 1666              		.thumb
 1667              		.syntax unified
 1668 0006 044B     		ldr	r3, .L140
 1669 0008 0022     		movs	r2, #0
 1670 000a 1A70     		strb	r2, [r3]
 366:system.c      ****   CyGlobalIntEnable;
 1671              		.loc 1 366 0
 1672              		.syntax unified
 1673              	@ 366 "system.c" 1
 1674 000c 62B6     		CPSIE   i
 1675              	@ 0 "" 2
 367:system.c      **** }
 1676              		.loc 1 367 0
 1677              		.thumb
 1678              		.syntax unified
 1679 000e 00BF     		nop
 1680 0010 BD46     		mov	sp, r7
 1681              		.cfi_def_cfa_register 13
 1682              		@ sp needed
 1683 0012 80BC     		pop	{r7}
 1684              		.cfi_restore 7
 1685              		.cfi_def_cfa_offset 0
 1686 0014 7047     		bx	lr
 1687              	.L141:
 1688 0016 00BF     		.align	2
 1689              	.L140:
 1690 0018 00000000 		.word	sys_rt_exec_alarm
 1691              		.cfi_endproc
 1692              	.LFE79:
 1693              		.size	system_clear_exec_alarm, .-system_clear_exec_alarm
 1694              		.section	.text.system_set_exec_alarm_flag,"ax",%progbits
 1695              		.align	2
 1696              		.global	system_set_exec_alarm_flag
 1697              		.thumb
 1698              		.thumb_func
 1699              		.type	system_set_exec_alarm_flag, %function
 1700              	system_set_exec_alarm_flag:
 1701              	.LFB80:
 368:system.c      **** 
 369:system.c      **** void system_set_exec_alarm_flag(uint8_t mask) {
 1702              		.loc 1 369 0
 1703              		.cfi_startproc
ARM GAS  C:\Users\barto\AppData\Local\Temp\cc1xUybq.s 			page 38


 1704              		@ args = 0, pretend = 0, frame = 8
 1705              		@ frame_needed = 1, uses_anonymous_args = 0
 1706              		@ link register save eliminated.
 1707 0000 80B4     		push	{r7}
 1708              		.cfi_def_cfa_offset 4
 1709              		.cfi_offset 7, -4
 1710 0002 83B0     		sub	sp, sp, #12
 1711              		.cfi_def_cfa_offset 16
 1712 0004 00AF     		add	r7, sp, #0
 1713              		.cfi_def_cfa_register 7
 1714 0006 0346     		mov	r3, r0
 1715 0008 FB71     		strb	r3, [r7, #7]
 370:system.c      ****   CyGlobalIntDisable;
 1716              		.loc 1 370 0
 1717              		.syntax unified
 1718              	@ 370 "system.c" 1
 1719 000a 72B6     		CPSID   i
 1720              	@ 0 "" 2
 371:system.c      ****   sys_rt_exec_alarm |= (mask);
 1721              		.loc 1 371 0
 1722              		.thumb
 1723              		.syntax unified
 1724 000c 064B     		ldr	r3, .L143
 1725 000e 1B78     		ldrb	r3, [r3]
 1726 0010 DAB2     		uxtb	r2, r3
 1727 0012 FB79     		ldrb	r3, [r7, #7]
 1728 0014 1343     		orrs	r3, r3, r2
 1729 0016 DAB2     		uxtb	r2, r3
 1730 0018 034B     		ldr	r3, .L143
 1731 001a 1A70     		strb	r2, [r3]
 372:system.c      ****   CyGlobalIntEnable;
 1732              		.loc 1 372 0
 1733              		.syntax unified
 1734              	@ 372 "system.c" 1
 1735 001c 62B6     		CPSIE   i
 1736              	@ 0 "" 2
 373:system.c      **** }
 1737              		.loc 1 373 0
 1738              		.thumb
 1739              		.syntax unified
 1740 001e 00BF     		nop
 1741 0020 0C37     		adds	r7, r7, #12
 1742              		.cfi_def_cfa_offset 4
 1743 0022 BD46     		mov	sp, r7
 1744              		.cfi_def_cfa_register 13
 1745              		@ sp needed
 1746 0024 80BC     		pop	{r7}
 1747              		.cfi_restore 7
 1748              		.cfi_def_cfa_offset 0
 1749 0026 7047     		bx	lr
 1750              	.L144:
 1751              		.align	2
 1752              	.L143:
 1753 0028 00000000 		.word	sys_rt_exec_alarm
 1754              		.cfi_endproc
 1755              	.LFE80:
 1756              		.size	system_set_exec_alarm_flag, .-system_set_exec_alarm_flag
ARM GAS  C:\Users\barto\AppData\Local\Temp\cc1xUybq.s 			page 39


 1757              		.section	.text.system_clear_exec_alarm_flag,"ax",%progbits
 1758              		.align	2
 1759              		.global	system_clear_exec_alarm_flag
 1760              		.thumb
 1761              		.thumb_func
 1762              		.type	system_clear_exec_alarm_flag, %function
 1763              	system_clear_exec_alarm_flag:
 1764              	.LFB81:
 374:system.c      **** 
 375:system.c      **** void system_clear_exec_alarm_flag(uint8_t mask) {
 1765              		.loc 1 375 0
 1766              		.cfi_startproc
 1767              		@ args = 0, pretend = 0, frame = 8
 1768              		@ frame_needed = 1, uses_anonymous_args = 0
 1769              		@ link register save eliminated.
 1770 0000 80B4     		push	{r7}
 1771              		.cfi_def_cfa_offset 4
 1772              		.cfi_offset 7, -4
 1773 0002 83B0     		sub	sp, sp, #12
 1774              		.cfi_def_cfa_offset 16
 1775 0004 00AF     		add	r7, sp, #0
 1776              		.cfi_def_cfa_register 7
 1777 0006 0346     		mov	r3, r0
 1778 0008 FB71     		strb	r3, [r7, #7]
 376:system.c      ****   CyGlobalIntDisable; 
 1779              		.loc 1 376 0
 1780              		.syntax unified
 1781              	@ 376 "system.c" 1
 1782 000a 72B6     		CPSID   i
 1783              	@ 0 "" 2
 377:system.c      ****   sys_rt_exec_alarm &= ~(mask);
 1784              		.loc 1 377 0
 1785              		.thumb
 1786              		.syntax unified
 1787 000c 97F90730 		ldrsb	r3, [r7, #7]
 1788 0010 DB43     		mvns	r3, r3
 1789 0012 5AB2     		sxtb	r2, r3
 1790 0014 074B     		ldr	r3, .L146
 1791 0016 1B78     		ldrb	r3, [r3]
 1792 0018 DBB2     		uxtb	r3, r3
 1793 001a 5BB2     		sxtb	r3, r3
 1794 001c 1340     		ands	r3, r3, r2
 1795 001e 5BB2     		sxtb	r3, r3
 1796 0020 DAB2     		uxtb	r2, r3
 1797 0022 044B     		ldr	r3, .L146
 1798 0024 1A70     		strb	r2, [r3]
 378:system.c      ****   CyGlobalIntEnable;
 1799              		.loc 1 378 0
 1800              		.syntax unified
 1801              	@ 378 "system.c" 1
 1802 0026 62B6     		CPSIE   i
 1803              	@ 0 "" 2
 379:system.c      **** }
 1804              		.loc 1 379 0
 1805              		.thumb
 1806              		.syntax unified
 1807 0028 00BF     		nop
ARM GAS  C:\Users\barto\AppData\Local\Temp\cc1xUybq.s 			page 40


 1808 002a 0C37     		adds	r7, r7, #12
 1809              		.cfi_def_cfa_offset 4
 1810 002c BD46     		mov	sp, r7
 1811              		.cfi_def_cfa_register 13
 1812              		@ sp needed
 1813 002e 80BC     		pop	{r7}
 1814              		.cfi_restore 7
 1815              		.cfi_def_cfa_offset 0
 1816 0030 7047     		bx	lr
 1817              	.L147:
 1818 0032 00BF     		.align	2
 1819              	.L146:
 1820 0034 00000000 		.word	sys_rt_exec_alarm
 1821              		.cfi_endproc
 1822              	.LFE81:
 1823              		.size	system_clear_exec_alarm_flag, .-system_clear_exec_alarm_flag
 1824              		.section	.text.system_set_exec_motion_override_flag,"ax",%progbits
 1825              		.align	2
 1826              		.global	system_set_exec_motion_override_flag
 1827              		.thumb
 1828              		.thumb_func
 1829              		.type	system_set_exec_motion_override_flag, %function
 1830              	system_set_exec_motion_override_flag:
 1831              	.LFB82:
 380:system.c      **** 
 381:system.c      **** void system_set_exec_motion_override_flag(uint8_t mask) {
 1832              		.loc 1 381 0
 1833              		.cfi_startproc
 1834              		@ args = 0, pretend = 0, frame = 8
 1835              		@ frame_needed = 1, uses_anonymous_args = 0
 1836              		@ link register save eliminated.
 1837 0000 80B4     		push	{r7}
 1838              		.cfi_def_cfa_offset 4
 1839              		.cfi_offset 7, -4
 1840 0002 83B0     		sub	sp, sp, #12
 1841              		.cfi_def_cfa_offset 16
 1842 0004 00AF     		add	r7, sp, #0
 1843              		.cfi_def_cfa_register 7
 1844 0006 0346     		mov	r3, r0
 1845 0008 FB71     		strb	r3, [r7, #7]
 382:system.c      ****   CyGlobalIntDisable;
 1846              		.loc 1 382 0
 1847              		.syntax unified
 1848              	@ 382 "system.c" 1
 1849 000a 72B6     		CPSID   i
 1850              	@ 0 "" 2
 383:system.c      ****   sys_rt_exec_motion_override |= (mask);
 1851              		.loc 1 383 0
 1852              		.thumb
 1853              		.syntax unified
 1854 000c 064B     		ldr	r3, .L149
 1855 000e 1B78     		ldrb	r3, [r3]
 1856 0010 DAB2     		uxtb	r2, r3
 1857 0012 FB79     		ldrb	r3, [r7, #7]
 1858 0014 1343     		orrs	r3, r3, r2
 1859 0016 DAB2     		uxtb	r2, r3
 1860 0018 034B     		ldr	r3, .L149
ARM GAS  C:\Users\barto\AppData\Local\Temp\cc1xUybq.s 			page 41


 1861 001a 1A70     		strb	r2, [r3]
 384:system.c      ****   CyGlobalIntEnable;
 1862              		.loc 1 384 0
 1863              		.syntax unified
 1864              	@ 384 "system.c" 1
 1865 001c 62B6     		CPSIE   i
 1866              	@ 0 "" 2
 385:system.c      **** }
 1867              		.loc 1 385 0
 1868              		.thumb
 1869              		.syntax unified
 1870 001e 00BF     		nop
 1871 0020 0C37     		adds	r7, r7, #12
 1872              		.cfi_def_cfa_offset 4
 1873 0022 BD46     		mov	sp, r7
 1874              		.cfi_def_cfa_register 13
 1875              		@ sp needed
 1876 0024 80BC     		pop	{r7}
 1877              		.cfi_restore 7
 1878              		.cfi_def_cfa_offset 0
 1879 0026 7047     		bx	lr
 1880              	.L150:
 1881              		.align	2
 1882              	.L149:
 1883 0028 00000000 		.word	sys_rt_exec_motion_override
 1884              		.cfi_endproc
 1885              	.LFE82:
 1886              		.size	system_set_exec_motion_override_flag, .-system_set_exec_motion_override_flag
 1887              		.section	.text.system_set_exec_accessory_override_flag,"ax",%progbits
 1888              		.align	2
 1889              		.global	system_set_exec_accessory_override_flag
 1890              		.thumb
 1891              		.thumb_func
 1892              		.type	system_set_exec_accessory_override_flag, %function
 1893              	system_set_exec_accessory_override_flag:
 1894              	.LFB83:
 386:system.c      **** 
 387:system.c      **** void system_set_exec_accessory_override_flag(uint8_t mask) {
 1895              		.loc 1 387 0
 1896              		.cfi_startproc
 1897              		@ args = 0, pretend = 0, frame = 8
 1898              		@ frame_needed = 1, uses_anonymous_args = 0
 1899              		@ link register save eliminated.
 1900 0000 80B4     		push	{r7}
 1901              		.cfi_def_cfa_offset 4
 1902              		.cfi_offset 7, -4
 1903 0002 83B0     		sub	sp, sp, #12
 1904              		.cfi_def_cfa_offset 16
 1905 0004 00AF     		add	r7, sp, #0
 1906              		.cfi_def_cfa_register 7
 1907 0006 0346     		mov	r3, r0
 1908 0008 FB71     		strb	r3, [r7, #7]
 388:system.c      ****   CyGlobalIntDisable;
 1909              		.loc 1 388 0
 1910              		.syntax unified
 1911              	@ 388 "system.c" 1
 1912 000a 72B6     		CPSID   i
ARM GAS  C:\Users\barto\AppData\Local\Temp\cc1xUybq.s 			page 42


 1913              	@ 0 "" 2
 389:system.c      ****   sys_rt_exec_accessory_override |= (mask);
 1914              		.loc 1 389 0
 1915              		.thumb
 1916              		.syntax unified
 1917 000c 064B     		ldr	r3, .L152
 1918 000e 1B78     		ldrb	r3, [r3]
 1919 0010 DAB2     		uxtb	r2, r3
 1920 0012 FB79     		ldrb	r3, [r7, #7]
 1921 0014 1343     		orrs	r3, r3, r2
 1922 0016 DAB2     		uxtb	r2, r3
 1923 0018 034B     		ldr	r3, .L152
 1924 001a 1A70     		strb	r2, [r3]
 390:system.c      ****   CyGlobalIntEnable;
 1925              		.loc 1 390 0
 1926              		.syntax unified
 1927              	@ 390 "system.c" 1
 1928 001c 62B6     		CPSIE   i
 1929              	@ 0 "" 2
 391:system.c      **** }
 1930              		.loc 1 391 0
 1931              		.thumb
 1932              		.syntax unified
 1933 001e 00BF     		nop
 1934 0020 0C37     		adds	r7, r7, #12
 1935              		.cfi_def_cfa_offset 4
 1936 0022 BD46     		mov	sp, r7
 1937              		.cfi_def_cfa_register 13
 1938              		@ sp needed
 1939 0024 80BC     		pop	{r7}
 1940              		.cfi_restore 7
 1941              		.cfi_def_cfa_offset 0
 1942 0026 7047     		bx	lr
 1943              	.L153:
 1944              		.align	2
 1945              	.L152:
 1946 0028 00000000 		.word	sys_rt_exec_accessory_override
 1947              		.cfi_endproc
 1948              	.LFE83:
 1949              		.size	system_set_exec_accessory_override_flag, .-system_set_exec_accessory_override_flag
 1950              		.section	.text.system_clear_exec_motion_overrides,"ax",%progbits
 1951              		.align	2
 1952              		.global	system_clear_exec_motion_overrides
 1953              		.thumb
 1954              		.thumb_func
 1955              		.type	system_clear_exec_motion_overrides, %function
 1956              	system_clear_exec_motion_overrides:
 1957              	.LFB84:
 392:system.c      **** 
 393:system.c      **** void system_clear_exec_motion_overrides() {
 1958              		.loc 1 393 0
 1959              		.cfi_startproc
 1960              		@ args = 0, pretend = 0, frame = 0
 1961              		@ frame_needed = 1, uses_anonymous_args = 0
 1962              		@ link register save eliminated.
 1963 0000 80B4     		push	{r7}
 1964              		.cfi_def_cfa_offset 4
ARM GAS  C:\Users\barto\AppData\Local\Temp\cc1xUybq.s 			page 43


 1965              		.cfi_offset 7, -4
 1966 0002 00AF     		add	r7, sp, #0
 1967              		.cfi_def_cfa_register 7
 394:system.c      ****   CyGlobalIntDisable;
 1968              		.loc 1 394 0
 1969              		.syntax unified
 1970              	@ 394 "system.c" 1
 1971 0004 72B6     		CPSID   i
 1972              	@ 0 "" 2
 395:system.c      ****   sys_rt_exec_motion_override = 0;
 1973              		.loc 1 395 0
 1974              		.thumb
 1975              		.syntax unified
 1976 0006 044B     		ldr	r3, .L155
 1977 0008 0022     		movs	r2, #0
 1978 000a 1A70     		strb	r2, [r3]
 396:system.c      ****   CyGlobalIntEnable;
 1979              		.loc 1 396 0
 1980              		.syntax unified
 1981              	@ 396 "system.c" 1
 1982 000c 62B6     		CPSIE   i
 1983              	@ 0 "" 2
 397:system.c      **** }
 1984              		.loc 1 397 0
 1985              		.thumb
 1986              		.syntax unified
 1987 000e 00BF     		nop
 1988 0010 BD46     		mov	sp, r7
 1989              		.cfi_def_cfa_register 13
 1990              		@ sp needed
 1991 0012 80BC     		pop	{r7}
 1992              		.cfi_restore 7
 1993              		.cfi_def_cfa_offset 0
 1994 0014 7047     		bx	lr
 1995              	.L156:
 1996 0016 00BF     		.align	2
 1997              	.L155:
 1998 0018 00000000 		.word	sys_rt_exec_motion_override
 1999              		.cfi_endproc
 2000              	.LFE84:
 2001              		.size	system_clear_exec_motion_overrides, .-system_clear_exec_motion_overrides
 2002              		.section	.text.system_clear_exec_accessory_overrides,"ax",%progbits
 2003              		.align	2
 2004              		.global	system_clear_exec_accessory_overrides
 2005              		.thumb
 2006              		.thumb_func
 2007              		.type	system_clear_exec_accessory_overrides, %function
 2008              	system_clear_exec_accessory_overrides:
 2009              	.LFB85:
 398:system.c      **** 
 399:system.c      **** void system_clear_exec_accessory_overrides() {
 2010              		.loc 1 399 0
 2011              		.cfi_startproc
 2012              		@ args = 0, pretend = 0, frame = 0
 2013              		@ frame_needed = 1, uses_anonymous_args = 0
 2014              		@ link register save eliminated.
 2015 0000 80B4     		push	{r7}
ARM GAS  C:\Users\barto\AppData\Local\Temp\cc1xUybq.s 			page 44


 2016              		.cfi_def_cfa_offset 4
 2017              		.cfi_offset 7, -4
 2018 0002 00AF     		add	r7, sp, #0
 2019              		.cfi_def_cfa_register 7
 400:system.c      ****   CyGlobalIntDisable;
 2020              		.loc 1 400 0
 2021              		.syntax unified
 2022              	@ 400 "system.c" 1
 2023 0004 72B6     		CPSID   i
 2024              	@ 0 "" 2
 401:system.c      ****   sys_rt_exec_accessory_override = 0;
 2025              		.loc 1 401 0
 2026              		.thumb
 2027              		.syntax unified
 2028 0006 044B     		ldr	r3, .L158
 2029 0008 0022     		movs	r2, #0
 2030 000a 1A70     		strb	r2, [r3]
 402:system.c      ****   CyGlobalIntEnable;
 2031              		.loc 1 402 0
 2032              		.syntax unified
 2033              	@ 402 "system.c" 1
 2034 000c 62B6     		CPSIE   i
 2035              	@ 0 "" 2
 403:system.c      **** }
 2036              		.loc 1 403 0
 2037              		.thumb
 2038              		.syntax unified
 2039 000e 00BF     		nop
 2040 0010 BD46     		mov	sp, r7
 2041              		.cfi_def_cfa_register 13
 2042              		@ sp needed
 2043 0012 80BC     		pop	{r7}
 2044              		.cfi_restore 7
 2045              		.cfi_def_cfa_offset 0
 2046 0014 7047     		bx	lr
 2047              	.L159:
 2048 0016 00BF     		.align	2
 2049              	.L158:
 2050 0018 00000000 		.word	sys_rt_exec_accessory_override
 2051              		.cfi_endproc
 2052              	.LFE85:
 2053              		.size	system_clear_exec_accessory_overrides, .-system_clear_exec_accessory_overrides
 2054              		.text
 2055              	.Letext0:
 2056              		.file 2 "c:\\program files (x86)\\cypress\\psoc creator\\4.2\\psoc creator\\import\\gnu\\arm\\5.4.
 2057              		.file 3 "c:\\program files (x86)\\cypress\\psoc creator\\4.2\\psoc creator\\import\\gnu\\arm\\5.4.
 2058              		.file 4 "settings.h"
 2059              		.file 5 "system.h"
 2060              		.file 6 "Generated_Source\\PSoC5/core_cm3.h"