ARM GAS  C:\Users\barto\AppData\Local\Temp\cc8rv2Lh.s 			page 1


   1              		.syntax unified
   2              		.cpu cortex-m3
   3              		.fpu softvfp
   4              		.eabi_attribute 20, 1
   5              		.eabi_attribute 21, 1
   6              		.eabi_attribute 23, 3
   7              		.eabi_attribute 24, 1
   8              		.eabi_attribute 25, 1
   9              		.eabi_attribute 26, 1
  10              		.eabi_attribute 30, 6
  11              		.eabi_attribute 34, 1
  12              		.eabi_attribute 18, 4
  13              		.thumb
  14              		.syntax unified
  15              		.file	"usb_uart.c"
  16              		.text
  17              	.Ltext0:
  18              		.cfi_sections	.debug_frame
  19              		.comm	sys_position,12,4
  20              		.comm	sys_probe_position,12,4
  21              		.comm	sys_probe_state,1,1
  22              		.comm	sys_rt_exec_state,1,1
  23              		.comm	sys_rt_exec_alarm,1,1
  24              		.comm	sys_rt_exec_motion_override,1,1
  25              		.comm	sys_rt_exec_accessory_override,1,1
  26              		.section	.text.usb_uart_init,"ax",%progbits
  27              		.align	2
  28              		.global	usb_uart_init
  29              		.thumb
  30              		.thumb_func
  31              		.type	usb_uart_init, %function
  32              	usb_uart_init:
  33              	.LFB64:
  34              		.file 1 "usb_uart.c"
   1:usb_uart.c    **** /* ========================================
   2:usb_uart.c    ****  *
   3:usb_uart.c    ****  * Copyright Buildlog.net 2018
   4:usb_uart.c    ****  * Bart Dring
   5:usb_uart.c    ****  * Open Source CC4.0 Attribution - Share Alike
   6:usb_uart.c    ****  * 
   7:usb_uart.c    ****  * USB UART Functions for Grbl
   8:usb_uart.c    ****  *
   9:usb_uart.c    ****  * ========================================
  10:usb_uart.c    **** */
  11:usb_uart.c    **** 
  12:usb_uart.c    **** #include "grbl.h"
  13:usb_uart.c    **** 
  14:usb_uart.c    **** /* ==========================================
  15:usb_uart.c    **** *  Initialize the USB UART.
  16:usb_uart.c    **** *
  17:usb_uart.c    **** * ===========================================
  18:usb_uart.c    **** */
  19:usb_uart.c    **** 
  20:usb_uart.c    **** 
  21:usb_uart.c    **** void usb_uart_init() {
  35              		.loc 1 21 0
  36              		.cfi_startproc
ARM GAS  C:\Users\barto\AppData\Local\Temp\cc8rv2Lh.s 			page 2


  37              		@ args = 0, pretend = 0, frame = 0
  38              		@ frame_needed = 1, uses_anonymous_args = 0
  39 0000 80B5     		push	{r7, lr}
  40              		.cfi_def_cfa_offset 8
  41              		.cfi_offset 7, -8
  42              		.cfi_offset 14, -4
  43 0002 00AF     		add	r7, sp, #0
  44              		.cfi_def_cfa_register 7
  22:usb_uart.c    ****     USBUART_Start(USBFS_DEVICE, USBUART_5V_OPERATION);
  45              		.loc 1 22 0
  46 0004 0121     		movs	r1, #1
  47 0006 0020     		movs	r0, #0
  48 0008 FFF7FEFF 		bl	USBUART_Start
  23:usb_uart.c    **** }
  49              		.loc 1 23 0
  50 000c 00BF     		nop
  51 000e 80BD     		pop	{r7, pc}
  52              		.cfi_endproc
  53              	.LFE64:
  54              		.size	usb_uart_init, .-usb_uart_init
  55              		.section	.text.usb_uart_check,"ax",%progbits
  56              		.align	2
  57              		.global	usb_uart_check
  58              		.thumb
  59              		.thumb_func
  60              		.type	usb_uart_check, %function
  61              	usb_uart_check:
  62              	.LFB65:
  24:usb_uart.c    **** 
  25:usb_uart.c    **** /* 
  26:usb_uart.c    **** This checks the status of the USBUART
  27:usb_uart.c    **** ..Initializes the UART if the configuration has changed
  28:usb_uart.c    **** ..Gets data if there is data ready to get
  29:usb_uart.c    **** */ 
  30:usb_uart.c    **** void usb_uart_check(){
  63              		.loc 1 30 0
  64              		.cfi_startproc
  65              		@ args = 0, pretend = 0, frame = 72
  66              		@ frame_needed = 1, uses_anonymous_args = 0
  67 0000 80B5     		push	{r7, lr}
  68              		.cfi_def_cfa_offset 8
  69              		.cfi_offset 7, -8
  70              		.cfi_offset 14, -4
  71 0002 92B0     		sub	sp, sp, #72
  72              		.cfi_def_cfa_offset 80
  73 0004 00AF     		add	r7, sp, #0
  74              		.cfi_def_cfa_register 7
  31:usb_uart.c    ****     
  32:usb_uart.c    ****     uint16 count; // number of bytes received   
  33:usb_uart.c    ****     uint8 buffer[USBUART_BUFFER_SIZE]; // bytes received    
  34:usb_uart.c    ****     
  35:usb_uart.c    ****     
  36:usb_uart.c    ****     if (0u != USBUART_IsConfigurationChanged())
  75              		.loc 1 36 0
  76 0006 FFF7FEFF 		bl	USBUART_IsConfigurationChanged
  77 000a 0346     		mov	r3, r0
  78 000c 002B     		cmp	r3, #0
ARM GAS  C:\Users\barto\AppData\Local\Temp\cc8rv2Lh.s 			page 3


  79 000e 06D0     		beq	.L3
  37:usb_uart.c    ****     {
  38:usb_uart.c    ****         /* Initialize IN endpoints when device is configured. */
  39:usb_uart.c    ****         if (0u != USBUART_GetConfiguration())
  80              		.loc 1 39 0
  81 0010 FFF7FEFF 		bl	USBUART_GetConfiguration
  82 0014 0346     		mov	r3, r0
  83 0016 002B     		cmp	r3, #0
  84 0018 01D0     		beq	.L3
  40:usb_uart.c    ****         {
  41:usb_uart.c    ****             /* Enumeration is done, enable OUT endpoint to receive data 
  42:usb_uart.c    ****              * from host. */
  43:usb_uart.c    ****             USBUART_CDC_Init();
  85              		.loc 1 43 0
  86 001a FFF7FEFF 		bl	USBUART_CDC_Init
  87              	.L3:
  44:usb_uart.c    ****         }
  45:usb_uart.c    ****     }
  46:usb_uart.c    **** 
  47:usb_uart.c    ****         /* Service USB CDC when device is configured. */
  48:usb_uart.c    ****         if (0u != USBUART_GetConfiguration())
  88              		.loc 1 48 0
  89 001e FFF7FEFF 		bl	USBUART_GetConfiguration
  90 0022 0346     		mov	r3, r0
  91 0024 002B     		cmp	r3, #0
  92 0026 21D0     		beq	.L7
  49:usb_uart.c    ****         {
  50:usb_uart.c    ****             /* Check for input data from host. */
  51:usb_uart.c    ****             if (0u != USBUART_DataIsReady())
  93              		.loc 1 51 0
  94 0028 FFF7FEFF 		bl	USBUART_DataIsReady
  95 002c 0346     		mov	r3, r0
  96 002e 002B     		cmp	r3, #0
  97 0030 1CD0     		beq	.L7
  52:usb_uart.c    ****             {
  53:usb_uart.c    ****                 /* Read received data and re-enable OUT endpoint. */
  54:usb_uart.c    ****                 count = USBUART_GetAll(buffer);
  98              		.loc 1 54 0
  99 0032 3B46     		mov	r3, r7
 100 0034 1846     		mov	r0, r3
 101 0036 FFF7FEFF 		bl	USBUART_GetAll
 102 003a 0346     		mov	r3, r0
 103 003c A7F84230 		strh	r3, [r7, #66]	@ movhi
  55:usb_uart.c    **** 
  56:usb_uart.c    ****                 if (0u != count)
 104              		.loc 1 56 0
 105 0040 B7F84230 		ldrh	r3, [r7, #66]
 106 0044 002B     		cmp	r3, #0
 107 0046 11D0     		beq	.L7
 108              	.LBB2:
  57:usb_uart.c    ****                 {                    
  58:usb_uart.c    ****                     /* Send the data to Grbl */
  59:usb_uart.c    ****                     for (int i = 0; i < count; i++) {
 109              		.loc 1 59 0
 110 0048 0023     		movs	r3, #0
 111 004a 7B64     		str	r3, [r7, #68]
 112 004c 09E0     		b	.L5
ARM GAS  C:\Users\barto\AppData\Local\Temp\cc8rv2Lh.s 			page 4


 113              	.L6:
  60:usb_uart.c    ****                         rx_handler(buffer[i]);
 114              		.loc 1 60 0 discriminator 3
 115 004e 3A46     		mov	r2, r7
 116 0050 7B6C     		ldr	r3, [r7, #68]
 117 0052 1344     		add	r3, r3, r2
 118 0054 1B78     		ldrb	r3, [r3]	@ zero_extendqisi2
 119 0056 1846     		mov	r0, r3
 120 0058 FFF7FEFF 		bl	rx_handler
  59:usb_uart.c    ****                         rx_handler(buffer[i]);
 121              		.loc 1 59 0 discriminator 3
 122 005c 7B6C     		ldr	r3, [r7, #68]
 123 005e 0133     		adds	r3, r3, #1
 124 0060 7B64     		str	r3, [r7, #68]
 125              	.L5:
  59:usb_uart.c    ****                         rx_handler(buffer[i]);
 126              		.loc 1 59 0 is_stmt 0 discriminator 1
 127 0062 B7F84220 		ldrh	r2, [r7, #66]
 128 0066 7B6C     		ldr	r3, [r7, #68]
 129 0068 9A42     		cmp	r2, r3
 130 006a F0DC     		bgt	.L6
 131              	.L7:
 132              	.LBE2:
  61:usb_uart.c    ****                     }
  62:usb_uart.c    ****                 }
  63:usb_uart.c    ****             }
  64:usb_uart.c    ****             
  65:usb_uart.c    ****            
  66:usb_uart.c    ****             
  67:usb_uart.c    ****             
  68:usb_uart.c    ****             
  69:usb_uart.c    **** 
  70:usb_uart.c    ****         #ifdef LINE_DEBUG // used to debug the data via the TTL UART
  71:usb_uart.c    ****             /* Check for Line settings change. */
  72:usb_uart.c    ****             char lineStr[LINE_STR_LENGTH];
  73:usb_uart.c    ****             char* parity[] = {"None", "Odd", "Even", "Mark", "Space"};
  74:usb_uart.c    ****             char* stop[]   = {"1", "1.5", "2"};    
  75:usb_uart.c    ****             
  76:usb_uart.c    ****              uint8 state;
  77:usb_uart.c    ****             state = USBUART_IsLineChanged();
  78:usb_uart.c    ****             
  79:usb_uart.c    ****             
  80:usb_uart.c    ****             if (0u != state)
  81:usb_uart.c    ****             {                
  82:usb_uart.c    ****                 sprintf(lineStr, "State: %d \r\n", state);                
  83:usb_uart.c    ****                 UART_PutString(lineStr);
  84:usb_uart.c    ****                 sprintf(lineStr, "Baud: %ld \r\n", USBUART_GetDTERate());                
  85:usb_uart.c    ****                 UART_PutString(lineStr);
  86:usb_uart.c    ****                 
  87:usb_uart.c    ****                 sprintf(lineStr, "Serial State: %d \r\n", USBUART_GetSerialState());               
  88:usb_uart.c    ****                 UART_PutString(lineStr);
  89:usb_uart.c    ****                 
  90:usb_uart.c    ****                 if (0u != (state & USBUART_LINE_CODING_CHANGED))
  91:usb_uart.c    ****                 {                  
  92:usb_uart.c    ****                     /* Get string to output. */
  93:usb_uart.c    ****                     sprintf(lineStr,"BR:%4ld %d%c%s", USBUART_GetDTERate(),\
  94:usb_uart.c    ****                                    (uint16) USBUART_GetDataBits(),\
ARM GAS  C:\Users\barto\AppData\Local\Temp\cc8rv2Lh.s 			page 5


  95:usb_uart.c    ****                                    parity[(uint16) USBUART_GetParityType()][0],\
  96:usb_uart.c    ****                                    stop[(uint16) USBUART_GetCharFormat()]);
  97:usb_uart.c    **** 
  98:usb_uart.c    ****                     UART_PutString(lineStr);
  99:usb_uart.c    ****                     UART_PutString("\r\n");
 100:usb_uart.c    ****                 }
 101:usb_uart.c    **** 
 102:usb_uart.c    ****                 /* Output on LCD Line Control settings. */
 103:usb_uart.c    ****                 if (0u != (state & USBUART_LINE_CONTROL_CHANGED))
 104:usb_uart.c    ****                 {                   
 105:usb_uart.c    ****                     /* Get string to output. */
 106:usb_uart.c    ****                     state = USBUART_GetLineControl();
 107:usb_uart.c    ****                     sprintf(lineStr,"DTR:%s,RTS:%s",  (0u != (state & USBUART_LINE_CONTROL_DTR)) ? 
 108:usb_uart.c    ****                                                       (0u != (state & USBUART_LINE_CONTROL_RTS)) ? 
 109:usb_uart.c    **** 
 110:usb_uart.c    ****                     UART_PutString(lineStr);
 111:usb_uart.c    ****                     UART_PutString("\r\n");
 112:usb_uart.c    ****                     
 113:usb_uart.c    ****                 }
 114:usb_uart.c    ****             }
 115:usb_uart.c    ****         #endif 
 116:usb_uart.c    ****         }   
 117:usb_uart.c    ****     
 118:usb_uart.c    **** }
 133              		.loc 1 118 0 is_stmt 1
 134 006c 00BF     		nop
 135 006e 4837     		adds	r7, r7, #72
 136              		.cfi_def_cfa_offset 8
 137 0070 BD46     		mov	sp, r7
 138              		.cfi_def_cfa_register 13
 139              		@ sp needed
 140 0072 80BD     		pop	{r7, pc}
 141              		.cfi_endproc
 142              	.LFE65:
 143              		.size	usb_uart_check, .-usb_uart_check
 144              		.section	.text.usb_uart_write,"ax",%progbits
 145              		.align	2
 146              		.global	usb_uart_write
 147              		.thumb
 148              		.thumb_func
 149              		.type	usb_uart_write, %function
 150              	usb_uart_write:
 151              	.LFB66:
 119:usb_uart.c    **** 
 120:usb_uart.c    **** 
 121:usb_uart.c    **** /* These functions are called by Grbl to send to the PC */
 122:usb_uart.c    **** void usb_uart_write(uint8_t data) {
 152              		.loc 1 122 0
 153              		.cfi_startproc
 154              		@ args = 0, pretend = 0, frame = 16
 155              		@ frame_needed = 1, uses_anonymous_args = 0
 156 0000 80B5     		push	{r7, lr}
 157              		.cfi_def_cfa_offset 8
 158              		.cfi_offset 7, -8
 159              		.cfi_offset 14, -4
 160 0002 84B0     		sub	sp, sp, #16
 161              		.cfi_def_cfa_offset 24
ARM GAS  C:\Users\barto\AppData\Local\Temp\cc8rv2Lh.s 			page 6


 162 0004 00AF     		add	r7, sp, #0
 163              		.cfi_def_cfa_register 7
 164 0006 0346     		mov	r3, r0
 165 0008 FB71     		strb	r3, [r7, #7]
 123:usb_uart.c    ****     uint16 ctr = 0;
 166              		.loc 1 123 0
 167 000a 0023     		movs	r3, #0
 168 000c FB81     		strh	r3, [r7, #14]	@ movhi
 124:usb_uart.c    ****     if (USBUART_GetConfiguration() == 1) {    
 169              		.loc 1 124 0
 170 000e FFF7FEFF 		bl	USBUART_GetConfiguration
 171 0012 0346     		mov	r3, r0
 172 0014 012B     		cmp	r3, #1
 173 0016 12D1     		bne	.L8
 125:usb_uart.c    ****         while (0u == USBUART_CDCIsReady())
 174              		.loc 1 125 0
 175 0018 06E0     		b	.L10
 176              	.L11:
 126:usb_uart.c    ****         {
 127:usb_uart.c    ****             ctr++;  if (ctr > 400) 
 177              		.loc 1 127 0
 178 001a FB89     		ldrh	r3, [r7, #14]
 179 001c 0133     		adds	r3, r3, #1
 180 001e FB81     		strh	r3, [r7, #14]	@ movhi
 181 0020 FB89     		ldrh	r3, [r7, #14]
 182 0022 B3F5C87F 		cmp	r3, #400
 183 0026 09D8     		bhi	.L12
 184              	.L10:
 125:usb_uart.c    ****         while (0u == USBUART_CDCIsReady())
 185              		.loc 1 125 0
 186 0028 FFF7FEFF 		bl	USBUART_CDCIsReady
 187 002c 0346     		mov	r3, r0
 188 002e 002B     		cmp	r3, #0
 189 0030 F3D0     		beq	.L11
 128:usb_uart.c    ****                 return; // prevent getting stuck
 129:usb_uart.c    ****         }
 130:usb_uart.c    ****         USBUART_PutChar(data);
 190              		.loc 1 130 0
 191 0032 FB79     		ldrb	r3, [r7, #7]	@ zero_extendqisi2
 192 0034 1846     		mov	r0, r3
 193 0036 FFF7FEFF 		bl	USBUART_PutChar
 194 003a 00E0     		b	.L8
 195              	.L12:
 128:usb_uart.c    ****                 return; // prevent getting stuck
 196              		.loc 1 128 0
 197 003c 00BF     		nop
 198              	.L8:
 131:usb_uart.c    ****     }
 132:usb_uart.c    **** }
 199              		.loc 1 132 0
 200 003e 1037     		adds	r7, r7, #16
 201              		.cfi_def_cfa_offset 8
 202 0040 BD46     		mov	sp, r7
 203              		.cfi_def_cfa_register 13
 204              		@ sp needed
 205 0042 80BD     		pop	{r7, pc}
 206              		.cfi_endproc
ARM GAS  C:\Users\barto\AppData\Local\Temp\cc8rv2Lh.s 			page 7


 207              	.LFE66:
 208              		.size	usb_uart_write, .-usb_uart_write
 209              		.section	.text.usb_uart_PutString,"ax",%progbits
 210              		.align	2
 211              		.global	usb_uart_PutString
 212              		.thumb
 213              		.thumb_func
 214              		.type	usb_uart_PutString, %function
 215              	usb_uart_PutString:
 216              	.LFB67:
 133:usb_uart.c    **** 
 134:usb_uart.c    **** 
 135:usb_uart.c    **** void usb_uart_PutString(const char *s) {    
 217              		.loc 1 135 0
 218              		.cfi_startproc
 219              		@ args = 0, pretend = 0, frame = 16
 220              		@ frame_needed = 1, uses_anonymous_args = 0
 221 0000 80B5     		push	{r7, lr}
 222              		.cfi_def_cfa_offset 8
 223              		.cfi_offset 7, -8
 224              		.cfi_offset 14, -4
 225 0002 84B0     		sub	sp, sp, #16
 226              		.cfi_def_cfa_offset 24
 227 0004 00AF     		add	r7, sp, #0
 228              		.cfi_def_cfa_register 7
 229 0006 7860     		str	r0, [r7, #4]
 136:usb_uart.c    ****     uint16 ctr = 0;
 230              		.loc 1 136 0
 231 0008 0023     		movs	r3, #0
 232 000a FB81     		strh	r3, [r7, #14]	@ movhi
 137:usb_uart.c    ****     if (USBUART_GetConfiguration() == 1) {    
 233              		.loc 1 137 0
 234 000c FFF7FEFF 		bl	USBUART_GetConfiguration
 235 0010 0346     		mov	r3, r0
 236 0012 012B     		cmp	r3, #1
 237 0014 11D1     		bne	.L13
 138:usb_uart.c    ****         while (0u == USBUART_CDCIsReady())
 238              		.loc 1 138 0
 239 0016 06E0     		b	.L15
 240              	.L16:
 139:usb_uart.c    ****         {
 140:usb_uart.c    ****             ctr++;  if (ctr > 400) 
 241              		.loc 1 140 0
 242 0018 FB89     		ldrh	r3, [r7, #14]
 243 001a 0133     		adds	r3, r3, #1
 244 001c FB81     		strh	r3, [r7, #14]	@ movhi
 245 001e FB89     		ldrh	r3, [r7, #14]
 246 0020 B3F5C87F 		cmp	r3, #400
 247 0024 08D8     		bhi	.L17
 248              	.L15:
 138:usb_uart.c    ****         while (0u == USBUART_CDCIsReady())
 249              		.loc 1 138 0
 250 0026 FFF7FEFF 		bl	USBUART_CDCIsReady
 251 002a 0346     		mov	r3, r0
 252 002c 002B     		cmp	r3, #0
 253 002e F3D0     		beq	.L16
 141:usb_uart.c    ****                 return; // prevent getting stuck
ARM GAS  C:\Users\barto\AppData\Local\Temp\cc8rv2Lh.s 			page 8


 142:usb_uart.c    ****         }
 143:usb_uart.c    ****         USBUART_PutString(s);
 254              		.loc 1 143 0
 255 0030 7868     		ldr	r0, [r7, #4]
 256 0032 FFF7FEFF 		bl	USBUART_PutString
 257 0036 00E0     		b	.L13
 258              	.L17:
 141:usb_uart.c    ****                 return; // prevent getting stuck
 259              		.loc 1 141 0
 260 0038 00BF     		nop
 261              	.L13:
 144:usb_uart.c    ****     }        
 145:usb_uart.c    **** }
 262              		.loc 1 145 0
 263 003a 1037     		adds	r7, r7, #16
 264              		.cfi_def_cfa_offset 8
 265 003c BD46     		mov	sp, r7
 266              		.cfi_def_cfa_register 13
 267              		@ sp needed
 268 003e 80BD     		pop	{r7, pc}
 269              		.cfi_endproc
 270              	.LFE67:
 271              		.size	usb_uart_PutString, .-usb_uart_PutString
 272              		.text
 273              	.Letext0:
 274              		.file 2 "c:\\program files (x86)\\cypress\\psoc creator\\4.2\\psoc creator\\import\\gnu\\arm\\5.4.
 275              		.file 3 "c:\\program files (x86)\\cypress\\psoc creator\\4.2\\psoc creator\\import\\gnu\\arm\\5.4.
 276              		.file 4 "Generated_Source\\PSoC5/cytypes.h"
 277              		.file 5 "Generated_Source\\PSoC5/core_cm3.h"
 278              		.file 6 "system.h"